
========================================================================

** ELF Header Information

    File Name: .\Objects\sensor_adc.axf

    Machine class: ELFCLASS32 (32-bit)
    Data encoding: ELFDATA2LSB (Little endian)
    Header version: EV_CURRENT (Current version)
    Operating System ABI: none
    ABI Version: 0
    File Type: ET_EXEC (Executable) (2)
    Machine: EM_ARM (ARM)

    Image Entry point: Not specified
    Flags: EF_ARM_ABI_FLOAT_SOFT (0x05000200)

    ARM ELF revision: 5 (ABI version 2)

    Conforms to Soft float procedure-call standard

    Built with
    Component: ARM Compiler 5.06 update 6 (build 750) Tool: armasm [4d35ec]
    Component: ARM Compiler 5.06 update 6 (build 750) Tool: armlink [4d35ed]

    Header size: 52 bytes (0x34)
    Program header entry size: 32 bytes (0x20)
    Section header entry size: 40 bytes (0x28)

    Program header entries: 1
    Section header entries: 16

    Program header offset: 166864 (0x00028bd0)
    Section header offset: 166896 (0x00028bf0)

    Section header string table index: 15

========================================================================

** Program header #0

    Type          : PT_LOAD (1)
    File Offset   : 52 (0x34)
    Virtual Addr  : 0x00000000
    Physical Addr : 0x00000000
    Size in file  : 23468 bytes (0x5bac)
    Size in memory: 38632 bytes (0x96e8)
    Flags         : PF_X + PF_W + PF_R (0x7)
    Alignment     : 16


========================================================================

** Section #1

    Name        : ER_IROM1
    Type        : SHT_PROGBITS (0x00000001)
    Flags       : SHF_ALLOC + SHF_EXECINSTR (0x00000006)
    Addr        : 0x00000000
    File Offset : 52 (0x34)
    Size        : 23224 bytes (0x5ab8)
    Link        : SHN_UNDEF
    Info        : 0
    Alignment   : 4
    Entry Size  : 0

    $d.realdata
    RESET
    __Vectors
        0x00000000:    20003c30    0<.     DCD    536886320
        0x00000004:    00000299    ....    DCD    665
        0x00000008:    00000000    ....    DCD    0
        0x0000000c:    00000000    ....    DCD    0
        0x00000010:    00000000    ....    DCD    0
        0x00000014:    00000000    ....    DCD    0
        0x00000018:    00000000    ....    DCD    0
        0x0000001c:    00000000    ....    DCD    0
        0x00000020:    00000000    ....    DCD    0
        0x00000024:    00000000    ....    DCD    0
        0x00000028:    00000000    ....    DCD    0
        0x0000002c:    00000000    ....    DCD    0
        0x00000030:    00000000    ....    DCD    0
        0x00000034:    00000000    ....    DCD    0
        0x00000038:    00000000    ....    DCD    0
        0x0000003c:    00000000    ....    DCD    0
        0x00000040:    000002a3    ....    DCD    675
        0x00000044:    000002f3    ....    DCD    755
        0x00000048:    0000036b    k...    DCD    875
        0x0000004c:    000002b7    ....    DCD    695
        0x00000050:    00000000    ....    DCD    0
        0x00000054:    00000000    ....    DCD    0
        0x00000058:    000002cb    ....    DCD    715
        0x0000005c:    000002df    ....    DCD    735
        0x00000060:    00000343    C...    DCD    835
        0x00000064:    00000357    W...    DCD    855
        0x00000068:    00000000    ....    DCD    0
        0x0000006c:    0000037f    ....    DCD    895
        0x00000070:    00000307    ....    DCD    775
        0x00000074:    0000031b    ....    DCD    795
        0x00000078:    0000032f    /...    DCD    815
        0x0000007c:    00000000    ....    DCD    0
    $t
    !!!main
    __main
        0x00000080:    f000f802    ....    BL       __scatterload ; 0x88
        0x00000084:    f000f85a    ..Z.    BL       __rt_entry ; 0x13c
    !!!scatter
    __scatterload
    __scatterload_rt2
    __scatterload_rt2_thumb_only
        0x00000088:    a00c        ..      ADR      r0,{pc}+0x34 ; 0xbc
        0x0000008a:    c830        0.      LDM      r0!,{r4,r5}
        0x0000008c:    3808        .8      SUBS     r0,r0,#8
        0x0000008e:    1824        $.      ADDS     r4,r4,r0
        0x00000090:    182d        -.      ADDS     r5,r5,r0
        0x00000092:    46a2        .F      MOV      r10,r4
        0x00000094:    1e67        g.      SUBS     r7,r4,#1
        0x00000096:    46ab        .F      MOV      r11,r5
    __scatterload_null
        0x00000098:    4654        TF      MOV      r4,r10
        0x0000009a:    465d        ]F      MOV      r5,r11
        0x0000009c:    42ac        .B      CMP      r4,r5
        0x0000009e:    d101        ..      BNE      0xa4 ; __scatterload_null + 12
        0x000000a0:    f000f84c    ..L.    BL       __rt_entry ; 0x13c
        0x000000a4:    467e        ~F      MOV      r6,pc
        0x000000a6:    3e0f        .>      SUBS     r6,r6,#0xf
        0x000000a8:    cc0f        ..      LDM      r4!,{r0-r3}
        0x000000aa:    46b6        .F      MOV      lr,r6
        0x000000ac:    2601        .&      MOVS     r6,#1
        0x000000ae:    4233        3B      TST      r3,r6
        0x000000b0:    d000        ..      BEQ      0xb4 ; __scatterload_null + 28
        0x000000b2:    1afb        ..      SUBS     r3,r7,r3
        0x000000b4:    46a2        .F      MOV      r10,r4
        0x000000b6:    46ab        .F      MOV      r11,r5
        0x000000b8:    4333        3C      ORRS     r3,r3,r6
        0x000000ba:    4718        .G      BX       r3
    $d
        0x000000bc:    000059dc    .Y..    DCD    23004
        0x000000c0:    000059fc    .Y..    DCD    23036
    $t
    !!handler_copy
    __scatterload_copy
        0x000000c4:    3a10        .:      SUBS     r2,r2,#0x10
        0x000000c6:    d302        ..      BCC      0xce ; __scatterload_copy + 10
        0x000000c8:    c878        x.      LDM      r0!,{r3-r6}
        0x000000ca:    c178        x.      STM      r1!,{r3-r6}
        0x000000cc:    d8fa        ..      BHI      __scatterload_copy ; 0xc4
        0x000000ce:    0752        R.      LSLS     r2,r2,#29
        0x000000d0:    d301        ..      BCC      0xd6 ; __scatterload_copy + 18
        0x000000d2:    c830        0.      LDM      r0!,{r4,r5}
        0x000000d4:    c130        0.      STM      r1!,{r4,r5}
        0x000000d6:    d501        ..      BPL      0xdc ; __scatterload_copy + 24
        0x000000d8:    6804        .h      LDR      r4,[r0,#0]
        0x000000da:    600c        .`      STR      r4,[r1,#0]
        0x000000dc:    4770        pG      BX       lr
        0x000000de:    0000        ..      MOVS     r0,r0
    !!handler_zi
    __scatterload_zeroinit
        0x000000e0:    2300        .#      MOVS     r3,#0
        0x000000e2:    2400        .$      MOVS     r4,#0
        0x000000e4:    2500        .%      MOVS     r5,#0
        0x000000e6:    2600        .&      MOVS     r6,#0
        0x000000e8:    3a10        .:      SUBS     r2,r2,#0x10
        0x000000ea:    d301        ..      BCC      0xf0 ; __scatterload_zeroinit + 16
        0x000000ec:    c178        x.      STM      r1!,{r3-r6}
        0x000000ee:    d8fb        ..      BHI      0xe8 ; __scatterload_zeroinit + 8
        0x000000f0:    0752        R.      LSLS     r2,r2,#29
        0x000000f2:    d300        ..      BCC      0xf6 ; __scatterload_zeroinit + 22
        0x000000f4:    c130        0.      STM      r1!,{r4,r5}
        0x000000f6:    d500        ..      BPL      0xfa ; __scatterload_zeroinit + 26
        0x000000f8:    600b        .`      STR      r3,[r1,#0]
        0x000000fa:    4770        pG      BX       lr
    .ARM.Collect$$_printf_percent$$00000000
    _printf_percent
        0x000000fc:    b510        ..      PUSH     {r4,lr}
    .ARM.Collect$$_printf_percent$$00000007
    _printf_ll
        0x000000fe:    6803        .h      LDR      r3,[r0,#0]
        0x00000100:    0a1b        ..      LSRS     r3,r3,#8
        0x00000102:    d301        ..      BCC      _printf_d ; 0x108
        0x00000104:    2380        .#      MOVS     r3,#0x80
        0x00000106:    4319        .C      ORRS     r1,r1,r3
    .ARM.Collect$$_printf_percent$$00000009
    _printf_d
        0x00000108:    2964        d)      CMP      r1,#0x64
        0x0000010a:    d102        ..      BNE      _printf_u ; 0x112
        0x0000010c:    f005f8b2    ....    BL       _printf_int_dec ; 0x5274
        0x00000110:    bd10        ..      POP      {r4,pc}
    .ARM.Collect$$_printf_percent$$0000000A
    _printf_u
        0x00000112:    2975        u)      CMP      r1,#0x75
        0x00000114:    d102        ..      BNE      _printf_x ; 0x11c
        0x00000116:    f005f8ad    ....    BL       _printf_int_dec ; 0x5274
        0x0000011a:    bd10        ..      POP      {r4,pc}
    .ARM.Collect$$_printf_percent$$0000000C
    _printf_x
        0x0000011c:    2978        x)      CMP      r1,#0x78
        0x0000011e:    d102        ..      BNE      _printf_lld ; 0x126
        0x00000120:    f005f916    ....    BL       _printf_int_hex ; 0x5350
        0x00000124:    bd10        ..      POP      {r4,pc}
    .ARM.Collect$$_printf_percent$$0000000E
    _printf_lld
        0x00000126:    29e4        .)      CMP      r1,#0xe4
        0x00000128:    d102        ..      BNE      _printf_percent_end ; 0x130
        0x0000012a:    f005f8d9    ....    BL       _printf_longlong_dec ; 0x52e0
        0x0000012e:    bd10        ..      POP      {r4,pc}
    .ARM.Collect$$_printf_percent$$00000017
    _printf_percent_end
        0x00000130:    2000        .       MOVS     r0,#0
        0x00000132:    bd10        ..      POP      {r4,pc}
    .ARM.Collect$$libinit$$00000000
    __rt_lib_init
        0x00000134:    b51f        ..      PUSH     {r0-r4,lr}
    .ARM.Collect$$libinit$$00000002
    .ARM.Collect$$libinit$$00000004
    .ARM.Collect$$libinit$$0000000A
    .ARM.Collect$$libinit$$0000000C
    .ARM.Collect$$libinit$$0000000E
    .ARM.Collect$$libinit$$00000011
    .ARM.Collect$$libinit$$00000013
    .ARM.Collect$$libinit$$00000015
    .ARM.Collect$$libinit$$00000017
    .ARM.Collect$$libinit$$00000019
    .ARM.Collect$$libinit$$0000001B
    .ARM.Collect$$libinit$$0000001D
    .ARM.Collect$$libinit$$0000001F
    .ARM.Collect$$libinit$$00000021
    .ARM.Collect$$libinit$$00000023
    .ARM.Collect$$libinit$$00000025
    .ARM.Collect$$libinit$$0000002C
    .ARM.Collect$$libinit$$0000002E
    .ARM.Collect$$libinit$$00000030
    .ARM.Collect$$libinit$$00000032
    .ARM.Collect$$libinit$$00000033
    __rt_lib_init_alloca_1
    __rt_lib_init_argv_1
    __rt_lib_init_atexit_1
    __rt_lib_init_clock_1
    __rt_lib_init_cpp_1
    __rt_lib_init_exceptions_1
    __rt_lib_init_fp_1
    __rt_lib_init_fp_trap_1
    __rt_lib_init_getenv_1
    __rt_lib_init_heap_1
    __rt_lib_init_lc_collate_1
    __rt_lib_init_lc_ctype_1
    __rt_lib_init_lc_monetary_1
    __rt_lib_init_lc_numeric_1
    __rt_lib_init_lc_time_1
    __rt_lib_init_preinit_1
    __rt_lib_init_rand_1
    __rt_lib_init_return
    __rt_lib_init_signal_1
    __rt_lib_init_stdio_1
    __rt_lib_init_user_alloc_1
        0x00000136:    bd1f        ..      POP      {r0-r4,pc}
    .ARM.Collect$$libshutdown$$00000000
    __rt_lib_shutdown
        0x00000138:    b510        ..      PUSH     {r4,lr}
    .ARM.Collect$$libshutdown$$00000002
    .ARM.Collect$$libshutdown$$00000004
    .ARM.Collect$$libshutdown$$00000007
    .ARM.Collect$$libshutdown$$0000000A
    .ARM.Collect$$libshutdown$$0000000C
    .ARM.Collect$$libshutdown$$0000000F
    .ARM.Collect$$libshutdown$$00000010
    __rt_lib_shutdown_cpp_1
    __rt_lib_shutdown_fp_trap_1
    __rt_lib_shutdown_heap_1
    __rt_lib_shutdown_return
    __rt_lib_shutdown_signal_1
    __rt_lib_shutdown_stdio_1
    __rt_lib_shutdown_user_alloc_1
        0x0000013a:    bd10        ..      POP      {r4,pc}
    .ARM.Collect$$rtentry$$00000000
    .ARM.Collect$$rtentry$$00000002
    .ARM.Collect$$rtentry$$00000004
    __rt_entry
    __rt_entry_presh_1
    __rt_entry_sh
        0x0000013c:    f005fbfc    ....    BL       __user_setup_stackheap ; 0x5938
        0x00000140:    4611        .F      MOV      r1,r2
    .ARM.Collect$$rtentry$$00000009
    .ARM.Collect$$rtentry$$0000000A
    __rt_entry_li
    __rt_entry_postsh_1
        0x00000142:    f7fffff7    ....    BL       __rt_lib_init ; 0x134
    .ARM.Collect$$rtentry$$0000000C
    .ARM.Collect$$rtentry$$0000000D
    __rt_entry_main
    __rt_entry_postli_1
        0x00000146:    f000f829    ..).    BL       main ; 0x19c
        0x0000014a:    f005fc14    ....    BL       exit ; 0x5976
    .ARM.Collect$$rtexit$$00000000
    __rt_exit
        0x0000014e:    b403        ..      PUSH     {r0,r1}
    .ARM.Collect$$rtexit$$00000002
    .ARM.Collect$$rtexit$$00000003
    __rt_exit_ls
    __rt_exit_prels_1
        0x00000150:    f7fffff2    ....    BL       __rt_lib_shutdown ; 0x138
    .ARM.Collect$$rtexit$$00000004
    __rt_exit_exit
        0x00000154:    bc03        ..      POP      {r0,r1}
        0x00000156:    f000f954    ..T.    BL       _sys_exit ; 0x402
        0x0000015a:    0000        ..      MOVS     r0,r0
    .emb_text
    __aeabi_memcpy4
    __aeabi_memcpy8
        0x0000015c:    b570        p.      PUSH     {r4-r6,lr}
        0x0000015e:    4605        .F      MOV      r5,r0
        0x00000160:    460c        .F      MOV      r4,r1
        0x00000162:    4616        .F      MOV      r6,r2
        0x00000164:    e002        ..      B        0x16c ; __aeabi_memcpy4 + 16
        0x00000166:    cc0f        ..      LDM      r4!,{r0-r3}
        0x00000168:    c50f        ..      STM      r5!,{r0-r3}
        0x0000016a:    3e10        .>      SUBS     r6,r6,#0x10
        0x0000016c:    2e10        ..      CMP      r6,#0x10
        0x0000016e:    d2fa        ..      BCS      0x166 ; __aeabi_memcpy4 + 10
        0x00000170:    2e08        ..      CMP      r6,#8
        0x00000172:    d302        ..      BCC      0x17a ; __aeabi_memcpy4 + 30
        0x00000174:    cc03        ..      LDM      r4!,{r0,r1}
        0x00000176:    c503        ..      STM      r5!,{r0,r1}
        0x00000178:    3e08        .>      SUBS     r6,r6,#8
        0x0000017a:    2e04        ..      CMP      r6,#4
        0x0000017c:    d307        ..      BCC      0x18e ; __aeabi_memcpy4 + 50
        0x0000017e:    cc01        ..      LDM      r4!,{r0}
        0x00000180:    c501        ..      STM      r5!,{r0}
        0x00000182:    1f36        6.      SUBS     r6,r6,#4
        0x00000184:    e003        ..      B        0x18e ; __aeabi_memcpy4 + 50
        0x00000186:    7821        !x      LDRB     r1,[r4,#0]
        0x00000188:    7029        )p      STRB     r1,[r5,#0]
        0x0000018a:    1c64        d.      ADDS     r4,r4,#1
        0x0000018c:    1c6d        m.      ADDS     r5,r5,#1
        0x0000018e:    1e76        v.      SUBS     r6,r6,#1
        0x00000190:    d2f9        ..      BCS      0x186 ; __aeabi_memcpy4 + 42
        0x00000192:    bd70        p.      POP      {r4-r6,pc}
    .text
    rftimer_callback
        0x00000194:    b510        ..      PUSH     {r4,lr}
        0x00000196:    f004fdd2    ....    BL       sensor_resistive_rftimer_callback ; 0x4d3e
        0x0000019a:    bd10        ..      POP      {r4,pc}
    main
        0x0000019c:    b086        ..      SUB      sp,sp,#0x18
        0x0000019e:    f002ff5d    ..].    BL       initialize_mote ; 0x305c
        0x000001a2:    4820         H      LDR      r0,[pc,#128] ; [0x224] = 0x59b8
        0x000001a4:    7801        .x      LDRB     r1,[r0,#0]
        0x000001a6:    4820         H      LDR      r0,[pc,#128] ; [0x228] = 0x195
        0x000001a8:    f001fc39    ..9.    BL       rftimer_set_callback_by_id ; 0x1a1e
        0x000001ac:    f001fc42    ..B.    BL       rftimer_enable_interrupts ; 0x1a34
        0x000001b0:    491c        .I      LDR      r1,[pc,#112] ; [0x224] = 0x59b8
        0x000001b2:    7808        .x      LDRB     r0,[r1,#0]
        0x000001b4:    f001fc47    ..G.    BL       rftimer_enable_interrupts_by_id ; 0x1a46
        0x000001b8:    a01c        ..      ADR      r0,{pc}+0x74 ; 0x22c
        0x000001ba:    f005f84d    ..M.    BL       __2printf ; 0x5258
        0x000001be:    4821        !H      LDR      r0,[pc,#132] ; [0x244] = 0x59ac
        0x000001c0:    f001f8a0    ....    BL       adc_config ; 0x1304
        0x000001c4:    f001f8d4    ....    BL       adc_enable_interrupt ; 0x1370
        0x000001c8:    f002fe24    ..$.    BL       analog_scan_chain_write ; 0x2e14
        0x000001cc:    f002fe1c    ....    BL       analog_scan_chain_load ; 0x2e08
        0x000001d0:    f001fdad    ....    BL       crc_check ; 0x1d2e
        0x000001d4:    f000f937    ..7.    BL       perform_calibration ; 0x446
        0x000001d8:    2306        .#      MOVS     r3,#6
        0x000001da:    461a        .F      MOV      r2,r3
        0x000001dc:    4619        .F      MOV      r1,r3
        0x000001de:    4618        .F      MOV      r0,r3
        0x000001e0:    f001fdf8    ....    BL       GPO_control ; 0x1dd4
        0x000001e4:    f002fe16    ....    BL       analog_scan_chain_write ; 0x2e14
        0x000001e8:    f002fe0e    ....    BL       analog_scan_chain_load ; 0x2e08
        0x000001ec:    480d        .H      LDR      r0,[pc,#52] ; [0x224] = 0x59b8
        0x000001ee:    f004fd6f    ..o.    BL       sensor_resistive_init ; 0x4cd0
        0x000001f2:    e016        ..      B        0x222 ; main + 134
        0x000001f4:    a014        ..      ADR      r0,{pc}+0x54 ; 0x248
        0x000001f6:    f005f82f    ../.    BL       __2printf ; 0x5258
        0x000001fa:    a802        ..      ADD      r0,sp,#8
        0x000001fc:    f004fd80    ....    BL       sensor_resistive_measure ; 0x4d00
        0x00000200:    9905        ..      LDR      r1,[sp,#0x14]
        0x00000202:    9804        ..      LDR      r0,[sp,#0x10]
        0x00000204:    9101        ..      STR      r1,[sp,#4]
        0x00000206:    9000        ..      STR      r0,[sp,#0]
        0x00000208:    9c02        ..      LDR      r4,[sp,#8]
        0x0000020a:    4622        "F      MOV      r2,r4
        0x0000020c:    a017        ..      ADR      r0,{pc}+0x60 ; 0x26c
        0x0000020e:    9b03        ..      LDR      r3,[sp,#0xc]
        0x00000210:    f005f822    ..".    BL       __2printf ; 0x5258
        0x00000214:    2000        .       MOVS     r0,#0
        0x00000216:    e000        ..      B        0x21a ; main + 126
        0x00000218:    1c40        @.      ADDS     r0,r0,#1
        0x0000021a:    491e        .I      LDR      r1,[pc,#120] ; [0x294] = 0xaae60
        0x0000021c:    4288        .B      CMP      r0,r1
        0x0000021e:    d3fb        ..      BCC      0x218 ; main + 124
        0x00000220:    bf00        ..      NOP      
        0x00000222:    e7e7        ..      B        0x1f4 ; main + 88
    $d
        0x00000224:    000059b8    .Y..    DCD    22968
        0x00000228:    00000195    ....    DCD    405
        0x0000022c:    666e6f43    Conf    DCD    1718513475
        0x00000230:    72756769    igur    DCD    1920296809
        0x00000234:    20676e69    ing     DCD    543649385
        0x00000238:    20656874    the     DCD    543516788
        0x0000023c:    2e434441    ADC.    DCD    776160321
        0x00000240:    0000000a    ....    DCD    10
        0x00000244:    000059ac    .Y..    DCD    22956
        0x00000248:    7361654d    Meas    DCD    1935762765
        0x0000024c:    6e697275    urin    DCD    1852404341
        0x00000250:    68742067    g th    DCD    1752440935
        0x00000254:    65722065    e re    DCD    1701978213
        0x00000258:    74736973    sist    DCD    1953720691
        0x0000025c:    20657669    ive     DCD    543520361
        0x00000260:    736e6573    sens    DCD    1936614771
        0x00000264:    0a2e726f    or..    DCD    170816111
        0x00000268:    00000000    ....    DCD    0
        0x0000026c:    69747345    Esti    DCD    1769239365
        0x00000270:    6574616d    mate    DCD    1702125933
        0x00000274:    69742064    d ti    DCD    1769218148
        0x00000278:    6320656d    me c    DCD    1663067501
        0x0000027c:    74736e6f    onst    DCD    1953721967
        0x00000280:    3a746e61    ant:    DCD    980708961
        0x00000284:    6c6c2520     %ll    DCD    1819026720
        0x00000288:    202f2064    d /     DCD    539959396
        0x0000028c:    646c6c25    %lld    DCD    1684827173
        0x00000290:    0000000a    ....    DCD    10
        0x00000294:    000aae60    `...    DCD    700000
    $t
    .text
    Reset_Handler
        0x00000298:    4941        AI      LDR      r1,[pc,#260] ; [0x3a0] = 0xe000e100
        0x0000029a:    4842        BH      LDR      r0,[pc,#264] ; [0x3a4] = 0
        0x0000029c:    6008        .`      STR      r0,[r1,#0]
        0x0000029e:    4842        BH      LDR      r0,[pc,#264] ; [0x3a8] = 0x81
        0x000002a0:    4700        .G      BX       r0
    UART_Handler
        0x000002a2:    b501        ..      PUSH     {r0,lr}
        0x000002a4:    2001        .       MOVS     r0,#1
        0x000002a6:    f3808810    ....    MSR      PRIMASK,r0
        0x000002aa:    f001fb2e    ....    BL       uart_rx_isr ; 0x190a
        0x000002ae:    2000        .       MOVS     r0,#0
        0x000002b0:    f3808810    ....    MSR      PRIMASK,r0
        0x000002b4:    bd01        ..      POP      {r0,pc}
    ADC_Handler
        0x000002b6:    b501        ..      PUSH     {r0,lr}
        0x000002b8:    2001        .       MOVS     r0,#1
        0x000002ba:    f3808810    ....    MSR      PRIMASK,r0
        0x000002be:    f001f819    ....    BL       adc_isr ; 0x12f4
        0x000002c2:    2000        .       MOVS     r0,#0
        0x000002c4:    f3808810    ....    MSR      PRIMASK,r0
        0x000002c8:    bd01        ..      POP      {r0,pc}
    RF_Handler
        0x000002ca:    b501        ..      PUSH     {r0,lr}
        0x000002cc:    2001        .       MOVS     r0,#1
        0x000002ce:    f3808810    ....    MSR      PRIMASK,r0
        0x000002d2:    f000fef5    ....    BL       radio_isr ; 0x10c0
        0x000002d6:    2000        .       MOVS     r0,#0
        0x000002d8:    f3808810    ....    MSR      PRIMASK,r0
        0x000002dc:    bd01        ..      POP      {r0,pc}
    RFTIMER_Handler
        0x000002de:    b501        ..      PUSH     {r0,lr}
        0x000002e0:    2001        .       MOVS     r0,#1
        0x000002e2:    f3808810    ....    MSR      PRIMASK,r0
        0x000002e6:    f001fc33    ..3.    BL       rftimer_isr ; 0x1b50
        0x000002ea:    2000        .       MOVS     r0,#0
        0x000002ec:    f3808810    ....    MSR      PRIMASK,r0
        0x000002f0:    bd01        ..      POP      {r0,pc}
    EXT_GPIO3_ACTIVEHIGH_DEBOUNCED_Handler
        0x000002f2:    b501        ..      PUSH     {r0,lr}
        0x000002f4:    2001        .       MOVS     r0,#1
        0x000002f6:    f3808810    ....    MSR      PRIMASK,r0
        0x000002fa:    f001fa9a    ....    BL       ext_gpio3_activehigh_debounced_isr ; 0x1832
        0x000002fe:    2000        .       MOVS     r0,#0
        0x00000300:    f3808810    ....    MSR      PRIMASK,r0
        0x00000304:    bd01        ..      POP      {r0,pc}
    EXT_GPIO8_ACTIVEHIGH_Handler
        0x00000306:    b501        ..      PUSH     {r0,lr}
        0x00000308:    2001        .       MOVS     r0,#1
        0x0000030a:    f3808810    ....    MSR      PRIMASK,r0
        0x0000030e:    f001fa95    ....    BL       ext_gpio8_activehigh_isr ; 0x183c
        0x00000312:    2000        .       MOVS     r0,#0
        0x00000314:    f3808810    ....    MSR      PRIMASK,r0
        0x00000318:    bd01        ..      POP      {r0,pc}
    EXT_GPIO9_ACTIVELOW_Handler
        0x0000031a:    b501        ..      PUSH     {r0,lr}
        0x0000031c:    2001        .       MOVS     r0,#1
        0x0000031e:    f3808810    ....    MSR      PRIMASK,r0
        0x00000322:    f001fa8f    ....    BL       ext_gpio9_activelow_isr ; 0x1844
        0x00000326:    2000        .       MOVS     r0,#0
        0x00000328:    f3808810    ....    MSR      PRIMASK,r0
        0x0000032c:    bd01        ..      POP      {r0,pc}
    EXT_GPIO10_ACTIVELOW
        0x0000032e:    b501        ..      PUSH     {r0,lr}
        0x00000330:    2001        .       MOVS     r0,#1
        0x00000332:    f3808810    ....    MSR      PRIMASK,r0
        0x00000336:    f001fa8a    ....    BL       ext_gpio10_activelow_isr ; 0x184e
        0x0000033a:    2000        .       MOVS     r0,#0
        0x0000033c:    f3808810    ....    MSR      PRIMASK,r0
        0x00000340:    bd01        ..      POP      {r0,pc}
    RAWCHIPS_STARTVAL_Handler
        0x00000342:    b501        ..      PUSH     {r0,lr}
        0x00000344:    2001        .       MOVS     r0,#1
        0x00000346:    f3808810    ....    MSR      PRIMASK,r0
        0x0000034a:    f000ff81    ....    BL       rawchips_startval_isr ; 0x1250
        0x0000034e:    2000        .       MOVS     r0,#0
        0x00000350:    f3808810    ....    MSR      PRIMASK,r0
        0x00000354:    bd01        ..      POP      {r0,pc}
    RAWCHIPS_32_Handler
        0x00000356:    b501        ..      PUSH     {r0,lr}
        0x00000358:    2001        .       MOVS     r0,#1
        0x0000035a:    f3808810    ....    MSR      PRIMASK,r0
        0x0000035e:    f000ff2e    ....    BL       rawchips_32_isr ; 0x11be
        0x00000362:    2000        .       MOVS     r0,#0
        0x00000364:    f3808810    ....    MSR      PRIMASK,r0
        0x00000368:    bd01        ..      POP      {r0,pc}
    EXT_OPTICAL_IRQ_IN_Handler
        0x0000036a:    b501        ..      PUSH     {r0,lr}
        0x0000036c:    2001        .       MOVS     r0,#1
        0x0000036e:    f3808810    ....    MSR      PRIMASK,r0
        0x00000372:    f000f878    ..x.    BL       optical_32_isr ; 0x466
        0x00000376:    2000        .       MOVS     r0,#0
        0x00000378:    f3808810    ....    MSR      PRIMASK,r0
        0x0000037c:    bd01        ..      POP      {r0,pc}
    OPTICAL_SFD_Handler
        0x0000037e:    b501        ..      PUSH     {r0,lr}
        0x00000380:    2001        .       MOVS     r0,#1
        0x00000382:    f3808810    ....    MSR      PRIMASK,r0
        0x00000386:    f000f86f    ..o.    BL       optical_sfd_isr ; 0x468
        0x0000038a:    2000        .       MOVS     r0,#0
        0x0000038c:    f3808810    ....    MSR      PRIMASK,r0
        0x00000390:    bd01        ..      POP      {r0,pc}
    $d
        0x00000392:    0000        ..      DCW    0
    $t
    __user_initial_stackheap
        0x00000394:    4805        .H      LDR      r0,[pc,#20] ; [0x3ac] = 0x20003030
        0x00000396:    4906        .I      LDR      r1,[pc,#24] ; [0x3b0] = 0x20003c30
        0x00000398:    4a06        .J      LDR      r2,[pc,#24] ; [0x3b4] = 0x20003430
        0x0000039a:    4b07        .K      LDR      r3,[pc,#28] ; [0x3b8] = 0x20003430
        0x0000039c:    4770        pG      BX       lr
    $d
        0x0000039e:    0000        ..      DCW    0
        0x000003a0:    e000e100    ....    DCD    3758153984
        0x000003a4:    00000000    ....    DCD    0
        0x000003a8:    00000081    ....    DCD    129
        0x000003ac:    20003030    00.     DCD    536883248
        0x000003b0:    20003c30    0<.     DCD    536886320
        0x000003b4:    20003430    04.     DCD    536884272
        0x000003b8:    20003430    04.     DCD    536884272
    $t
    .text
    ferror
        0x000003bc:    4601        .F      MOV      r1,r0
        0x000003be:    2000        .       MOVS     r0,#0
        0x000003c0:    4770        pG      BX       lr
    uart_out
        0x000003c2:    2151        Q!      MOVS     r1,#0x51
        0x000003c4:    0609        ..      LSLS     r1,r1,#24
        0x000003c6:    7008        .p      STRB     r0,[r1,#0]
        0x000003c8:    4770        pG      BX       lr
    uart_in
        0x000003ca:    b510        ..      PUSH     {r4,lr}
        0x000003cc:    2451        Q$      MOVS     r4,#0x51
        0x000003ce:    0624        $.      LSLS     r4,r4,#24
        0x000003d0:    7823        #x      LDRB     r3,[r4,#0]
        0x000003d2:    4618        .F      MOV      r0,r3
        0x000003d4:    f7fffff5    ....    BL       uart_out ; 0x3c2
        0x000003d8:    4618        .F      MOV      r0,r3
        0x000003da:    bd10        ..      POP      {r4,pc}
    fputc
        0x000003dc:    b510        ..      PUSH     {r4,lr}
        0x000003de:    4603        .F      MOV      r3,r0
        0x000003e0:    460c        .F      MOV      r4,r1
        0x000003e2:    4618        .F      MOV      r0,r3
        0x000003e4:    f7ffffed    ....    BL       uart_out ; 0x3c2
        0x000003e8:    bd10        ..      POP      {r4,pc}
    fgetc
        0x000003ea:    b510        ..      PUSH     {r4,lr}
        0x000003ec:    4604        .F      MOV      r4,r0
        0x000003ee:    f7ffffec    ....    BL       uart_in ; 0x3ca
        0x000003f2:    bd10        ..      POP      {r4,pc}
    _ttywrch
        0x000003f4:    b510        ..      PUSH     {r4,lr}
        0x000003f6:    4604        .F      MOV      r4,r0
        0x000003f8:    4904        .I      LDR      r1,[pc,#16] ; [0x40c] = 0x20000000
        0x000003fa:    4620         F      MOV      r0,r4
        0x000003fc:    f7ffffee    ....    BL       fputc ; 0x3dc
        0x00000400:    bd10        ..      POP      {r4,pc}
    _sys_exit
        0x00000402:    a003        ..      ADR      r0,{pc}+0xe ; 0x410
        0x00000404:    f004ff28    ..(.    BL       __2printf ; 0x5258
        0x00000408:    bf00        ..      NOP      
        0x0000040a:    e7fe        ..      B        0x40a ; _sys_exit + 8
    $d
        0x0000040c:    20000000    ...     DCD    536870912
        0x00000410:    45540a0d    ..TE    DCD    1163135501
        0x00000414:    44205453    ST D    DCD    1142969427
        0x00000418:    0d454e4f    ONE.    DCD    222645839
        0x0000041c:    0000000a    ....    DCD    10
    $t
    .text
    optical_init
        0x00000420:    b510        ..      PUSH     {r4,lr}
        0x00000422:    2120         !      MOVS     r1,#0x20
        0x00000424:    48a1        .H      LDR      r0,[pc,#644] ; [0x6ac] = 0x200000f4
        0x00000426:    f005f87d    ..}.    BL       __aeabi_memclr4 ; 0x5524
        0x0000042a:    48a1        .H      LDR      r0,[pc,#644] ; [0x6b0] = 0x3d194
        0x0000042c:    499f        .I      LDR      r1,[pc,#636] ; [0x6ac] = 0x200000f4
        0x0000042e:    6188        .a      STR      r0,[r1,#0x18]
        0x00000430:    48a0        .H      LDR      r0,[pc,#640] ; [0x6b4] = 0x2ba
        0x00000432:    61c8        .a      STR      r0,[r1,#0x1c]
        0x00000434:    bd10        ..      POP      {r4,pc}
    optical_getCalibrationFinshed
        0x00000436:    489d        .H      LDR      r0,[pc,#628] ; [0x6ac] = 0x200000f4
        0x00000438:    7840        @x      LDRB     r0,[r0,#1]
        0x0000043a:    4770        pG      BX       lr
    optical_enable
        0x0000043c:    2003        .       MOVS     r0,#3
        0x0000043e:    02c0        ..      LSLS     r0,r0,#11
        0x00000440:    499d        .I      LDR      r1,[pc,#628] ; [0x6b8] = 0xe000e100
        0x00000442:    6008        .`      STR      r0,[r1,#0]
        0x00000444:    4770        pG      BX       lr
    perform_calibration
        0x00000446:    b510        ..      PUSH     {r4,lr}
        0x00000448:    f000f9ed    ....    BL       radio_rxEnable ; 0x826
        0x0000044c:    f7fffff6    ....    BL       optical_enable ; 0x43c
        0x00000450:    bf00        ..      NOP      
        0x00000452:    f7fffff0    ....    BL       optical_getCalibrationFinshed ; 0x436
        0x00000456:    2800        .(      CMP      r0,#0
        0x00000458:    d0fb        ..      BEQ      0x452 ; perform_calibration + 12
        0x0000045a:    f000f995    ....    BL       radio_rfOff ; 0x788
        0x0000045e:    a097        ..      ADR      r0,{pc}+0x25e ; 0x6bc
        0x00000460:    f004fefa    ....    BL       __2printf ; 0x5258
        0x00000464:    bd10        ..      POP      {r4,pc}
    optical_32_isr
        0x00000466:    4770        pG      BX       lr
    optical_sfd_isr
        0x00000468:    b5f0        ..      PUSH     {r4-r7,lr}
        0x0000046a:    b08d        ..      SUB      sp,sp,#0x34
        0x0000046c:    2000        .       MOVS     r0,#0
        0x0000046e:    900c        ..      STR      r0,[sp,#0x30]
        0x00000470:    f001fbcc    ....    BL       scm3c_hw_interface_get_HF_CLOCK_fine ; 0x1c0c
        0x00000474:    4605        .F      MOV      r5,r0
        0x00000476:    f001fbcd    ....    BL       scm3c_hw_interface_get_HF_CLOCK_coarse ; 0x1c14
        0x0000047a:    9007        ..      STR      r0,[sp,#0x1c]
        0x0000047c:    f001fbce    ....    BL       scm3c_hw_interface_get_RC2M_coarse ; 0x1c1c
        0x00000480:    9006        ..      STR      r0,[sp,#0x18]
        0x00000482:    f001fbcf    ....    BL       scm3c_hw_interface_get_RC2M_fine ; 0x1c24
        0x00000486:    9005        ..      STR      r0,[sp,#0x14]
        0x00000488:    f001fbd0    ....    BL       scm3c_hw_interface_get_RC2M_superfine ; 0x1c2c
        0x0000048c:    9004        ..      STR      r0,[sp,#0x10]
        0x0000048e:    f001fbd1    ....    BL       scm3c_hw_interface_get_IF_clk_target ; 0x1c34
        0x00000492:    9003        ..      STR      r0,[sp,#0xc]
        0x00000494:    f001fbd2    ....    BL       scm3c_hw_interface_get_IF_coarse ; 0x1c3c
        0x00000498:    9002        ..      STR      r0,[sp,#8]
        0x0000049a:    f001fbd3    ....    BL       scm3c_hw_interface_get_IF_fine ; 0x1c44
        0x0000049e:    9001        ..      STR      r0,[sp,#4]
        0x000004a0:    207f        .       MOVS     r0,#0x7f
        0x000004a2:    2129        )!      MOVS     r1,#0x29
        0x000004a4:    0649        I.      LSLS     r1,r1,#25
        0x000004a6:    6008        .`      STR      r0,[r1,#0]
        0x000004a8:    4880        .H      LDR      r0,[pc,#512] ; [0x6ac] = 0x200000f4
        0x000004aa:    7800        .x      LDRB     r0,[r0,#0]
        0x000004ac:    1c40        @.      ADDS     r0,r0,#1
        0x000004ae:    497f        .I      LDR      r1,[pc,#508] ; [0x6ac] = 0x200000f4
        0x000004b0:    7008        .p      STRB     r0,[r1,#0]
        0x000004b2:    2029        )       MOVS     r0,#0x29
        0x000004b4:    0640        @.      LSLS     r0,r0,#25
        0x000004b6:    6806        .h      LDR      r6,[r0,#0]
        0x000004b8:    4886        .H      LDR      r0,[pc,#536] ; [0x6d4] = 0x52040000
        0x000004ba:    6807        .h      LDR      r7,[r0,#0]
        0x000004bc:    0438        8.      LSLS     r0,r7,#16
        0x000004be:    1980        ..      ADDS     r0,r0,r6
        0x000004c0:    900a        ..      STR      r0,[sp,#0x28]
        0x000004c2:    4885        .H      LDR      r0,[pc,#532] ; [0x6d8] = 0x52100000
        0x000004c4:    6806        .h      LDR      r6,[r0,#0]
        0x000004c6:    4885        .H      LDR      r0,[pc,#532] ; [0x6dc] = 0x52140000
        0x000004c8:    6807        .h      LDR      r7,[r0,#0]
        0x000004ca:    0438        8.      LSLS     r0,r7,#16
        0x000004cc:    1980        ..      ADDS     r0,r0,r6
        0x000004ce:    9009        ..      STR      r0,[sp,#0x24]
        0x000004d0:    4883        .H      LDR      r0,[pc,#524] ; [0x6e0] = 0x52180000
        0x000004d2:    6806        .h      LDR      r6,[r0,#0]
        0x000004d4:    4883        .H      LDR      r0,[pc,#524] ; [0x6e4] = 0x521c0000
        0x000004d6:    6807        .h      LDR      r7,[r0,#0]
        0x000004d8:    0438        8.      LSLS     r0,r7,#16
        0x000004da:    1984        ..      ADDS     r4,r0,r6
        0x000004dc:    4882        .H      LDR      r0,[pc,#520] ; [0x6e8] = 0x52280000
        0x000004de:    6806        .h      LDR      r6,[r0,#0]
        0x000004e0:    4882        .H      LDR      r0,[pc,#520] ; [0x6ec] = 0x522c0000
        0x000004e2:    6807        .h      LDR      r7,[r0,#0]
        0x000004e4:    0438        8.      LSLS     r0,r7,#16
        0x000004e6:    1980        ..      ADDS     r0,r0,r6
        0x000004e8:    900b        ..      STR      r0,[sp,#0x2c]
        0x000004ea:    4881        .H      LDR      r0,[pc,#516] ; [0x6f0] = 0x52300000
        0x000004ec:    6806        .h      LDR      r6,[r0,#0]
        0x000004ee:    4881        .H      LDR      r0,[pc,#516] ; [0x6f4] = 0x52340000
        0x000004f0:    6807        .h      LDR      r7,[r0,#0]
        0x000004f2:    0438        8.      LSLS     r0,r7,#16
        0x000004f4:    1980        ..      ADDS     r0,r0,r6
        0x000004f6:    9008        ..      STR      r0,[sp,#0x20]
        0x000004f8:    2000        .       MOVS     r0,#0
        0x000004fa:    2129        )!      MOVS     r1,#0x29
        0x000004fc:    0649        I.      LSLS     r1,r1,#25
        0x000004fe:    6008        .`      STR      r0,[r1,#0]
        0x00000500:    487d        }H      LDR      r0,[pc,#500] ; [0x6f8] = 0x3fff
        0x00000502:    6008        .`      STR      r0,[r1,#0]
        0x00000504:    4869        iH      LDR      r0,[pc,#420] ; [0x6ac] = 0x200000f4
        0x00000506:    7800        .x      LDRB     r0,[r0,#0]
        0x00000508:    2802        .(      CMP      r0,#2
        0x0000050a:    dd7d        }.      BLE      0x608 ; optical_sfd_isr + 416
        0x0000050c:    497b        {I      LDR      r1,[pc,#492] ; [0x6fc] = 0x1e78c8
        0x0000050e:    9809        ..      LDR      r0,[sp,#0x24]
        0x00000510:    4288        .B      CMP      r0,r1
        0x00000512:    d20a        ..      BCS      0x52a ; optical_sfd_isr + 194
        0x00000514:    2d00        .-      CMP      r5,#0
        0x00000516:    d107        ..      BNE      0x528 ; optical_sfd_isr + 192
        0x00000518:    9807        ..      LDR      r0,[sp,#0x1c]
        0x0000051a:    1e40        @.      SUBS     r0,r0,#1
        0x0000051c:    9007        ..      STR      r0,[sp,#0x1c]
        0x0000051e:    250a        .%      MOVS     r5,#0xa
        0x00000520:    2003        .       MOVS     r0,#3
        0x00000522:    4962        bI      LDR      r1,[pc,#392] ; [0x6ac] = 0x200000f4
        0x00000524:    7008        .p      STRB     r0,[r1,#0]
        0x00000526:    e000        ..      B        0x52a ; optical_sfd_isr + 194
        0x00000528:    1e6d        m.      SUBS     r5,r5,#1
        0x0000052a:    4975        uI      LDR      r1,[pc,#468] ; [0x700] = 0x1e9038
        0x0000052c:    9809        ..      LDR      r0,[sp,#0x24]
        0x0000052e:    4288        .B      CMP      r0,r1
        0x00000530:    d90a        ..      BLS      0x548 ; optical_sfd_isr + 224
        0x00000532:    2d1f        .-      CMP      r5,#0x1f
        0x00000534:    d107        ..      BNE      0x546 ; optical_sfd_isr + 222
        0x00000536:    9807        ..      LDR      r0,[sp,#0x1c]
        0x00000538:    1c40        @.      ADDS     r0,r0,#1
        0x0000053a:    9007        ..      STR      r0,[sp,#0x1c]
        0x0000053c:    2514        .%      MOVS     r5,#0x14
        0x0000053e:    2003        .       MOVS     r0,#3
        0x00000540:    495a        ZI      LDR      r1,[pc,#360] ; [0x6ac] = 0x200000f4
        0x00000542:    7008        .p      STRB     r0,[r1,#0]
        0x00000544:    e000        ..      B        0x548 ; optical_sfd_isr + 224
        0x00000546:    1c6d        m.      ADDS     r5,r5,#1
        0x00000548:    4629        )F      MOV      r1,r5
        0x0000054a:    9807        ..      LDR      r0,[sp,#0x1c]
        0x0000054c:    f002fc09    ....    BL       set_sys_clk_secondary_freq ; 0x2d62
        0x00000550:    9807        ..      LDR      r0,[sp,#0x1c]
        0x00000552:    f001fb7f    ....    BL       scm3c_hw_interface_set_HF_CLOCK_coarse ; 0x1c54
        0x00000556:    4628        (F      MOV      r0,r5
        0x00000558:    f001fb78    ..x.    BL       scm3c_hw_interface_set_HF_CLOCK_fine ; 0x1c4c
        0x0000055c:    4853        SH      LDR      r0,[pc,#332] ; [0x6ac] = 0x200000f4
        0x0000055e:    6980        .i      LDR      r0,[r0,#0x18]
        0x00000560:    990b        ..      LDR      r1,[sp,#0x2c]
        0x00000562:    4288        .B      CMP      r0,r1
        0x00000564:    d204        ..      BCS      0x570 ; optical_sfd_isr + 264
        0x00000566:    4851        QH      LDR      r0,[pc,#324] ; [0x6ac] = 0x200000f4
        0x00000568:    69c0        .i      LDR      r0,[r0,#0x1c]
        0x0000056a:    1e40        @.      SUBS     r0,r0,#1
        0x0000056c:    494f        OI      LDR      r1,[pc,#316] ; [0x6ac] = 0x200000f4
        0x0000056e:    61c8        .a      STR      r0,[r1,#0x1c]
        0x00000570:    484e        NH      LDR      r0,[pc,#312] ; [0x6ac] = 0x200000f4
        0x00000572:    6980        .i      LDR      r0,[r0,#0x18]
        0x00000574:    4601        .F      MOV      r1,r0
        0x00000576:    980b        ..      LDR      r0,[sp,#0x2c]
        0x00000578:    4281        .B      CMP      r1,r0
        0x0000057a:    d904        ..      BLS      0x586 ; optical_sfd_isr + 286
        0x0000057c:    484b        KH      LDR      r0,[pc,#300] ; [0x6ac] = 0x200000f4
        0x0000057e:    69c0        .i      LDR      r0,[r0,#0x1c]
        0x00000580:    1c40        @.      ADDS     r0,r0,#1
        0x00000582:    494a        JI      LDR      r1,[pc,#296] ; [0x6ac] = 0x200000f4
        0x00000584:    61c8        .a      STR      r0,[r1,#0x1c]
        0x00000586:    4949        II      LDR      r1,[pc,#292] ; [0x6ac] = 0x200000f4
        0x00000588:    69c8        .i      LDR      r0,[r1,#0x1c]
        0x0000058a:    f002fcab    ....    BL       LC_monotonic ; 0x2ee4
        0x0000058e:    485d        ]H      LDR      r0,[pc,#372] ; [0x704] = 0x30f98
        0x00000590:    4284        .B      CMP      r4,r0
        0x00000592:    d903        ..      BLS      0x59c ; optical_sfd_isr + 308
        0x00000594:    9806        ..      LDR      r0,[sp,#0x18]
        0x00000596:    1c40        @.      ADDS     r0,r0,#1
        0x00000598:    9006        ..      STR      r0,[sp,#0x18]
        0x0000059a:    e00d        ..      B        0x5b8 ; optical_sfd_isr + 336
        0x0000059c:    485a        ZH      LDR      r0,[pc,#360] ; [0x708] = 0x30d90
        0x0000059e:    4284        .B      CMP      r4,r0
        0x000005a0:    d903        ..      BLS      0x5aa ; optical_sfd_isr + 322
        0x000005a2:    9805        ..      LDR      r0,[sp,#0x14]
        0x000005a4:    1c40        @.      ADDS     r0,r0,#1
        0x000005a6:    9005        ..      STR      r0,[sp,#0x14]
        0x000005a8:    e006        ..      B        0x5b8 ; optical_sfd_isr + 336
        0x000005aa:    4857        WH      LDR      r0,[pc,#348] ; [0x708] = 0x30d90
        0x000005ac:    3841        A8      SUBS     r0,r0,#0x41
        0x000005ae:    4284        .B      CMP      r4,r0
        0x000005b0:    d902        ..      BLS      0x5b8 ; optical_sfd_isr + 336
        0x000005b2:    9804        ..      LDR      r0,[sp,#0x10]
        0x000005b4:    1c40        @.      ADDS     r0,r0,#1
        0x000005b6:    9004        ..      STR      r0,[sp,#0x10]
        0x000005b8:    4854        TH      LDR      r0,[pc,#336] ; [0x70c] = 0x30ae8
        0x000005ba:    4284        .B      CMP      r4,r0
        0x000005bc:    d203        ..      BCS      0x5c6 ; optical_sfd_isr + 350
        0x000005be:    9806        ..      LDR      r0,[sp,#0x18]
        0x000005c0:    1e40        @.      SUBS     r0,r0,#1
        0x000005c2:    9006        ..      STR      r0,[sp,#0x18]
        0x000005c4:    e00e        ..      B        0x5e4 ; optical_sfd_isr + 380
        0x000005c6:    4850        PH      LDR      r0,[pc,#320] ; [0x708] = 0x30d90
        0x000005c8:    38a0        .8      SUBS     r0,r0,#0xa0
        0x000005ca:    4284        .B      CMP      r4,r0
        0x000005cc:    d203        ..      BCS      0x5d6 ; optical_sfd_isr + 366
        0x000005ce:    9805        ..      LDR      r0,[sp,#0x14]
        0x000005d0:    1e40        @.      SUBS     r0,r0,#1
        0x000005d2:    9005        ..      STR      r0,[sp,#0x14]
        0x000005d4:    e006        ..      B        0x5e4 ; optical_sfd_isr + 380
        0x000005d6:    484c        LH      LDR      r0,[pc,#304] ; [0x708] = 0x30d90
        0x000005d8:    385f        _8      SUBS     r0,r0,#0x5f
        0x000005da:    4284        .B      CMP      r4,r0
        0x000005dc:    d202        ..      BCS      0x5e4 ; optical_sfd_isr + 380
        0x000005de:    9804        ..      LDR      r0,[sp,#0x10]
        0x000005e0:    1e40        @.      SUBS     r0,r0,#1
        0x000005e2:    9004        ..      STR      r0,[sp,#0x10]
        0x000005e4:    9804        ..      LDR      r0,[sp,#0x10]
        0x000005e6:    9000        ..      STR      r0,[sp,#0]
        0x000005e8:    211f        .!      MOVS     r1,#0x1f
        0x000005ea:    4608        .F      MOV      r0,r1
        0x000005ec:    9b05        ..      LDR      r3,[sp,#0x14]
        0x000005ee:    9a06        ..      LDR      r2,[sp,#0x18]
        0x000005f0:    f002fcec    ....    BL       set_2M_RC_frequency ; 0x2fcc
        0x000005f4:    9806        ..      LDR      r0,[sp,#0x18]
        0x000005f6:    f001fb31    ..1.    BL       scm3c_hw_interface_set_RC2M_coarse ; 0x1c5c
        0x000005fa:    9805        ..      LDR      r0,[sp,#0x14]
        0x000005fc:    f001fb32    ..2.    BL       scm3c_hw_interface_set_RC2M_fine ; 0x1c64
        0x00000600:    9804        ..      LDR      r0,[sp,#0x10]
        0x00000602:    f001fb33    ..3.    BL       scm3c_hw_interface_set_RC2M_superfine ; 0x1c6c
        0x00000606:    e000        ..      B        0x60a ; optical_sfd_isr + 418
        0x00000608:    e01c        ..      B        0x644 ; optical_sfd_isr + 476
        0x0000060a:    4941        AI      LDR      r1,[pc,#260] ; [0x710] = 0x186f78
        0x0000060c:    9808        ..      LDR      r0,[sp,#0x20]
        0x0000060e:    4288        .B      CMP      r0,r1
        0x00000610:    d902        ..      BLS      0x618 ; optical_sfd_isr + 432
        0x00000612:    9801        ..      LDR      r0,[sp,#4]
        0x00000614:    1c40        @.      ADDS     r0,r0,#1
        0x00000616:    9001        ..      STR      r0,[sp,#4]
        0x00000618:    493e        >I      LDR      r1,[pc,#248] ; [0x714] = 0x186488
        0x0000061a:    9808        ..      LDR      r0,[sp,#0x20]
        0x0000061c:    4288        .B      CMP      r0,r1
        0x0000061e:    d202        ..      BCS      0x626 ; optical_sfd_isr + 446
        0x00000620:    9801        ..      LDR      r0,[sp,#4]
        0x00000622:    1e40        @.      SUBS     r0,r0,#1
        0x00000624:    9001        ..      STR      r0,[sp,#4]
        0x00000626:    2200        ."      MOVS     r2,#0
        0x00000628:    9901        ..      LDR      r1,[sp,#4]
        0x0000062a:    9802        ..      LDR      r0,[sp,#8]
        0x0000062c:    f002fb5f    .._.    BL       set_IF_clock_frequency ; 0x2cee
        0x00000630:    9802        ..      LDR      r0,[sp,#8]
        0x00000632:    f001fb23    ..#.    BL       scm3c_hw_interface_set_IF_coarse ; 0x1c7c
        0x00000636:    9801        ..      LDR      r0,[sp,#4]
        0x00000638:    f001fb24    ..$.    BL       scm3c_hw_interface_set_IF_fine ; 0x1c84
        0x0000063c:    f002fbea    ....    BL       analog_scan_chain_write ; 0x2e14
        0x00000640:    f002fbe2    ....    BL       analog_scan_chain_load ; 0x2e08
        0x00000644:    9806        ..      LDR      r0,[sp,#0x18]
        0x00000646:    4623        #F      MOV      r3,r4
        0x00000648:    462a        *F      MOV      r2,r5
        0x0000064a:    9000        ..      STR      r0,[sp,#0]
        0x0000064c:    a032        2.      ADR      r0,{pc}+0xcc ; 0x718
        0x0000064e:    9909        ..      LDR      r1,[sp,#0x24]
        0x00000650:    f004fe02    ....    BL       __2printf ; 0x5258
        0x00000654:    4815        .H      LDR      r0,[pc,#84] ; [0x6ac] = 0x200000f4
        0x00000656:    69c0        .i      LDR      r0,[r0,#0x1c]
        0x00000658:    9000        ..      STR      r0,[sp,#0]
        0x0000065a:    a034        4.      ADR      r0,{pc}+0xd2 ; 0x72c
        0x0000065c:    9b0b        ..      LDR      r3,[sp,#0x2c]
        0x0000065e:    9a04        ..      LDR      r2,[sp,#0x10]
        0x00000660:    9905        ..      LDR      r1,[sp,#0x14]
        0x00000662:    f004fdf9    ....    BL       __2printf ; 0x5258
        0x00000666:    a037        7.      ADR      r0,{pc}+0xde ; 0x744
        0x00000668:    9a01        ..      LDR      r2,[sp,#4]
        0x0000066a:    9908        ..      LDR      r1,[sp,#0x20]
        0x0000066c:    f004fdf4    ....    BL       __2printf ; 0x5258
        0x00000670:    480e        .H      LDR      r0,[pc,#56] ; [0x6ac] = 0x200000f4
        0x00000672:    7800        .x      LDRB     r0,[r0,#0]
        0x00000674:    2819        .(      CMP      r0,#0x19
        0x00000676:    d117        ..      BNE      0x6a8 ; optical_sfd_isr + 576
        0x00000678:    2003        .       MOVS     r0,#3
        0x0000067a:    02c0        ..      LSLS     r0,r0,#11
        0x0000067c:    490e        .I      LDR      r1,[pc,#56] ; [0x6b8] = 0xe000e100
        0x0000067e:    3180        .1      ADDS     r1,r1,#0x80
        0x00000680:    6008        .`      STR      r0,[r1,#0]
        0x00000682:    2000        .       MOVS     r0,#0
        0x00000684:    4909        .I      LDR      r1,[pc,#36] ; [0x6ac] = 0x200000f4
        0x00000686:    7008        .p      STRB     r0,[r1,#0]
        0x00000688:    2001        .       MOVS     r0,#1
        0x0000068a:    7048        Hp      STRB     r0,[r1,#1]
        0x0000068c:    980a        ..      LDR      r0,[sp,#0x28]
        0x0000068e:    6048        H`      STR      r0,[r1,#4]
        0x00000690:    4608        .F      MOV      r0,r1
        0x00000692:    6084        .`      STR      r4,[r0,#8]
        0x00000694:    9808        ..      LDR      r0,[sp,#0x20]
        0x00000696:    60c8        .`      STR      r0,[r1,#0xc]
        0x00000698:    980b        ..      LDR      r0,[sp,#0x2c]
        0x0000069a:    6108        .a      STR      r0,[r1,#0x10]
        0x0000069c:    9809        ..      LDR      r0,[sp,#0x24]
        0x0000069e:    6148        Ha      STR      r0,[r1,#0x14]
        0x000006a0:    2000        .       MOVS     r0,#0
        0x000006a2:    2129        )!      MOVS     r1,#0x29
        0x000006a4:    0649        I.      LSLS     r1,r1,#25
        0x000006a6:    6008        .`      STR      r0,[r1,#0]
        0x000006a8:    b00d        ..      ADD      sp,sp,#0x34
        0x000006aa:    bdf0        ..      POP      {r4-r7,pc}
    $d
        0x000006ac:    200000f4    ...     DCD    536871156
        0x000006b0:    0003d194    ....    DCD    250260
        0x000006b4:    000002ba    ....    DCD    698
        0x000006b8:    e000e100    ....    DCD    3758153984
        0x000006bc:    696c6143    Cali    DCD    1768710467
        0x000006c0:    74617262    brat    DCD    1952543330
        0x000006c4:    206e6f69    ion     DCD    544108393
        0x000006c8:    706d6f63    comp    DCD    1886220131
        0x000006cc:    6574656c    lete    DCD    1702126956
        0x000006d0:    00000a0d    ....    DCD    2573
        0x000006d4:    52040000    ...R    DCD    1375993856
        0x000006d8:    52100000    ...R    DCD    1376780288
        0x000006dc:    52140000    ...R    DCD    1377042432
        0x000006e0:    52180000    ...R    DCD    1377304576
        0x000006e4:    521c0000    ...R    DCD    1377566720
        0x000006e8:    52280000    ..(R    DCD    1378353152
        0x000006ec:    522c0000    ..,R    DCD    1378615296
        0x000006f0:    52300000    ..0R    DCD    1378877440
        0x000006f4:    52340000    ..4R    DCD    1379139584
        0x000006f8:    00003fff    .?..    DCD    16383
        0x000006fc:    001e78c8    .x..    DCD    1997000
        0x00000700:    001e9038    8...    DCD    2003000
        0x00000704:    00030f98    ....    DCD    200600
        0x00000708:    00030d90    ....    DCD    200080
        0x0000070c:    00030ae8    ....    DCD    199400
        0x00000710:    00186f78    xo..    DCD    1601400
        0x00000714:    00186488    .d..    DCD    1598600
        0x00000718:    253d4648    HF=%    DCD    624772680
        0x0000071c:    64252d64    d-%d    DCD    1680158052
        0x00000720:    32202020       2    DCD    840966176
        0x00000724:    64253d4d    M=%d    DCD    1680162125
        0x00000728:    0064252d    -%d.    DCD    6563117
        0x0000072c:    2c64252c    ,%d,    DCD    744760620
        0x00000730:    20206425    %d      DCD    538993701
        0x00000734:    3d434c20     LC=    DCD    1027820576
        0x00000738:    252d6425    %d-%    DCD    623731749
        0x0000073c:    20202064    d       DCD    538976356
        0x00000740:    00000000    ....    DCD    0
        0x00000744:    253d4649    IF=%    DCD    624772681
        0x00000748:    64252d64    d-%d    DCD    1680158052
        0x0000074c:    00000a0d    ....    DCD    2573
    $t
    .text
    radio_txEnable
        0x00000750:    2028        (       MOVS     r0,#0x28
        0x00000752:    49f7        .I      LDR      r1,[pc,#988] ; [0xb30] = 0x52280000
        0x00000754:    6008        .`      STR      r0,[r1,#0]
        0x00000756:    2006        .       MOVS     r0,#6
        0x00000758:    49f6        .I      LDR      r1,[pc,#984] ; [0xb34] = 0x52400000
        0x0000075a:    6008        .`      STR      r0,[r1,#0]
        0x0000075c:    4770        pG      BX       lr
    radio_loadPacket
        0x0000075e:    b570        p.      PUSH     {r4-r6,lr}
        0x00000760:    4605        .F      MOV      r5,r0
        0x00000762:    460c        .F      MOV      r4,r1
        0x00000764:    4622        "F      MOV      r2,r4
        0x00000766:    4629        )F      MOV      r1,r5
        0x00000768:    48f3        .H      LDR      r0,[pc,#972] ; [0xb38] = 0x200002d0
        0x0000076a:    f004fe7c    ..|.    BL       __aeabi_memcpy ; 0x5466
        0x0000076e:    48f2        .H      LDR      r0,[pc,#968] ; [0xb38] = 0x200002d0
        0x00000770:    2101        .!      MOVS     r1,#1
        0x00000772:    0789        ..      LSLS     r1,r1,#30
        0x00000774:    6088        .`      STR      r0,[r1,#8]
        0x00000776:    4608        .F      MOV      r0,r1
        0x00000778:    60c4        .`      STR      r4,[r0,#0xc]
        0x0000077a:    2001        .       MOVS     r0,#1
        0x0000077c:    6008        .`      STR      r0,[r1,#0]
        0x0000077e:    bd70        p.      POP      {r4-r6,pc}
    radio_reset
        0x00000780:    2010        .       MOVS     r0,#0x10
        0x00000782:    0681        ..      LSLS     r1,r0,#26
        0x00000784:    6008        .`      STR      r0,[r1,#0]
        0x00000786:    4770        pG      BX       lr
    radio_rfOff
        0x00000788:    b500        ..      PUSH     {lr}
        0x0000078a:    f7fffff9    ....    BL       radio_reset ; 0x780
        0x0000078e:    2001        .       MOVS     r0,#1
        0x00000790:    0340        @.      LSLS     r0,r0,#13
        0x00000792:    49ea        .I      LDR      r1,[pc,#936] ; [0xb3c] = 0x52100000
        0x00000794:    6008        .`      STR      r0,[r1,#0]
        0x00000796:    2000        .       MOVS     r0,#0
        0x00000798:    49e5        .I      LDR      r1,[pc,#916] ; [0xb30] = 0x52280000
        0x0000079a:    6008        .`      STR      r0,[r1,#0]
        0x0000079c:    bd00        ..      POP      {pc}
    radio_txNow
        0x0000079e:    2002        .       MOVS     r0,#2
        0x000007a0:    0741        A.      LSLS     r1,r0,#29
        0x000007a2:    6008        .`      STR      r0,[r1,#0]
        0x000007a4:    4770        pG      BX       lr
    cb_timer_radio
        0x000007a6:    b500        ..      PUSH     {lr}
        0x000007a8:    48e3        .H      LDR      r0,[pc,#908] ; [0xb38] = 0x200002d0
        0x000007aa:    3814        .8      SUBS     r0,r0,#0x14
        0x000007ac:    7800        .x      LDRB     r0,[r0,#0]
        0x000007ae:    2801        .(      CMP      r0,#1
        0x000007b0:    d102        ..      BNE      0x7b8 ; cb_timer_radio + 18
        0x000007b2:    f7fffff4    ....    BL       radio_txNow ; 0x79e
        0x000007b6:    e009        ..      B        0x7cc ; cb_timer_radio + 38
        0x000007b8:    48df        .H      LDR      r0,[pc,#892] ; [0xb38] = 0x200002d0
        0x000007ba:    3814        .8      SUBS     r0,r0,#0x14
        0x000007bc:    7800        .x      LDRB     r0,[r0,#0]
        0x000007be:    2802        .(      CMP      r0,#2
        0x000007c0:    d104        ..      BNE      0x7cc ; cb_timer_radio + 38
        0x000007c2:    2001        .       MOVS     r0,#1
        0x000007c4:    49de        .I      LDR      r1,[pc,#888] ; [0xb40] = 0x2000055c
        0x000007c6:    71c8        .q      STRB     r0,[r1,#7]
        0x000007c8:    f7ffffde    ....    BL       radio_rfOff ; 0x788
        0x000007cc:    bd00        ..      POP      {pc}
    send_packet
        0x000007ce:    b570        p.      PUSH     {r4-r6,lr}
        0x000007d0:    4604        .F      MOV      r4,r0
        0x000007d2:    460d        .F      MOV      r5,r1
        0x000007d4:    2001        .       MOVS     r0,#1
        0x000007d6:    49d8        .I      LDR      r1,[pc,#864] ; [0xb38] = 0x200002d0
        0x000007d8:    3914        .9      SUBS     r1,r1,#0x14
        0x000007da:    7008        .p      STRB     r0,[r1,#0]
        0x000007dc:    48d9        .H      LDR      r0,[pc,#868] ; [0xb44] = 0x7a7
        0x000007de:    f001f922    ..".    BL       rftimer_set_callback ; 0x1a26
        0x000007e2:    4629        )F      MOV      r1,r5
        0x000007e4:    4620         F      MOV      r0,r4
        0x000007e6:    f7ffffba    ....    BL       radio_loadPacket ; 0x75e
        0x000007ea:    f7ffffb1    ....    BL       radio_txEnable ; 0x750
        0x000007ee:    f001f953    ..S.    BL       rftimer_readCounter ; 0x1a98
        0x000007f2:    217d        }!      MOVS     r1,#0x7d
        0x000007f4:    0109        ..      LSLS     r1,r1,#4
        0x000007f6:    1846        F.      ADDS     r6,r0,r1
        0x000007f8:    4630        0F      MOV      r0,r6
        0x000007fa:    f001f946    ..F.    BL       rftimer_setCompareIn ; 0x1a8a
        0x000007fe:    2100        .!      MOVS     r1,#0
        0x00000800:    48d1        .H      LDR      r0,[pc,#836] ; [0xb48] = 0x2000043c
        0x00000802:    7701        .w      STRB     r1,[r0,#0x1c]
        0x00000804:    bf00        ..      NOP      
        0x00000806:    48d0        .H      LDR      r0,[pc,#832] ; [0xb48] = 0x2000043c
        0x00000808:    7f00        ..      LDRB     r0,[r0,#0x1c]
        0x0000080a:    2800        .(      CMP      r0,#0
        0x0000080c:    d0fb        ..      BEQ      0x806 ; send_packet + 56
        0x0000080e:    bd70        p.      POP      {r4-r6,pc}
    radio_rxNow
        0x00000810:    2001        .       MOVS     r0,#1
        0x00000812:    0340        @.      LSLS     r0,r0,#13
        0x00000814:    49c9        .I      LDR      r1,[pc,#804] ; [0xb3c] = 0x52100000
        0x00000816:    6008        .`      STR      r0,[r1,#0]
        0x00000818:    2005        .       MOVS     r0,#5
        0x0000081a:    02c0        ..      LSLS     r0,r0,#11
        0x0000081c:    6008        .`      STR      r0,[r1,#0]
        0x0000081e:    2004        .       MOVS     r0,#4
        0x00000820:    0701        ..      LSLS     r1,r0,#28
        0x00000822:    6008        .`      STR      r0,[r1,#0]
        0x00000824:    4770        pG      BX       lr
    radio_rxEnable
        0x00000826:    2018        .       MOVS     r0,#0x18
        0x00000828:    49c1        .I      LDR      r1,[pc,#772] ; [0xb30] = 0x52280000
        0x0000082a:    6008        .`      STR      r0,[r1,#0]
        0x0000082c:    2001        .       MOVS     r0,#1
        0x0000082e:    49c1        .I      LDR      r1,[pc,#772] ; [0xb34] = 0x52400000
        0x00000830:    6008        .`      STR      r0,[r1,#0]
        0x00000832:    48c1        .H      LDR      r0,[pc,#772] ; [0xb38] = 0x200002d0
        0x00000834:    3080        .0      ADDS     r0,r0,#0x80
        0x00000836:    2141        A!      MOVS     r1,#0x41
        0x00000838:    0609        ..      LSLS     r1,r1,#24
        0x0000083a:    6148        Ha      STR      r0,[r1,#0x14]
        0x0000083c:    2010        .       MOVS     r0,#0x10
        0x0000083e:    0681        ..      LSLS     r1,r0,#26
        0x00000840:    6008        .`      STR      r0,[r1,#0]
        0x00000842:    4770        pG      BX       lr
    receive_packet_length
        0x00000844:    b570        p.      PUSH     {r4-r6,lr}
        0x00000846:    4605        .F      MOV      r5,r0
        0x00000848:    460c        .F      MOV      r4,r1
        0x0000084a:    2002        .       MOVS     r0,#2
        0x0000084c:    49ba        .I      LDR      r1,[pc,#744] ; [0xb38] = 0x200002d0
        0x0000084e:    3914        .9      SUBS     r1,r1,#0x14
        0x00000850:    7008        .p      STRB     r0,[r1,#0]
        0x00000852:    2dff        .-      CMP      r5,#0xff
        0x00000854:    dc01        ..      BGT      0x85a ; receive_packet_length + 22
        0x00000856:    4628        (F      MOV      r0,r5
        0x00000858:    e000        ..      B        0x85c ; receive_packet_length + 24
        0x0000085a:    20ff        .       MOVS     r0,#0xff
        0x0000085c:    49b8        .I      LDR      r1,[pc,#736] ; [0xb40] = 0x2000055c
        0x0000085e:    3920         9      SUBS     r1,r1,#0x20
        0x00000860:    7708        .w      STRB     r0,[r1,#0x1c]
        0x00000862:    2c00        .,      CMP      r4,#0
        0x00000864:    d002        ..      BEQ      0x86c ; receive_packet_length + 40
        0x00000866:    48b7        .H      LDR      r0,[pc,#732] ; [0xb44] = 0x7a7
        0x00000868:    f001f8dd    ....    BL       rftimer_set_callback ; 0x1a26
        0x0000086c:    2100        .!      MOVS     r1,#0
        0x0000086e:    48b4        .H      LDR      r0,[pc,#720] ; [0xb40] = 0x2000055c
        0x00000870:    7201        .r      STRB     r1,[r0,#8]
        0x00000872:    f7ffffd8    ....    BL       radio_rxEnable ; 0x826
        0x00000876:    f7ffffcb    ....    BL       radio_rxNow ; 0x810
        0x0000087a:    2c00        .,      CMP      r4,#0
        0x0000087c:    d007        ..      BEQ      0x88e ; receive_packet_length + 74
        0x0000087e:    f001f90b    ....    BL       rftimer_readCounter ; 0x1a98
        0x00000882:    217d        }!      MOVS     r1,#0x7d
        0x00000884:    0109        ..      LSLS     r1,r1,#4
        0x00000886:    1846        F.      ADDS     r6,r0,r1
        0x00000888:    4630        0F      MOV      r0,r6
        0x0000088a:    f001f8fe    ....    BL       rftimer_setCompareIn ; 0x1a8a
        0x0000088e:    2000        .       MOVS     r0,#0
        0x00000890:    49ab        .I      LDR      r1,[pc,#684] ; [0xb40] = 0x2000055c
        0x00000892:    71c8        .q      STRB     r0,[r1,#7]
        0x00000894:    bf00        ..      NOP      
        0x00000896:    48aa        .H      LDR      r0,[pc,#680] ; [0xb40] = 0x2000055c
        0x00000898:    79c0        .y      LDRB     r0,[r0,#7]
        0x0000089a:    2800        .(      CMP      r0,#0
        0x0000089c:    d0fb        ..      BEQ      0x896 ; receive_packet_length + 82
        0x0000089e:    bd70        p.      POP      {r4-r6,pc}
    receive_packet
        0x000008a0:    b510        ..      PUSH     {r4,lr}
        0x000008a2:    4604        .F      MOV      r4,r0
        0x000008a4:    4621        !F      MOV      r1,r4
        0x000008a6:    20ff        .       MOVS     r0,#0xff
        0x000008a8:    f7ffffcc    ....    BL       receive_packet_length ; 0x844
        0x000008ac:    bd10        ..      POP      {r4,pc}
    cb_startFrame_tx_radio
        0x000008ae:    4770        pG      BX       lr
    cb_endFrame_tx_radio
        0x000008b0:    b500        ..      PUSH     {lr}
        0x000008b2:    4602        .F      MOV      r2,r0
        0x000008b4:    f7ffff68    ..h.    BL       radio_rfOff ; 0x788
        0x000008b8:    2101        .!      MOVS     r1,#1
        0x000008ba:    48a3        .H      LDR      r0,[pc,#652] ; [0xb48] = 0x2000043c
        0x000008bc:    7701        .w      STRB     r1,[r0,#0x1c]
        0x000008be:    bd00        ..      POP      {pc}
    cb_startFrame_rx_radio
        0x000008c0:    2101        .!      MOVS     r1,#1
        0x000008c2:    4a9f        .J      LDR      r2,[pc,#636] ; [0xb40] = 0x2000055c
        0x000008c4:    7211        .r      STRB     r1,[r2,#8]
        0x000008c6:    4770        pG      BX       lr
    radio_getLQIchipErrors
        0x000008c8:    48a0        .H      LDR      r0,[pc,#640] ; [0xb4c] = 0x52540000
        0x000008ca:    6800        .h      LDR      r0,[r0,#0]
        0x000008cc:    4770        pG      BX       lr
    radio_getIFestimate
        0x000008ce:    b510        ..      PUSH     {r4,lr}
        0x000008d0:    f002f9f7    ....    BL       read_IF_estimate ; 0x2cc2
        0x000008d4:    bd10        ..      POP      {r4,pc}
    radio_getCrcOk
        0x000008d6:    489c        .H      LDR      r0,[pc,#624] ; [0xb48] = 0x2000043c
        0x000008d8:    3880        .8      SUBS     r0,r0,#0x80
        0x000008da:    7d40        @}      LDRB     r0,[r0,#0x15]
        0x000008dc:    4770        pG      BX       lr
    radio_getReceivedFrame
        0x000008de:    b5ff        ..      PUSH     {r0-r7,lr}
        0x000008e0:    b081        ..      SUB      sp,sp,#4
        0x000008e2:    460c        .F      MOV      r4,r1
        0x000008e4:    4615        .F      MOV      r5,r2
        0x000008e6:    461e        .F      MOV      r6,r3
        0x000008e8:    9f0a        ..      LDR      r7,[sp,#0x28]
        0x000008ea:    f002f9fb    ....    BL       read_RSSI ; 0x2ce4
        0x000008ee:    3855        U8      SUBS     r0,r0,#0x55
        0x000008f0:    b240        @.      SXTB     r0,r0
        0x000008f2:    7030        0p      STRB     r0,[r6,#0]
        0x000008f4:    f002f9f3    ....    BL       read_LQI ; 0x2cde
        0x000008f8:    7038        8p      STRB     r0,[r7,#0]
        0x000008fa:    488f        .H      LDR      r0,[pc,#572] ; [0xb38] = 0x200002d0
        0x000008fc:    306c        l0      ADDS     r0,r0,#0x6c
        0x000008fe:    7d00        .}      LDRB     r0,[r0,#0x14]
        0x00000900:    7020         p      STRB     r0,[r4,#0]
        0x00000902:    7820         x      LDRB     r0,[r4,#0]
        0x00000904:    42a8        .B      CMP      r0,r5
        0x00000906:    dc05        ..      BGT      0x914 ; radio_getReceivedFrame + 54
        0x00000908:    7822        "x      LDRB     r2,[r4,#0]
        0x0000090a:    498b        .I      LDR      r1,[pc,#556] ; [0xb38] = 0x200002d0
        0x0000090c:    3181        .1      ADDS     r1,r1,#0x81
        0x0000090e:    9801        ..      LDR      r0,[sp,#4]
        0x00000910:    f004fda9    ....    BL       __aeabi_memcpy ; 0x5466
        0x00000914:    b005        ..      ADD      sp,sp,#0x14
        0x00000916:    bdf0        ..      POP      {r4-r7,pc}
    cb_endFrame_rx_radio
        0x00000918:    b51c        ..      PUSH     {r2-r4,lr}
        0x0000091a:    4604        .F      MOV      r4,r0
        0x0000091c:    2000        .       MOVS     r0,#0
        0x0000091e:    9001        ..      STR      r0,[sp,#4]
        0x00000920:    21ff        .!      MOVS     r1,#0xff
        0x00000922:    4889        .H      LDR      r0,[pc,#548] ; [0xb48] = 0x2000043c
        0x00000924:    301d        .0      ADDS     r0,r0,#0x1d
        0x00000926:    f004fdfb    ....    BL       __aeabi_memclr ; 0x5520
        0x0000092a:    4885        .H      LDR      r0,[pc,#532] ; [0xb40] = 0x2000055c
        0x0000092c:    1d40        @.      ADDS     r0,r0,#5
        0x0000092e:    9000        ..      STR      r0,[sp,#0]
        0x00000930:    3825        %8      SUBS     r0,r0,#0x25
        0x00000932:    7f02        ..      LDRB     r2,[r0,#0x1c]
        0x00000934:    4603        .F      MOV      r3,r0
        0x00000936:    3324        $3      ADDS     r3,r3,#0x24
        0x00000938:    a901        ..      ADD      r1,sp,#4
        0x0000093a:    38e3        .8      SUBS     r0,r0,#0xe3
        0x0000093c:    f7ffffcf    ....    BL       radio_getReceivedFrame ; 0x8de
        0x00000940:    f7ffffc9    ....    BL       radio_getCrcOk ; 0x8d6
        0x00000944:    2800        .(      CMP      r0,#0
        0x00000946:    d01d        ..      BEQ      0x984 ; cb_endFrame_rx_radio + 108
        0x00000948:    487d        }H      LDR      r0,[pc,#500] ; [0xb40] = 0x2000055c
        0x0000094a:    3820         8      SUBS     r0,r0,#0x20
        0x0000094c:    7f00        ..      LDRB     r0,[r0,#0x1c]
        0x0000094e:    28ff        .(      CMP      r0,#0xff
        0x00000950:    d006        ..      BEQ      0x960 ; cb_endFrame_rx_radio + 72
        0x00000952:    487b        {H      LDR      r0,[pc,#492] ; [0xb40] = 0x2000055c
        0x00000954:    3820         8      SUBS     r0,r0,#0x20
        0x00000956:    7f00        ..      LDRB     r0,[r0,#0x1c]
        0x00000958:    4669        iF      MOV      r1,sp
        0x0000095a:    7909        .y      LDRB     r1,[r1,#4]
        0x0000095c:    4288        .B      CMP      r0,r1
        0x0000095e:    d111        ..      BNE      0x984 ; cb_endFrame_rx_radio + 108
        0x00000960:    f7ffffb5    ....    BL       radio_getIFestimate ; 0x8ce
        0x00000964:    4976        vI      LDR      r1,[pc,#472] ; [0xb40] = 0x2000055c
        0x00000966:    3920         9      SUBS     r1,r1,#0x20
        0x00000968:    62c8        .b      STR      r0,[r1,#0x2c]
        0x0000096a:    f7ffffad    ....    BL       radio_getLQIchipErrors ; 0x8c8
        0x0000096e:    4974        tI      LDR      r1,[pc,#464] ; [0xb40] = 0x2000055c
        0x00000970:    3920         9      SUBS     r1,r1,#0x20
        0x00000972:    6308        .c      STR      r0,[r1,#0x30]
        0x00000974:    4608        .F      MOV      r0,r1
        0x00000976:    6a02        .j      LDR      r2,[r0,#0x20]
        0x00000978:    4668        hF      MOV      r0,sp
        0x0000097a:    7901        .y      LDRB     r1,[r0,#4]
        0x0000097c:    4872        rH      LDR      r0,[pc,#456] ; [0xb48] = 0x2000043c
        0x0000097e:    301d        .0      ADDS     r0,r0,#0x1d
        0x00000980:    4790        .G      BLX      r2
        0x00000982:    e003        ..      B        0x98c ; cb_endFrame_rx_radio + 116
        0x00000984:    f7ffff4f    ..O.    BL       radio_rxEnable ; 0x826
        0x00000988:    f7ffff42    ..B.    BL       radio_rxNow ; 0x810
        0x0000098c:    2000        .       MOVS     r0,#0
        0x0000098e:    496c        lI      LDR      r1,[pc,#432] ; [0xb40] = 0x2000055c
        0x00000990:    7208        .r      STRB     r0,[r1,#8]
        0x00000992:    2001        .       MOVS     r0,#1
        0x00000994:    71c8        .q      STRB     r0,[r1,#7]
        0x00000996:    bd1c        ..      POP      {r2-r4,pc}
    repeat_rx_tx
        0x00000998:    b40f        ..      PUSH     {r0-r3}
        0x0000099a:    b5f0        ..      PUSH     {r4-r7,lr}
        0x0000099c:    b08b        ..      SUB      sp,sp,#0x2c
        0x0000099e:    9812        ..      LDR      r0,[sp,#0x48]
        0x000009a0:    9004        ..      STR      r0,[sp,#0x10]
        0x000009a2:    a810        ..      ADD      r0,sp,#0x40
        0x000009a4:    7940        @y      LDRB     r0,[r0,#5]
        0x000009a6:    9003        ..      STR      r0,[sp,#0xc]
        0x000009a8:    2000        .       MOVS     r0,#0
        0x000009aa:    9002        ..      STR      r0,[sp,#8]
        0x000009ac:    a810        ..      ADD      r0,sp,#0x40
        0x000009ae:    7800        .x      LDRB     r0,[r0,#0]
        0x000009b0:    2801        .(      CMP      r0,#1
        0x000009b2:    d102        ..      BNE      0x9ba ; repeat_rx_tx + 34
        0x000009b4:    a066        f.      ADR      r0,{pc}+0x19c ; 0xb50
        0x000009b6:    9001        ..      STR      r0,[sp,#4]
        0x000009b8:    e001        ..      B        0x9be ; repeat_rx_tx + 38
        0x000009ba:    a068        h.      ADR      r0,{pc}+0x1a2 ; 0xb5c
        0x000009bc:    9001        ..      STR      r0,[sp,#4]
        0x000009be:    a810        ..      ADD      r0,sp,#0x40
        0x000009c0:    7900        .y      LDRB     r0,[r0,#4]
        0x000009c2:    2802        .(      CMP      r0,#2
        0x000009c4:    d115        ..      BNE      0x9f2 ; repeat_rx_tx + 90
        0x000009c6:    a810        ..      ADD      r0,sp,#0x40
        0x000009c8:    7c07        .|      LDRB     r7,[r0,#0x10]
        0x000009ca:    7c40        @|      LDRB     r0,[r0,#0x11]
        0x000009cc:    9009        ..      STR      r0,[sp,#0x24]
        0x000009ce:    a810        ..      ADD      r0,sp,#0x40
        0x000009d0:    7c80        .|      LDRB     r0,[r0,#0x12]
        0x000009d2:    9008        ..      STR      r0,[sp,#0x20]
        0x000009d4:    1c78        x.      ADDS     r0,r7,#1
        0x000009d6:    b2c0        ..      UXTB     r0,r0
        0x000009d8:    9007        ..      STR      r0,[sp,#0x1c]
        0x000009da:    bf00        ..      NOP      
        0x000009dc:    9809        ..      LDR      r0,[sp,#0x24]
        0x000009de:    1c40        @.      ADDS     r0,r0,#1
        0x000009e0:    b2c0        ..      UXTB     r0,r0
        0x000009e2:    9006        ..      STR      r0,[sp,#0x18]
        0x000009e4:    bf00        ..      NOP      
        0x000009e6:    9808        ..      LDR      r0,[sp,#0x20]
        0x000009e8:    1c40        @.      ADDS     r0,r0,#1
        0x000009ea:    b2c0        ..      UXTB     r0,r0
        0x000009ec:    9005        ..      STR      r0,[sp,#0x14]
        0x000009ee:    bf00        ..      NOP      
        0x000009f0:    e00f        ..      B        0xa12 ; repeat_rx_tx + 122
        0x000009f2:    a810        ..      ADD      r0,sp,#0x40
        0x000009f4:    7cc7        .|      LDRB     r7,[r0,#0x13]
        0x000009f6:    7d80        .}      LDRB     r0,[r0,#0x16]
        0x000009f8:    9007        ..      STR      r0,[sp,#0x1c]
        0x000009fa:    a810        ..      ADD      r0,sp,#0x40
        0x000009fc:    7d00        .}      LDRB     r0,[r0,#0x14]
        0x000009fe:    9009        ..      STR      r0,[sp,#0x24]
        0x00000a00:    a810        ..      ADD      r0,sp,#0x40
        0x00000a02:    7dc0        .}      LDRB     r0,[r0,#0x17]
        0x00000a04:    9006        ..      STR      r0,[sp,#0x18]
        0x00000a06:    a810        ..      ADD      r0,sp,#0x40
        0x00000a08:    7d40        @}      LDRB     r0,[r0,#0x15]
        0x00000a0a:    9008        ..      STR      r0,[sp,#0x20]
        0x00000a0c:    a810        ..      ADD      r0,sp,#0x40
        0x00000a0e:    7e00        .~      LDRB     r0,[r0,#0x18]
        0x00000a10:    9005        ..      STR      r0,[sp,#0x14]
        0x00000a12:    bf00        ..      NOP      
        0x00000a14:    e063        c.      B        0xade ; repeat_rx_tx + 326
        0x00000a16:    463c        <F      MOV      r4,r7
        0x00000a18:    e05e        ^.      B        0xad8 ; repeat_rx_tx + 320
        0x00000a1a:    9d09        ..      LDR      r5,[sp,#0x24]
        0x00000a1c:    e057        W.      B        0xace ; repeat_rx_tx + 310
        0x00000a1e:    9e08        ..      LDR      r6,[sp,#0x20]
        0x00000a20:    e050        P.      B        0xac4 ; repeat_rx_tx + 300
        0x00000a22:    a808        ..      ADD      r0,sp,#0x20
        0x00000a24:    7204        .r      STRB     r4,[r0,#8]
        0x00000a26:    7245        Er      STRB     r5,[r0,#9]
        0x00000a28:    7286        .r      STRB     r6,[r0,#0xa]
        0x00000a2a:    a810        ..      ADD      r0,sp,#0x40
        0x00000a2c:    7900        .y      LDRB     r0,[r0,#4]
        0x00000a2e:    2801        .(      CMP      r0,#1
        0x00000a30:    d105        ..      BNE      0xa3e ; repeat_rx_tx + 166
        0x00000a32:    4633        3F      MOV      r3,r6
        0x00000a34:    462a        *F      MOV      r2,r5
        0x00000a36:    4621        !F      MOV      r1,r4
        0x00000a38:    a04a        J.      ADR      r0,{pc}+0x12c ; 0xb64
        0x00000a3a:    f004fc0d    ....    BL       __2printf ; 0x5258
        0x00000a3e:    bf00        ..      NOP      
        0x00000a40:    4632        2F      MOV      r2,r6
        0x00000a42:    4629        )F      MOV      r1,r5
        0x00000a44:    4620         F      MOV      r0,r4
        0x00000a46:    f002fa14    ....    BL       LC_FREQCHANGE ; 0x2e72
        0x00000a4a:    a810        ..      ADD      r0,sp,#0x40
        0x00000a4c:    7800        .x      LDRB     r0,[r0,#0]
        0x00000a4e:    2802        .(      CMP      r0,#2
        0x00000a50:    d105        ..      BNE      0xa5e ; repeat_rx_tx + 198
        0x00000a52:    a910        ..      ADD      r1,sp,#0x40
        0x00000a54:    7948        Hy      LDRB     r0,[r1,#5]
        0x00000a56:    2101        .!      MOVS     r1,#1
        0x00000a58:    f7fffef4    ....    BL       receive_packet_length ; 0x844
        0x00000a5c:    e01e        ..      B        0xa9c ; repeat_rx_tx + 260
        0x00000a5e:    a810        ..      ADD      r0,sp,#0x40
        0x00000a60:    7800        .x      LDRB     r0,[r0,#0]
        0x00000a62:    2801        .(      CMP      r0,#1
        0x00000a64:    d11a        ..      BNE      0xa9c ; repeat_rx_tx + 260
        0x00000a66:    9000        ..      STR      r0,[sp,#0]
        0x00000a68:    e007        ..      B        0xa7a ; repeat_rx_tx + 226
        0x00000a6a:    2120         !      MOVS     r1,#0x20
        0x00000a6c:    9a12        ..      LDR      r2,[sp,#0x48]
        0x00000a6e:    9800        ..      LDR      r0,[sp,#0]
        0x00000a70:    5411        .T      STRB     r1,[r2,r0]
        0x00000a72:    9800        ..      LDR      r0,[sp,#0]
        0x00000a74:    1c40        @.      ADDS     r0,r0,#1
        0x00000a76:    b2c0        ..      UXTB     r0,r0
        0x00000a78:    9000        ..      STR      r0,[sp,#0]
        0x00000a7a:    a810        ..      ADD      r0,sp,#0x40
        0x00000a7c:    7941        Ay      LDRB     r1,[r0,#5]
        0x00000a7e:    9800        ..      LDR      r0,[sp,#0]
        0x00000a80:    4281        .B      CMP      r1,r0
        0x00000a82:    dcf2        ..      BGT      0xa6a ; repeat_rx_tx + 210
        0x00000a84:    9812        ..      LDR      r0,[sp,#0x48]
        0x00000a86:    9004        ..      STR      r0,[sp,#0x10]
        0x00000a88:    bf00        ..      NOP      
        0x00000a8a:    9b13        ..      LDR      r3,[sp,#0x4c]
        0x00000a8c:    9a0a        ..      LDR      r2,[sp,#0x28]
        0x00000a8e:    9903        ..      LDR      r1,[sp,#0xc]
        0x00000a90:    9804        ..      LDR      r0,[sp,#0x10]
        0x00000a92:    4798        .G      BLX      r3
        0x00000a94:    9903        ..      LDR      r1,[sp,#0xc]
        0x00000a96:    9804        ..      LDR      r0,[sp,#0x10]
        0x00000a98:    f7fffe99    ....    BL       send_packet ; 0x7ce
        0x00000a9c:    9802        ..      LDR      r0,[sp,#8]
        0x00000a9e:    1c40        @.      ADDS     r0,r0,#1
        0x00000aa0:    9002        ..      STR      r0,[sp,#8]
        0x00000aa2:    a810        ..      ADD      r0,sp,#0x40
        0x00000aa4:    2102        .!      MOVS     r1,#2
        0x00000aa6:    5e41        A^      LDRSH    r1,[r0,r1]
        0x00000aa8:    9802        ..      LDR      r0,[sp,#8]
        0x00000aaa:    4281        .B      CMP      r1,r0
        0x00000aac:    d108        ..      BNE      0xac0 ; repeat_rx_tx + 296
        0x00000aae:    a035        5.      ADR      r0,{pc}+0xd6 ; 0xb84
        0x00000ab0:    9902        ..      LDR      r1,[sp,#8]
        0x00000ab2:    f004fbd1    ....    BL       __2printf ; 0x5258
        0x00000ab6:    b00b        ..      ADD      sp,sp,#0x2c
        0x00000ab8:    bcf0        ..      POP      {r4-r7}
        0x00000aba:    bc08        ..      POP      {r3}
        0x00000abc:    b004        ..      ADD      sp,sp,#0x10
        0x00000abe:    4718        .G      BX       r3
        0x00000ac0:    1c70        p.      ADDS     r0,r6,#1
        0x00000ac2:    b2c6        ..      UXTB     r6,r0
        0x00000ac4:    9805        ..      LDR      r0,[sp,#0x14]
        0x00000ac6:    4286        .B      CMP      r6,r0
        0x00000ac8:    dbab        ..      BLT      0xa22 ; repeat_rx_tx + 138
        0x00000aca:    1c68        h.      ADDS     r0,r5,#1
        0x00000acc:    b2c5        ..      UXTB     r5,r0
        0x00000ace:    9806        ..      LDR      r0,[sp,#0x18]
        0x00000ad0:    4285        .B      CMP      r5,r0
        0x00000ad2:    dba4        ..      BLT      0xa1e ; repeat_rx_tx + 134
        0x00000ad4:    1c60        `.      ADDS     r0,r4,#1
        0x00000ad6:    b2c4        ..      UXTB     r4,r0
        0x00000ad8:    9807        ..      LDR      r0,[sp,#0x1c]
        0x00000ada:    4284        .B      CMP      r4,r0
        0x00000adc:    db9d        ..      BLT      0xa1a ; repeat_rx_tx + 130
        0x00000ade:    e79a        ..      B        0xa16 ; repeat_rx_tx + 126
    default_radio_rx_cb
        0x00000ae0:    b570        p.      PUSH     {r4-r6,lr}
        0x00000ae2:    4606        .F      MOV      r6,r0
        0x00000ae4:    460d        .F      MOV      r5,r1
        0x00000ae6:    a036        6.      ADR      r0,{pc}+0xda ; 0xbc0
        0x00000ae8:    f004fbb6    ....    BL       __2printf ; 0x5258
        0x00000aec:    2400        .$      MOVS     r4,#0
        0x00000aee:    e007        ..      B        0xb00 ; default_radio_rx_cb + 32
        0x00000af0:    4815        .H      LDR      r0,[pc,#84] ; [0xb48] = 0x2000043c
        0x00000af2:    301d        .0      ADDS     r0,r0,#0x1d
        0x00000af4:    5d01        .]      LDRB     r1,[r0,r4]
        0x00000af6:    a039        9.      ADR      r0,{pc}+0xe6 ; 0xbdc
        0x00000af8:    f004fbae    ....    BL       __2printf ; 0x5258
        0x00000afc:    1c60        `.      ADDS     r0,r4,#1
        0x00000afe:    b2c4        ..      UXTB     r4,r0
        0x00000b00:    1ea8        ..      SUBS     r0,r5,#2
        0x00000b02:    42a0        .B      CMP      r0,r4
        0x00000b04:    dcf4        ..      BGT      0xaf0 ; default_radio_rx_cb + 16
        0x00000b06:    a036        6.      ADR      r0,{pc}+0xda ; 0xbe0
        0x00000b08:    f004fba6    ....    BL       __2printf ; 0x5258
        0x00000b0c:    bd70        p.      POP      {r4-r6,pc}
    radio_setRxCb
        0x00000b0e:    490c        .I      LDR      r1,[pc,#48] ; [0xb40] = 0x2000055c
        0x00000b10:    3920         9      SUBS     r1,r1,#0x20
        0x00000b12:    6208        .b      STR      r0,[r1,#0x20]
        0x00000b14:    4770        pG      BX       lr
    radio_setEndFrameRxCb
        0x00000b16:    4908        .I      LDR      r1,[pc,#32] ; [0xb38] = 0x200002d0
        0x00000b18:    3914        .9      SUBS     r1,r1,#0x14
        0x00000b1a:    6108        .a      STR      r0,[r1,#0x10]
        0x00000b1c:    4770        pG      BX       lr
    radio_setStartFrameRxCb
        0x00000b1e:    4906        .I      LDR      r1,[pc,#24] ; [0xb38] = 0x200002d0
        0x00000b20:    3914        .9      SUBS     r1,r1,#0x14
        0x00000b22:    60c8        .`      STR      r0,[r1,#0xc]
        0x00000b24:    4770        pG      BX       lr
    radio_setEndFrameTxCb
        0x00000b26:    4904        .I      LDR      r1,[pc,#16] ; [0xb38] = 0x200002d0
        0x00000b28:    3914        .9      SUBS     r1,r1,#0x14
        0x00000b2a:    6088        .`      STR      r0,[r1,#8]
        0x00000b2c:    4770        pG      BX       lr
    $d
        0x00000b2e:    0000        ..      DCW    0
        0x00000b30:    52280000    ..(R    DCD    1378353152
        0x00000b34:    52400000    ..@R    DCD    1379926016
        0x00000b38:    200002d0    ...     DCD    536871632
        0x00000b3c:    52100000    ...R    DCD    1376780288
        0x00000b40:    2000055c    \..     DCD    536872284
        0x00000b44:    000007a7    ....    DCD    1959
        0x00000b48:    2000043c    <..     DCD    536871996
        0x00000b4c:    52540000    ..TR    DCD    1381236736
        0x00000b50:    6e617274    tran    DCD    1851880052
        0x00000b54:    74696d73    smit    DCD    1953066355
        0x00000b58:    00000000    ....    DCD    0
        0x00000b5c:    65636572    rece    DCD    1701012850
        0x00000b60:    00657669    ive.    DCD    6649449
        0x00000b64:    72616f63    coar    DCD    1918988131
        0x00000b68:    253d6573    se=%    DCD    624780659
        0x00000b6c:    6d202c64    d, m    DCD    1830825060
        0x00000b70:    6c646469    iddl    DCD    1818518633
        0x00000b74:    64253d65    e=%d    DCD    1680162149
        0x00000b78:    6966202c    , fi    DCD    1768300588
        0x00000b7c:    253d656e    ne=%    DCD    624780654
        0x00000b80:    000a0d64    d...    DCD    658788
        0x00000b84:    706f7453    Stop    DCD    1886352467
        0x00000b88:    676e6970    ping    DCD    1735289200
        0x00000b8c:    2f787220     rx/    DCD    796422688
        0x00000b90:    61207874    tx a    DCD    1629517940
        0x00000b94:    65772073    s we    DCD    1702305907
        0x00000b98:    76616820     hav    DCD    1986095136
        0x00000b9c:    65722065    e re    DCD    1701978213
        0x00000ba0:    76696563    ceiv    DCD    1986618723
        0x00000ba4:    742f6465    ed/t    DCD    1949262949
        0x00000ba8:    736e6172    rans    DCD    1936613746
        0x00000bac:    7474696d    mitt    DCD    1953786221
        0x00000bb0:    25206465    ed %    DCD    622879845
        0x00000bb4:    61702064    d pa    DCD    1634738276
        0x00000bb8:    74656b63    cket    DCD    1952803683
        0x00000bbc:    00000a73    s...    DCD    2675
        0x00000bc0:    65636552    Rece    DCD    1701012818
        0x00000bc4:    64657669    ived    DCD    1684371049
        0x00000bc8:    63615020     Pac    DCD    1667321888
        0x00000bcc:    2e74656b    ket.    DCD    779380075
        0x00000bd0:    6e6f4320     Con    DCD    1852785440
        0x00000bd4:    746e6574    tent    DCD    1953391988
        0x00000bd8:    00203a73    s: .    DCD    2112115
        0x00000bdc:    00206425    %d .    DCD    2122789
        0x00000be0:    0000000a    ....    DCD    10
    $t
    radio_setStartFrameTxCb
        0x00000be4:    49fe        .I      LDR      r1,[pc,#1016] ; [0xfe0] = 0x200002bc
        0x00000be6:    6048        H`      STR      r0,[r1,#4]
        0x00000be8:    4770        pG      BX       lr
    radio_init
        0x00000bea:    b510        ..      PUSH     {r4,lr}
        0x00000bec:    2157        W!      MOVS     r1,#0x57
        0x00000bee:    00c9        ..      LSLS     r1,r1,#3
        0x00000bf0:    48fb        .H      LDR      r0,[pc,#1004] ; [0xfe0] = 0x200002bc
        0x00000bf2:    f004fc97    ....    BL       __aeabi_memclr4 ; 0x5524
        0x00000bf6:    49fb        .I      LDR      r1,[pc,#1004] ; [0xfe4] = 0x2c3
        0x00000bf8:    48fb        .H      LDR      r0,[pc,#1004] ; [0xfe8] = 0x200003bc
        0x00000bfa:    6581        .e      STR      r1,[r0,#0x58]
        0x00000bfc:    1fc9        ..      SUBS     r1,r1,#7
        0x00000bfe:    6181        .a      STR      r1,[r0,#0x18]
        0x00000c00:    210f        .!      MOVS     r1,#0xf
        0x00000c02:    3080        .0      ADDS     r0,r0,#0x80
        0x00000c04:    8301        ..      STRH     r1,[r0,#0x18]
        0x00000c06:    2040        @       MOVS     r0,#0x40
        0x00000c08:    49f8        .I      LDR      r1,[pc,#992] ; [0xfec] = 0xe000e100
        0x00000c0a:    6008        .`      STR      r0,[r1,#0]
        0x00000c0c:    201f        .       MOVS     r0,#0x1f
        0x00000c0e:    0589        ..      LSLS     r1,r1,#22
        0x00000c10:    6148        Ha      STR      r0,[r1,#0x14]
        0x00000c12:    2008        .       MOVS     r0,#8
        0x00000c14:    6208        .b      STR      r0,[r1,#0x20]
        0x00000c16:    48f6        .H      LDR      r0,[pc,#984] ; [0xff0] = 0x8af
        0x00000c18:    f7ffffe4    ....    BL       radio_setStartFrameTxCb ; 0xbe4
        0x00000c1c:    48f5        .H      LDR      r0,[pc,#980] ; [0xff4] = 0x8b1
        0x00000c1e:    f7ffff82    ....    BL       radio_setEndFrameTxCb ; 0xb26
        0x00000c22:    48f5        .H      LDR      r0,[pc,#980] ; [0xff8] = 0x8c1
        0x00000c24:    f7ffff7b    ..{.    BL       radio_setStartFrameRxCb ; 0xb1e
        0x00000c28:    48f4        .H      LDR      r0,[pc,#976] ; [0xffc] = 0x919
        0x00000c2a:    f7ffff74    ..t.    BL       radio_setEndFrameRxCb ; 0xb16
        0x00000c2e:    48f4        .H      LDR      r0,[pc,#976] ; [0x1000] = 0xae1
        0x00000c30:    f7ffff6d    ..m.    BL       radio_setRxCb ; 0xb0e
        0x00000c34:    bd10        ..      POP      {r4,pc}
    setFrequencyRX
        0x00000c36:    b510        ..      PUSH     {r4,lr}
        0x00000c38:    4604        .F      MOV      r4,r0
        0x00000c3a:    4621        !F      MOV      r1,r4
        0x00000c3c:    390b        .9      SUBS     r1,r1,#0xb
        0x00000c3e:    008a        ..      LSLS     r2,r1,#2
        0x00000c40:    49e9        .I      LDR      r1,[pc,#932] ; [0xfe8] = 0x200003bc
        0x00000c42:    3118        .1      ADDS     r1,r1,#0x18
        0x00000c44:    5888        .X      LDR      r0,[r1,r2]
        0x00000c46:    f002f94d    ..M.    BL       LC_monotonic ; 0x2ee4
        0x00000c4a:    bd10        ..      POP      {r4,pc}
    setFrequencyTX
        0x00000c4c:    b510        ..      PUSH     {r4,lr}
        0x00000c4e:    4604        .F      MOV      r4,r0
        0x00000c50:    4621        !F      MOV      r1,r4
        0x00000c52:    390b        .9      SUBS     r1,r1,#0xb
        0x00000c54:    008a        ..      LSLS     r2,r1,#2
        0x00000c56:    49e4        .I      LDR      r1,[pc,#912] ; [0xfe8] = 0x200003bc
        0x00000c58:    3158        X1      ADDS     r1,r1,#0x58
        0x00000c5a:    5888        .X      LDR      r0,[r1,r2]
        0x00000c5c:    f002f942    ..B.    BL       LC_monotonic ; 0x2ee4
        0x00000c60:    bd10        ..      POP      {r4,pc}
    radio_setFrequency
        0x00000c62:    b570        p.      PUSH     {r4-r6,lr}
        0x00000c64:    4605        .F      MOV      r5,r0
        0x00000c66:    460c        .F      MOV      r4,r1
        0x00000c68:    210b        .!      MOVS     r1,#0xb
        0x00000c6a:    48df        .H      LDR      r0,[pc,#892] ; [0xfe8] = 0x200003bc
        0x00000c6c:    7501        .u      STRB     r1,[r0,#0x14]
        0x00000c6e:    2c01        .,      CMP      r4,#1
        0x00000c70:    d002        ..      BEQ      0xc78 ; radio_setFrequency + 22
        0x00000c72:    2c02        .,      CMP      r4,#2
        0x00000c74:    d10a        ..      BNE      0xc8c ; radio_setFrequency + 42
        0x00000c76:    e004        ..      B        0xc82 ; radio_setFrequency + 32
        0x00000c78:    49db        .I      LDR      r1,[pc,#876] ; [0xfe8] = 0x200003bc
        0x00000c7a:    7d08        .}      LDRB     r0,[r1,#0x14]
        0x00000c7c:    f7ffffe6    ....    BL       setFrequencyTX ; 0xc4c
        0x00000c80:    e005        ..      B        0xc8e ; radio_setFrequency + 44
        0x00000c82:    49d9        .I      LDR      r1,[pc,#868] ; [0xfe8] = 0x200003bc
        0x00000c84:    7d08        .}      LDRB     r0,[r1,#0x14]
        0x00000c86:    f7ffffd6    ....    BL       setFrequencyRX ; 0xc36
        0x00000c8a:    e000        ..      B        0xc8e ; radio_setFrequency + 44
        0x00000c8c:    bf00        ..      NOP      
        0x00000c8e:    bf00        ..      NOP      
        0x00000c90:    bd70        p.      POP      {r4-r6,pc}
    radio_rfOn
        0x00000c92:    2001        .       MOVS     r0,#1
        0x00000c94:    0780        ..      LSLS     r0,r0,#30
        0x00000c96:    6800        .h      LDR      r0,[r0,#0]
        0x00000c98:    2110        .!      MOVS     r1,#0x10
        0x00000c9a:    4388        .C      BICS     r0,r0,r1
        0x00000c9c:    0689        ..      LSLS     r1,r1,#26
        0x00000c9e:    6008        .`      STR      r0,[r1,#0]
        0x00000ca0:    4770        pG      BX       lr
    radio_frequency_housekeeping
        0x00000ca2:    b5f7        ..      PUSH     {r0-r2,r4-r7,lr}
        0x00000ca4:    b084        ..      SUB      sp,sp,#0x10
        0x00000ca6:    bf00        ..      NOP      
        0x00000ca8:    f000ffc8    ....    BL       scm3c_hw_interface_get_IF_coarse ; 0x1c3c
        0x00000cac:    9001        ..      STR      r0,[sp,#4]
        0x00000cae:    f000ffc9    ....    BL       scm3c_hw_interface_get_IF_fine ; 0x1c44
        0x00000cb2:    9000        ..      STR      r0,[sp,#0]
        0x00000cb4:    48ca        .H      LDR      r0,[pc,#808] ; [0xfe0] = 0x200002bc
        0x00000cb6:    3080        .0      ADDS     r0,r0,#0x80
        0x00000cb8:    7d00        .}      LDRB     r0,[r0,#0x14]
        0x00000cba:    9002        ..      STR      r0,[sp,#8]
        0x00000cbc:    48ca        .H      LDR      r0,[pc,#808] ; [0xfe8] = 0x200003bc
        0x00000cbe:    3080        .0      ADDS     r0,r0,#0x80
        0x00000cc0:    8b40        @.      LDRH     r0,[r0,#0x1a]
        0x00000cc2:    1c40        @.      ADDS     r0,r0,#1
        0x00000cc4:    b281        ..      UXTH     r1,r0
        0x00000cc6:    48c8        .H      LDR      r0,[pc,#800] ; [0xfe8] = 0x200003bc
        0x00000cc8:    3080        .0      ADDS     r0,r0,#0x80
        0x00000cca:    8341        A.      STRH     r1,[r0,#0x1a]
        0x00000ccc:    2500        .%      MOVS     r5,#0
        0x00000cce:    9a02        ..      LDR      r2,[sp,#8]
        0x00000cd0:    00d1        ..      LSLS     r1,r2,#3
        0x00000cd2:    4bcc        .K      LDR      r3,[pc,#816] ; [0x1004] = 0x3d09
        0x00000cd4:    9a06        ..      LDR      r2,[sp,#0x18]
        0x00000cd6:    435a        ZC      MULS     r2,r3,r2
        0x00000cd8:    4610        .F      MOV      r0,r2
        0x00000cda:    f004fc2f    ../.    BL       __aeabi_idiv ; 0x553c
        0x00000cde:    9003        ..      STR      r0,[sp,#0xc]
        0x00000ce0:    2409        .$      MOVS     r4,#9
        0x00000ce2:    e007        ..      B        0xcf4 ; radio_frequency_housekeeping + 82
        0x00000ce4:    0060        `.      LSLS     r0,r4,#1
        0x00000ce6:    49c8        .I      LDR      r1,[pc,#800] ; [0x1008] = 0x200002a4
        0x00000ce8:    5a09        .Z      LDRH     r1,[r1,r0]
        0x00000cea:    1c60        `.      ADDS     r0,r4,#1
        0x00000cec:    0040        @.      LSLS     r0,r0,#1
        0x00000cee:    4ac6        .J      LDR      r2,[pc,#792] ; [0x1008] = 0x200002a4
        0x00000cf0:    5211        .R      STRH     r1,[r2,r0]
        0x00000cf2:    1e64        d.      SUBS     r4,r4,#1
        0x00000cf4:    2c00        .,      CMP      r4,#0
        0x00000cf6:    daf5        ..      BGE      0xce4 ; radio_frequency_housekeeping + 66
        0x00000cf8:    9803        ..      LDR      r0,[sp,#0xc]
        0x00000cfa:    b200        ..      SXTH     r0,r0
        0x00000cfc:    49c2        .I      LDR      r1,[pc,#776] ; [0x1008] = 0x200002a4
        0x00000cfe:    8008        ..      STRH     r0,[r1,#0]
        0x00000d00:    2400        .$      MOVS     r4,#0
        0x00000d02:    e007        ..      B        0xd14 ; radio_frequency_housekeeping + 114
        0x00000d04:    0060        `.      LSLS     r0,r4,#1
        0x00000d06:    49c0        .I      LDR      r1,[pc,#768] ; [0x1008] = 0x200002a4
        0x00000d08:    5e08        .^      LDRSH    r0,[r1,r0]
        0x00000d0a:    49c0        .I      LDR      r1,[pc,#768] ; [0x100c] = 0x20000018
        0x00000d0c:    5d09        .]      LDRB     r1,[r1,r4]
        0x00000d0e:    4348        HC      MULS     r0,r1,r0
        0x00000d10:    1945        E.      ADDS     r5,r0,r5
        0x00000d12:    1c64        d.      ADDS     r4,r4,#1
        0x00000d14:    2c0a        .,      CMP      r4,#0xa
        0x00000d16:    ddf5        ..      BLE      0xd04 ; radio_frequency_housekeeping + 98
        0x00000d18:    4628        (F      MOV      r0,r5
        0x00000d1a:    17e9        ..      ASRS     r1,r5,#31
        0x00000d1c:    0dc9        ..      LSRS     r1,r1,#23
        0x00000d1e:    1809        ..      ADDS     r1,r1,r0
        0x00000d20:    124f        O.      ASRS     r7,r1,#9
        0x00000d22:    48b1        .H      LDR      r0,[pc,#708] ; [0xfe8] = 0x200003bc
        0x00000d24:    3080        .0      ADDS     r0,r0,#0x80
        0x00000d26:    8b41        A.      LDRH     r1,[r0,#0x1a]
        0x00000d28:    8b00        ..      LDRH     r0,[r0,#0x18]
        0x00000d2a:    4281        .B      CMP      r1,r0
        0x00000d2c:    d116        ..      BNE      0xd5c ; radio_frequency_housekeeping + 186
        0x00000d2e:    207d        }       MOVS     r0,#0x7d
        0x00000d30:    00c0        ..      LSLS     r0,r0,#3
        0x00000d32:    4287        .B      CMP      r7,r0
        0x00000d34:    dd07        ..      BLE      0xd46 ; radio_frequency_housekeeping + 164
        0x00000d36:    9800        ..      LDR      r0,[sp,#0]
        0x00000d38:    1c42        B.      ADDS     r2,r0,#1
        0x00000d3a:    4601        .F      MOV      r1,r0
        0x00000d3c:    9200        ..      STR      r2,[sp,#0]
        0x00000d3e:    2200        ."      MOVS     r2,#0
        0x00000d40:    9801        ..      LDR      r0,[sp,#4]
        0x00000d42:    f001ffd4    ....    BL       set_IF_clock_frequency ; 0x2cee
        0x00000d46:    48b2        .H      LDR      r0,[pc,#712] ; [0x1010] = 0xfffffc18
        0x00000d48:    4287        .B      CMP      r7,r0
        0x00000d4a:    da07        ..      BGE      0xd5c ; radio_frequency_housekeeping + 186
        0x00000d4c:    9800        ..      LDR      r0,[sp,#0]
        0x00000d4e:    1e42        B.      SUBS     r2,r0,#1
        0x00000d50:    4601        .F      MOV      r1,r0
        0x00000d52:    9200        ..      STR      r2,[sp,#0]
        0x00000d54:    2200        ."      MOVS     r2,#0
        0x00000d56:    9801        ..      LDR      r0,[sp,#4]
        0x00000d58:    f001ffc9    ....    BL       set_IF_clock_frequency ; 0x2cee
        0x00000d5c:    9801        ..      LDR      r0,[sp,#4]
        0x00000d5e:    f000ff8d    ....    BL       scm3c_hw_interface_set_IF_coarse ; 0x1c7c
        0x00000d62:    9800        ..      LDR      r0,[sp,#0]
        0x00000d64:    f000ff8e    ....    BL       scm3c_hw_interface_set_IF_fine ; 0x1c84
        0x00000d68:    2500        .%      MOVS     r5,#0
        0x00000d6a:    9805        ..      LDR      r0,[sp,#0x14]
        0x00000d6c:    2819        .(      CMP      r0,#0x19
        0x00000d6e:    d26d        m.      BCS      0xe4c ; radio_frequency_housekeeping + 426
        0x00000d70:    2409        .$      MOVS     r4,#9
        0x00000d72:    e007        ..      B        0xd84 ; radio_frequency_housekeeping + 226
        0x00000d74:    00a0        ..      LSLS     r0,r4,#2
        0x00000d76:    49a7        .I      LDR      r1,[pc,#668] ; [0x1014] = 0x20000024
        0x00000d78:    5809        .X      LDR      r1,[r1,r0]
        0x00000d7a:    1c60        `.      ADDS     r0,r4,#1
        0x00000d7c:    0080        ..      LSLS     r0,r0,#2
        0x00000d7e:    4aa5        .J      LDR      r2,[pc,#660] ; [0x1014] = 0x20000024
        0x00000d80:    5011        .P      STR      r1,[r2,r0]
        0x00000d82:    1e64        d.      SUBS     r4,r4,#1
        0x00000d84:    2c00        .,      CMP      r4,#0
        0x00000d86:    daf5        ..      BGE      0xd74 ; radio_frequency_housekeeping + 210
        0x00000d88:    49a2        .I      LDR      r1,[pc,#648] ; [0x1014] = 0x20000024
        0x00000d8a:    9804        ..      LDR      r0,[sp,#0x10]
        0x00000d8c:    6008        .`      STR      r0,[r1,#0]
        0x00000d8e:    2400        .$      MOVS     r4,#0
        0x00000d90:    e007        ..      B        0xda2 ; radio_frequency_housekeeping + 256
        0x00000d92:    00a0        ..      LSLS     r0,r4,#2
        0x00000d94:    499f        .I      LDR      r1,[pc,#636] ; [0x1014] = 0x20000024
        0x00000d96:    5808        .X      LDR      r0,[r1,r0]
        0x00000d98:    499c        .I      LDR      r1,[pc,#624] ; [0x100c] = 0x20000018
        0x00000d9a:    5d09        .]      LDRB     r1,[r1,r4]
        0x00000d9c:    4348        HC      MULS     r0,r1,r0
        0x00000d9e:    1945        E.      ADDS     r5,r0,r5
        0x00000da0:    1c64        d.      ADDS     r4,r4,#1
        0x00000da2:    2c0a        .,      CMP      r4,#0xa
        0x00000da4:    ddf5        ..      BLE      0xd92 ; radio_frequency_housekeeping + 240
        0x00000da6:    4628        (F      MOV      r0,r5
        0x00000da8:    17e9        ..      ASRS     r1,r5,#31
        0x00000daa:    0dc9        ..      LSRS     r1,r1,#23
        0x00000dac:    1809        ..      ADDS     r1,r1,r0
        0x00000dae:    124e        N.      ASRS     r6,r1,#9
        0x00000db0:    488d        .H      LDR      r0,[pc,#564] ; [0xfe8] = 0x200003bc
        0x00000db2:    3080        .0      ADDS     r0,r0,#0x80
        0x00000db4:    8b41        A.      LDRH     r1,[r0,#0x1a]
        0x00000db6:    8b00        ..      LDRH     r0,[r0,#0x18]
        0x00000db8:    4281        .B      CMP      r1,r0
        0x00000dba:    d147        G.      BNE      0xe4c ; radio_frequency_housekeeping + 426
        0x00000dbc:    2041        A       MOVS     r0,#0x41
        0x00000dbe:    00c0        ..      LSLS     r0,r0,#3
        0x00000dc0:    4286        .B      CMP      r6,r0
        0x00000dc2:    d91d        ..      BLS      0xe00 ; radio_frequency_housekeeping + 350
        0x00000dc4:    4888        .H      LDR      r0,[pc,#544] ; [0xfe8] = 0x200003bc
        0x00000dc6:    7d00        .}      LDRB     r0,[r0,#0x14]
        0x00000dc8:    380b        .8      SUBS     r0,r0,#0xb
        0x00000dca:    0081        ..      LSLS     r1,r0,#2
        0x00000dcc:    4886        .H      LDR      r0,[pc,#536] ; [0xfe8] = 0x200003bc
        0x00000dce:    3018        .0      ADDS     r0,r0,#0x18
        0x00000dd0:    5840        @X      LDR      r0,[r0,r1]
        0x00000dd2:    1c40        @.      ADDS     r0,r0,#1
        0x00000dd4:    4984        .I      LDR      r1,[pc,#528] ; [0xfe8] = 0x200003bc
        0x00000dd6:    7d09        .}      LDRB     r1,[r1,#0x14]
        0x00000dd8:    390b        .9      SUBS     r1,r1,#0xb
        0x00000dda:    008a        ..      LSLS     r2,r1,#2
        0x00000ddc:    4982        .I      LDR      r1,[pc,#520] ; [0xfe8] = 0x200003bc
        0x00000dde:    3118        .1      ADDS     r1,r1,#0x18
        0x00000de0:    5088        .P      STR      r0,[r1,r2]
        0x00000de2:    4881        .H      LDR      r0,[pc,#516] ; [0xfe8] = 0x200003bc
        0x00000de4:    7d00        .}      LDRB     r0,[r0,#0x14]
        0x00000de6:    380b        .8      SUBS     r0,r0,#0xb
        0x00000de8:    0081        ..      LSLS     r1,r0,#2
        0x00000dea:    487f        .H      LDR      r0,[pc,#508] ; [0xfe8] = 0x200003bc
        0x00000dec:    3058        X0      ADDS     r0,r0,#0x58
        0x00000dee:    5840        @X      LDR      r0,[r0,r1]
        0x00000df0:    1c40        @.      ADDS     r0,r0,#1
        0x00000df2:    497d        }I      LDR      r1,[pc,#500] ; [0xfe8] = 0x200003bc
        0x00000df4:    7d09        .}      LDRB     r1,[r1,#0x14]
        0x00000df6:    390b        .9      SUBS     r1,r1,#0xb
        0x00000df8:    008a        ..      LSLS     r2,r1,#2
        0x00000dfa:    497b        {I      LDR      r1,[pc,#492] ; [0xfe8] = 0x200003bc
        0x00000dfc:    3158        X1      ADDS     r1,r1,#0x58
        0x00000dfe:    5088        .P      STR      r0,[r1,r2]
        0x00000e00:    20ff        .       MOVS     r0,#0xff
        0x00000e02:    30e1        .0      ADDS     r0,r0,#0xe1
        0x00000e04:    4286        .B      CMP      r6,r0
        0x00000e06:    d21d        ..      BCS      0xe44 ; radio_frequency_housekeeping + 418
        0x00000e08:    4877        wH      LDR      r0,[pc,#476] ; [0xfe8] = 0x200003bc
        0x00000e0a:    7d00        .}      LDRB     r0,[r0,#0x14]
        0x00000e0c:    380b        .8      SUBS     r0,r0,#0xb
        0x00000e0e:    0081        ..      LSLS     r1,r0,#2
        0x00000e10:    4875        uH      LDR      r0,[pc,#468] ; [0xfe8] = 0x200003bc
        0x00000e12:    3018        .0      ADDS     r0,r0,#0x18
        0x00000e14:    5840        @X      LDR      r0,[r0,r1]
        0x00000e16:    1e40        @.      SUBS     r0,r0,#1
        0x00000e18:    4973        sI      LDR      r1,[pc,#460] ; [0xfe8] = 0x200003bc
        0x00000e1a:    7d09        .}      LDRB     r1,[r1,#0x14]
        0x00000e1c:    390b        .9      SUBS     r1,r1,#0xb
        0x00000e1e:    008a        ..      LSLS     r2,r1,#2
        0x00000e20:    4971        qI      LDR      r1,[pc,#452] ; [0xfe8] = 0x200003bc
        0x00000e22:    3118        .1      ADDS     r1,r1,#0x18
        0x00000e24:    5088        .P      STR      r0,[r1,r2]
        0x00000e26:    4870        pH      LDR      r0,[pc,#448] ; [0xfe8] = 0x200003bc
        0x00000e28:    7d00        .}      LDRB     r0,[r0,#0x14]
        0x00000e2a:    380b        .8      SUBS     r0,r0,#0xb
        0x00000e2c:    0081        ..      LSLS     r1,r0,#2
        0x00000e2e:    486e        nH      LDR      r0,[pc,#440] ; [0xfe8] = 0x200003bc
        0x00000e30:    3058        X0      ADDS     r0,r0,#0x58
        0x00000e32:    5840        @X      LDR      r0,[r0,r1]
        0x00000e34:    1e40        @.      SUBS     r0,r0,#1
        0x00000e36:    496c        lI      LDR      r1,[pc,#432] ; [0xfe8] = 0x200003bc
        0x00000e38:    7d09        .}      LDRB     r1,[r1,#0x14]
        0x00000e3a:    390b        .9      SUBS     r1,r1,#0xb
        0x00000e3c:    008a        ..      LSLS     r2,r1,#2
        0x00000e3e:    496a        jI      LDR      r1,[pc,#424] ; [0xfe8] = 0x200003bc
        0x00000e40:    3158        X1      ADDS     r1,r1,#0x58
        0x00000e42:    5088        .P      STR      r0,[r1,r2]
        0x00000e44:    2100        .!      MOVS     r1,#0
        0x00000e46:    4868        hH      LDR      r0,[pc,#416] ; [0xfe8] = 0x200003bc
        0x00000e48:    3080        .0      ADDS     r0,r0,#0x80
        0x00000e4a:    8341        A.      STRH     r1,[r0,#0x1a]
        0x00000e4c:    b007        ..      ADD      sp,sp,#0x1c
        0x00000e4e:    bdf0        ..      POP      {r4-r7,pc}
    radio_enable_interrupts
        0x00000e50:    2040        @       MOVS     r0,#0x40
        0x00000e52:    4966        fI      LDR      r1,[pc,#408] ; [0xfec] = 0xe000e100
        0x00000e54:    6008        .`      STR      r0,[r1,#0]
        0x00000e56:    4770        pG      BX       lr
    radio_disable_interrupts
        0x00000e58:    2040        @       MOVS     r0,#0x40
        0x00000e5a:    4964        dI      LDR      r1,[pc,#400] ; [0xfec] = 0xe000e100
        0x00000e5c:    3180        .1      ADDS     r1,r1,#0x80
        0x00000e5e:    6008        .`      STR      r0,[r1,#0]
        0x00000e60:    4770        pG      BX       lr
    radio_get_cdr_tau_value
        0x00000e62:    486d        mH      LDR      r0,[pc,#436] ; [0x1018] = 0x52640000
        0x00000e64:    8800        ..      LDRH     r0,[r0,#0]
        0x00000e66:    b200        ..      SXTH     r0,r0
        0x00000e68:    4770        pG      BX       lr
    build_RX_channel_table
        0x00000e6a:    b5f1        ..      PUSH     {r0,r4-r7,lr}
        0x00000e6c:    b0a2        ..      SUB      sp,sp,#0x88
        0x00000e6e:    2140        @!      MOVS     r1,#0x40
        0x00000e70:    a812        ..      ADD      r0,sp,#0x48
        0x00000e72:    f004fb57    ..W.    BL       __aeabi_memclr4 ; 0x5524
        0x00000e76:    2144        D!      MOVS     r1,#0x44
        0x00000e78:    a801        ..      ADD      r0,sp,#4
        0x00000e7a:    f004fb53    ..S.    BL       __aeabi_memclr4 ; 0x5524
        0x00000e7e:    495a        ZI      LDR      r1,[pc,#360] ; [0xfe8] = 0x200003bc
        0x00000e80:    9822        ".      LDR      r0,[sp,#0x88]
        0x00000e82:    6188        .a      STR      r0,[r1,#0x18]
        0x00000e84:    2400        .$      MOVS     r4,#0
        0x00000e86:    e05b        [.      B        0xf40 ; build_RX_channel_table + 214
        0x00000e88:    00a2        ..      LSLS     r2,r4,#2
        0x00000e8a:    4957        WI      LDR      r1,[pc,#348] ; [0xfe8] = 0x200003bc
        0x00000e8c:    3118        .1      ADDS     r1,r1,#0x18
        0x00000e8e:    5888        .X      LDR      r0,[r1,r2]
        0x00000e90:    f002f828    ..(.    BL       LC_monotonic ; 0x2ee4
        0x00000e94:    2000        .       MOVS     r0,#0
        0x00000e96:    2129        )!      MOVS     r1,#0x29
        0x00000e98:    0649        I.      LSLS     r1,r1,#25
        0x00000e9a:    6008        .`      STR      r0,[r1,#0]
        0x00000e9c:    485f        _H      LDR      r0,[pc,#380] ; [0x101c] = 0x3fff
        0x00000e9e:    6008        .`      STR      r0,[r1,#0]
        0x00000ea0:    2701        .'      MOVS     r7,#1
        0x00000ea2:    e000        ..      B        0xea6 ; build_RX_channel_table + 60
        0x00000ea4:    1c7f        ..      ADDS     r7,r7,#1
        0x00000ea6:    207d        }       MOVS     r0,#0x7d
        0x00000ea8:    01c0        ..      LSLS     r0,r0,#7
        0x00000eaa:    4287        .B      CMP      r7,r0
        0x00000eac:    d3fa        ..      BCC      0xea4 ; build_RX_channel_table + 58
        0x00000eae:    207f        .       MOVS     r0,#0x7f
        0x00000eb0:    2129        )!      MOVS     r1,#0x29
        0x00000eb2:    0649        I.      LSLS     r1,r1,#25
        0x00000eb4:    6008        .`      STR      r0,[r1,#0]
        0x00000eb6:    485a        ZH      LDR      r0,[pc,#360] ; [0x1020] = 0x52280000
        0x00000eb8:    6805        .h      LDR      r5,[r0,#0]
        0x00000eba:    485a        ZH      LDR      r0,[pc,#360] ; [0x1024] = 0x522c0000
        0x00000ebc:    6806        .h      LDR      r6,[r0,#0]
        0x00000ebe:    0430        0.      LSLS     r0,r6,#16
        0x00000ec0:    1940        @.      ADDS     r0,r0,r5
        0x00000ec2:    00a1        ..      LSLS     r1,r4,#2
        0x00000ec4:    aa12        ..      ADD      r2,sp,#0x48
        0x00000ec6:    5050        PP      STR      r0,[r2,r1]
        0x00000ec8:    1c61        a.      ADDS     r1,r4,#1
        0x00000eca:    0049        I.      LSLS     r1,r1,#1
        0x00000ecc:    4a45        EJ      LDR      r2,[pc,#276] ; [0xfe4] = 0x2c3
        0x00000ece:    32fe        .2      ADDS     r2,r2,#0xfe
        0x00000ed0:    1889        ..      ADDS     r1,r1,r2
        0x00000ed2:    9a12        ..      LDR      r2,[sp,#0x48]
        0x00000ed4:    4351        QC      MULS     r1,r2,r1
        0x00000ed6:    4608        .F      MOV      r0,r1
        0x00000ed8:    4942        BI      LDR      r1,[pc,#264] ; [0xfe4] = 0x2c3
        0x00000eda:    31fe        .1      ADDS     r1,r1,#0xfe
        0x00000edc:    f004fb24    ..$.    BL       __aeabi_uidiv ; 0x5528
        0x00000ee0:    1c61        a.      ADDS     r1,r4,#1
        0x00000ee2:    0089        ..      LSLS     r1,r1,#2
        0x00000ee4:    aa01        ..      ADD      r2,sp,#4
        0x00000ee6:    5050        PP      STR      r0,[r2,r1]
        0x00000ee8:    2c00        .,      CMP      r4,#0
        0x00000eea:    dd1c        ..      BLE      0xf26 ; build_RX_channel_table + 188
        0x00000eec:    00a0        ..      LSLS     r0,r4,#2
        0x00000eee:    a912        ..      ADD      r1,sp,#0x48
        0x00000ef0:    5809        .X      LDR      r1,[r1,r0]
        0x00000ef2:    00a0        ..      LSLS     r0,r4,#2
        0x00000ef4:    5810        .X      LDR      r0,[r2,r0]
        0x00000ef6:    3814        .8      SUBS     r0,r0,#0x14
        0x00000ef8:    4281        .B      CMP      r1,r0
        0x00000efa:    d209        ..      BCS      0xf10 ; build_RX_channel_table + 166
        0x00000efc:    00a1        ..      LSLS     r1,r4,#2
        0x00000efe:    483a        :H      LDR      r0,[pc,#232] ; [0xfe8] = 0x200003bc
        0x00000f00:    3018        .0      ADDS     r0,r0,#0x18
        0x00000f02:    5840        @X      LDR      r0,[r0,r1]
        0x00000f04:    1c40        @.      ADDS     r0,r0,#1
        0x00000f06:    00a2        ..      LSLS     r2,r4,#2
        0x00000f08:    4937        7I      LDR      r1,[pc,#220] ; [0xfe8] = 0x200003bc
        0x00000f0a:    3118        .1      ADDS     r1,r1,#0x18
        0x00000f0c:    5088        .P      STR      r0,[r1,r2]
        0x00000f0e:    e00a        ..      B        0xf26 ; build_RX_channel_table + 188
        0x00000f10:    00a1        ..      LSLS     r1,r4,#2
        0x00000f12:    4835        5H      LDR      r0,[pc,#212] ; [0xfe8] = 0x200003bc
        0x00000f14:    3018        .0      ADDS     r0,r0,#0x18
        0x00000f16:    5840        @X      LDR      r0,[r0,r1]
        0x00000f18:    3028        (0      ADDS     r0,r0,#0x28
        0x00000f1a:    1c61        a.      ADDS     r1,r4,#1
        0x00000f1c:    008a        ..      LSLS     r2,r1,#2
        0x00000f1e:    4932        2I      LDR      r1,[pc,#200] ; [0xfe8] = 0x200003bc
        0x00000f20:    3118        .1      ADDS     r1,r1,#0x18
        0x00000f22:    5088        .P      STR      r0,[r1,r2]
        0x00000f24:    1c64        d.      ADDS     r4,r4,#1
        0x00000f26:    2c00        .,      CMP      r4,#0
        0x00000f28:    d10a        ..      BNE      0xf40 ; build_RX_channel_table + 214
        0x00000f2a:    00a1        ..      LSLS     r1,r4,#2
        0x00000f2c:    482e        .H      LDR      r0,[pc,#184] ; [0xfe8] = 0x200003bc
        0x00000f2e:    3018        .0      ADDS     r0,r0,#0x18
        0x00000f30:    5840        @X      LDR      r0,[r0,r1]
        0x00000f32:    3028        (0      ADDS     r0,r0,#0x28
        0x00000f34:    1c61        a.      ADDS     r1,r4,#1
        0x00000f36:    008a        ..      LSLS     r2,r1,#2
        0x00000f38:    492b        +I      LDR      r1,[pc,#172] ; [0xfe8] = 0x200003bc
        0x00000f3a:    3118        .1      ADDS     r1,r1,#0x18
        0x00000f3c:    5088        .P      STR      r0,[r1,r2]
        0x00000f3e:    1c64        d.      ADDS     r4,r4,#1
        0x00000f40:    2c10        .,      CMP      r4,#0x10
        0x00000f42:    dba1        ..      BLT      0xe88 ; build_RX_channel_table + 30
        0x00000f44:    2400        .$      MOVS     r4,#0
        0x00000f46:    e000        ..      B        0xf4a ; build_RX_channel_table + 224
        0x00000f48:    1c64        d.      ADDS     r4,r4,#1
        0x00000f4a:    2c10        .,      CMP      r4,#0x10
        0x00000f4c:    dbfc        ..      BLT      0xf48 ; build_RX_channel_table + 222
        0x00000f4e:    9812        ..      LDR      r0,[sp,#0x48]
        0x00000f50:    b023        #.      ADD      sp,sp,#0x8c
        0x00000f52:    bdf0        ..      POP      {r4-r7,pc}
    build_TX_channel_table
        0x00000f54:    b5f0        ..      PUSH     {r4-r7,lr}
        0x00000f56:    b0b3        ..      SUB      sp,sp,#0xcc
        0x00000f58:    4605        .F      MOV      r5,r0
        0x00000f5a:    460e        .F      MOV      r6,r1
        0x00000f5c:    2400        .$      MOVS     r4,#0
        0x00000f5e:    2140        @!      MOVS     r1,#0x40
        0x00000f60:    a821        !.      ADD      r0,sp,#0x84
        0x00000f62:    f004fadf    ....    BL       __aeabi_memclr4 ; 0x5524
        0x00000f66:    2144        D!      MOVS     r1,#0x44
        0x00000f68:    a810        ..      ADD      r0,sp,#0x40
        0x00000f6a:    f004fadb    ....    BL       __aeabi_memclr4 ; 0x5524
        0x00000f6e:    2220         "      MOVS     r2,#0x20
        0x00000f70:    492d        -I      LDR      r1,[pc,#180] ; [0x1028] = 0x59dc
        0x00000f72:    a808        ..      ADD      r0,sp,#0x20
        0x00000f74:    f7fff8f2    ....    BL       __aeabi_memcpy4 ; 0x15c
        0x00000f78:    2220         "      MOVS     r2,#0x20
        0x00000f7a:    492b        +I      LDR      r1,[pc,#172] ; [0x1028] = 0x59dc
        0x00000f7c:    3120         1      ADDS     r1,r1,#0x20
        0x00000f7e:    4668        hF      MOV      r0,sp
        0x00000f80:    f7fff8ec    ....    BL       __aeabi_memcpy4 ; 0x15c
        0x00000f84:    4818        .H      LDR      r0,[pc,#96] ; [0xfe8] = 0x200003bc
        0x00000f86:    6585        .e      STR      r5,[r0,#0x58]
        0x00000f88:    e072        r.      B        0x1070 ; build_TX_channel_table + 284
        0x00000f8a:    00a2        ..      LSLS     r2,r4,#2
        0x00000f8c:    4916        .I      LDR      r1,[pc,#88] ; [0xfe8] = 0x200003bc
        0x00000f8e:    3158        X1      ADDS     r1,r1,#0x58
        0x00000f90:    5888        .X      LDR      r0,[r1,r2]
        0x00000f92:    f001ffa7    ....    BL       LC_monotonic ; 0x2ee4
        0x00000f96:    2000        .       MOVS     r0,#0
        0x00000f98:    2129        )!      MOVS     r1,#0x29
        0x00000f9a:    0649        I.      LSLS     r1,r1,#25
        0x00000f9c:    6008        .`      STR      r0,[r1,#0]
        0x00000f9e:    481f        .H      LDR      r0,[pc,#124] ; [0x101c] = 0x3fff
        0x00000fa0:    6008        .`      STR      r0,[r1,#0]
        0x00000fa2:    2001        .       MOVS     r0,#1
        0x00000fa4:    9031        1.      STR      r0,[sp,#0xc4]
        0x00000fa6:    e002        ..      B        0xfae ; build_TX_channel_table + 90
        0x00000fa8:    9831        1.      LDR      r0,[sp,#0xc4]
        0x00000faa:    1c40        @.      ADDS     r0,r0,#1
        0x00000fac:    9031        1.      STR      r0,[sp,#0xc4]
        0x00000fae:    217d        }!      MOVS     r1,#0x7d
        0x00000fb0:    01c9        ..      LSLS     r1,r1,#7
        0x00000fb2:    9831        1.      LDR      r0,[sp,#0xc4]
        0x00000fb4:    4288        .B      CMP      r0,r1
        0x00000fb6:    dbf7        ..      BLT      0xfa8 ; build_TX_channel_table + 84
        0x00000fb8:    207f        .       MOVS     r0,#0x7f
        0x00000fba:    2129        )!      MOVS     r1,#0x29
        0x00000fbc:    0649        I.      LSLS     r1,r1,#25
        0x00000fbe:    6008        .`      STR      r0,[r1,#0]
        0x00000fc0:    4817        .H      LDR      r0,[pc,#92] ; [0x1020] = 0x52280000
        0x00000fc2:    6807        .h      LDR      r7,[r0,#0]
        0x00000fc4:    4817        .H      LDR      r0,[pc,#92] ; [0x1024] = 0x522c0000
        0x00000fc6:    6800        .h      LDR      r0,[r0,#0]
        0x00000fc8:    9032        2.      STR      r0,[sp,#0xc8]
        0x00000fca:    9832        2.      LDR      r0,[sp,#0xc8]
        0x00000fcc:    0400        ..      LSLS     r0,r0,#16
        0x00000fce:    19c0        ..      ADDS     r0,r0,r7
        0x00000fd0:    00a1        ..      LSLS     r1,r4,#2
        0x00000fd2:    aa21        !.      ADD      r2,sp,#0x84
        0x00000fd4:    5050        PP      STR      r0,[r2,r1]
        0x00000fd6:    0062        b.      LSLS     r2,r4,#1
        0x00000fd8:    466b        kF      MOV      r3,sp
        0x00000fda:    5a99        .Z      LDRH     r1,[r3,r2]
        0x00000fdc:    0062        b.      LSLS     r2,r4,#1
        0x00000fde:    e025        %.      B        0x102c ; build_TX_channel_table + 216
    $d
        0x00000fe0:    200002bc    ...     DCD    536871612
        0x00000fe4:    000002c3    ....    DCD    707
        0x00000fe8:    200003bc    ...     DCD    536871868
        0x00000fec:    e000e100    ....    DCD    3758153984
        0x00000ff0:    000008af    ....    DCD    2223
        0x00000ff4:    000008b1    ....    DCD    2225
        0x00000ff8:    000008c1    ....    DCD    2241
        0x00000ffc:    00000919    ....    DCD    2329
        0x00001000:    00000ae1    ....    DCD    2785
        0x00001004:    00003d09    .=..    DCD    15625
        0x00001008:    200002a4    ...     DCD    536871588
        0x0000100c:    20000018    ...     DCD    536870936
        0x00001010:    fffffc18    ....    DCD    4294966296
        0x00001014:    20000024    $..     DCD    536870948
        0x00001018:    52640000    ..dR    DCD    1382285312
        0x0000101c:    00003fff    .?..    DCD    16383
        0x00001020:    52280000    ..(R    DCD    1378353152
        0x00001024:    522c0000    ..,R    DCD    1378615296
        0x00001028:    000059dc    .Y..    DCD    23004
    $t
        0x0000102c:    ab08        ..      ADD      r3,sp,#0x20
        0x0000102e:    5a9a        .Z      LDRH     r2,[r3,r2]
        0x00001030:    4372        rC      MULS     r2,r6,r2
        0x00001032:    4610        .F      MOV      r0,r2
        0x00001034:    f004fa78    ..x.    BL       __aeabi_uidiv ; 0x5528
        0x00001038:    00a1        ..      LSLS     r1,r4,#2
        0x0000103a:    aa10        ..      ADD      r2,sp,#0x40
        0x0000103c:    5050        PP      STR      r0,[r2,r1]
        0x0000103e:    00a0        ..      LSLS     r0,r4,#2
        0x00001040:    a921        !.      ADD      r1,sp,#0x84
        0x00001042:    5809        .X      LDR      r1,[r1,r0]
        0x00001044:    00a0        ..      LSLS     r0,r4,#2
        0x00001046:    5810        .X      LDR      r0,[r2,r0]
        0x00001048:    1f40        @.      SUBS     r0,r0,#5
        0x0000104a:    4281        .B      CMP      r1,r0
        0x0000104c:    d207        ..      BCS      0x105e ; build_TX_channel_table + 266
        0x0000104e:    00a1        ..      LSLS     r1,r4,#2
        0x00001050:    4898        .H      LDR      r0,[pc,#608] ; [0x12b4] = 0x20000414
        0x00001052:    5840        @X      LDR      r0,[r0,r1]
        0x00001054:    1c40        @.      ADDS     r0,r0,#1
        0x00001056:    00a2        ..      LSLS     r2,r4,#2
        0x00001058:    4996        .I      LDR      r1,[pc,#600] ; [0x12b4] = 0x20000414
        0x0000105a:    5088        .P      STR      r0,[r1,r2]
        0x0000105c:    e008        ..      B        0x1070 ; build_TX_channel_table + 284
        0x0000105e:    00a1        ..      LSLS     r1,r4,#2
        0x00001060:    4894        .H      LDR      r0,[pc,#592] ; [0x12b4] = 0x20000414
        0x00001062:    5840        @X      LDR      r0,[r0,r1]
        0x00001064:    3028        (0      ADDS     r0,r0,#0x28
        0x00001066:    1c61        a.      ADDS     r1,r4,#1
        0x00001068:    008a        ..      LSLS     r2,r1,#2
        0x0000106a:    4992        .I      LDR      r1,[pc,#584] ; [0x12b4] = 0x20000414
        0x0000106c:    5088        .P      STR      r0,[r1,r2]
        0x0000106e:    1c64        d.      ADDS     r4,r4,#1
        0x00001070:    2c10        .,      CMP      r4,#0x10
        0x00001072:    db8a        ..      BLT      0xf8a ; build_TX_channel_table + 54
        0x00001074:    b033        3.      ADD      sp,sp,#0xcc
        0x00001076:    bdf0        ..      POP      {r4-r7,pc}
    radio_build_channel_table
        0x00001078:    b570        p.      PUSH     {r4-r6,lr}
        0x0000107a:    4604        .F      MOV      r4,r0
        0x0000107c:    4620         F      MOV      r0,r4
        0x0000107e:    f7fffef4    ....    BL       build_RX_channel_table ; 0xe6a
        0x00001082:    4605        .F      MOV      r5,r0
        0x00001084:    488c        .H      LDR      r0,[pc,#560] ; [0x12b8] = 0x3cb
        0x00001086:    f000fe85    ....    BL       clear_asc_bit ; 0x1d94
        0x0000108a:    20ff        .       MOVS     r0,#0xff
        0x0000108c:    302b        +0      ADDS     r0,r0,#0x2b
        0x0000108e:    f000fe91    ....    BL       set_asc_bit ; 0x1db4
        0x00001092:    20ff        .       MOVS     r0,#0xff
        0x00001094:    3034        40      ADDS     r0,r0,#0x34
        0x00001096:    f000fe8d    ....    BL       set_asc_bit ; 0x1db4
        0x0000109a:    20ff        .       MOVS     r0,#0xff
        0x0000109c:    30f9        .0      ADDS     r0,r0,#0xf9
        0x0000109e:    f000fe79    ..y.    BL       clear_asc_bit ; 0x1d94
        0x000010a2:    20ff        .       MOVS     r0,#0xff
        0x000010a4:    30fb        .0      ADDS     r0,r0,#0xfb
        0x000010a6:    f000fe85    ....    BL       set_asc_bit ; 0x1db4
        0x000010aa:    20ff        .       MOVS     r0,#0xff
        0x000010ac:    30fd        .0      ADDS     r0,r0,#0xfd
        0x000010ae:    f000fe81    ....    BL       set_asc_bit ; 0x1db4
        0x000010b2:    4629        )F      MOV      r1,r5
        0x000010b4:    4620         F      MOV      r0,r4
        0x000010b6:    f7ffff4d    ..M.    BL       build_TX_channel_table ; 0xf54
        0x000010ba:    f7fffb65    ..e.    BL       radio_rfOff ; 0x788
        0x000010be:    bd70        p.      POP      {r4-r6,pc}
    radio_isr
        0x000010c0:    b570        p.      PUSH     {r4-r6,lr}
        0x000010c2:    2001        .       MOVS     r0,#1
        0x000010c4:    0780        ..      LSLS     r0,r0,#30
        0x000010c6:    6904        .i      LDR      r4,[r0,#0x10]
        0x000010c8:    69c5        .i      LDR      r5,[r0,#0x1c]
        0x000010ca:    f000fae0    ....    BL       gpio_2_set ; 0x168e
        0x000010ce:    f000fb1a    ....    BL       gpio_6_set ; 0x1706
        0x000010d2:    2101        .!      MOVS     r1,#1
        0x000010d4:    4877        wH      LDR      r0,[pc,#476] ; [0x12b4] = 0x20000414
        0x000010d6:    3858        X8      SUBS     r0,r0,#0x58
        0x000010d8:    7541        Au      STRB     r1,[r0,#0x15]
        0x000010da:    2d00        .-      CMP      r5,#0
        0x000010dc:    d008        ..      BEQ      0x10f0 ; radio_isr + 48
        0x000010de:    2008        .       MOVS     r0,#8
        0x000010e0:    4028        (@      ANDS     r0,r0,r5
        0x000010e2:    2800        .(      CMP      r0,#0
        0x000010e4:    d003        ..      BEQ      0x10ee ; radio_isr + 46
        0x000010e6:    2100        .!      MOVS     r1,#0
        0x000010e8:    4872        rH      LDR      r0,[pc,#456] ; [0x12b4] = 0x20000414
        0x000010ea:    3858        X8      SUBS     r0,r0,#0x58
        0x000010ec:    7541        Au      STRB     r1,[r0,#0x15]
        0x000010ee:    bf00        ..      NOP      
        0x000010f0:    2001        .       MOVS     r0,#1
        0x000010f2:    0780        ..      LSLS     r0,r0,#30
        0x000010f4:    6245        Eb      STR      r5,[r0,#0x24]
        0x000010f6:    07e0        ..      LSLS     r0,r4,#31
        0x000010f8:    0fc0        ..      LSRS     r0,r0,#31
        0x000010fa:    2800        .(      CMP      r0,#0
        0x000010fc:    d006        ..      BEQ      0x110c ; radio_isr + 76
        0x000010fe:    2001        .       MOVS     r0,#1
        0x00001100:    0780        ..      LSLS     r0,r0,#30
        0x00001102:    6980        .i      LDR      r0,[r0,#0x18]
        0x00001104:    2101        .!      MOVS     r1,#1
        0x00001106:    4308        .C      ORRS     r0,r0,r1
        0x00001108:    0789        ..      LSLS     r1,r1,#30
        0x0000110a:    6188        .a      STR      r0,[r1,#0x18]
        0x0000110c:    2002        .       MOVS     r0,#2
        0x0000110e:    4020         @      ANDS     r0,r0,r4
        0x00001110:    2800        .(      CMP      r0,#0
        0x00001112:    d010        ..      BEQ      0x1136 ; radio_isr + 118
        0x00001114:    4869        iH      LDR      r0,[pc,#420] ; [0x12bc] = 0x200002bc
        0x00001116:    6840        @h      LDR      r0,[r0,#4]
        0x00001118:    2800        .(      CMP      r0,#0
        0x0000111a:    d005        ..      BEQ      0x1128 ; radio_isr + 104
        0x0000111c:    2221        !"      MOVS     r2,#0x21
        0x0000111e:    0652        R.      LSLS     r2,r2,#25
        0x00001120:    6850        Ph      LDR      r0,[r2,#4]
        0x00001122:    4a66        fJ      LDR      r2,[pc,#408] ; [0x12bc] = 0x200002bc
        0x00001124:    6851        Qh      LDR      r1,[r2,#4]
        0x00001126:    4788        .G      BLX      r1
        0x00001128:    2001        .       MOVS     r0,#1
        0x0000112a:    0780        ..      LSLS     r0,r0,#30
        0x0000112c:    6980        .i      LDR      r0,[r0,#0x18]
        0x0000112e:    2102        .!      MOVS     r1,#2
        0x00001130:    4308        .C      ORRS     r0,r0,r1
        0x00001132:    0749        I.      LSLS     r1,r1,#29
        0x00001134:    6188        .a      STR      r0,[r1,#0x18]
        0x00001136:    2004        .       MOVS     r0,#4
        0x00001138:    4020         @      ANDS     r0,r0,r4
        0x0000113a:    2800        .(      CMP      r0,#0
        0x0000113c:    d010        ..      BEQ      0x1160 ; radio_isr + 160
        0x0000113e:    485f        _H      LDR      r0,[pc,#380] ; [0x12bc] = 0x200002bc
        0x00001140:    6880        .h      LDR      r0,[r0,#8]
        0x00001142:    2800        .(      CMP      r0,#0
        0x00001144:    d005        ..      BEQ      0x1152 ; radio_isr + 146
        0x00001146:    2221        !"      MOVS     r2,#0x21
        0x00001148:    0652        R.      LSLS     r2,r2,#25
        0x0000114a:    6850        Ph      LDR      r0,[r2,#4]
        0x0000114c:    4a5b        [J      LDR      r2,[pc,#364] ; [0x12bc] = 0x200002bc
        0x0000114e:    6891        .h      LDR      r1,[r2,#8]
        0x00001150:    4788        .G      BLX      r1
        0x00001152:    2001        .       MOVS     r0,#1
        0x00001154:    0780        ..      LSLS     r0,r0,#30
        0x00001156:    6980        .i      LDR      r0,[r0,#0x18]
        0x00001158:    2104        .!      MOVS     r1,#4
        0x0000115a:    4308        .C      ORRS     r0,r0,r1
        0x0000115c:    0709        ..      LSLS     r1,r1,#28
        0x0000115e:    6188        .a      STR      r0,[r1,#0x18]
        0x00001160:    2008        .       MOVS     r0,#8
        0x00001162:    4020         @      ANDS     r0,r0,r4
        0x00001164:    2800        .(      CMP      r0,#0
        0x00001166:    d010        ..      BEQ      0x118a ; radio_isr + 202
        0x00001168:    4854        TH      LDR      r0,[pc,#336] ; [0x12bc] = 0x200002bc
        0x0000116a:    68c0        .h      LDR      r0,[r0,#0xc]
        0x0000116c:    2800        .(      CMP      r0,#0
        0x0000116e:    d005        ..      BEQ      0x117c ; radio_isr + 188
        0x00001170:    2221        !"      MOVS     r2,#0x21
        0x00001172:    0652        R.      LSLS     r2,r2,#25
        0x00001174:    6850        Ph      LDR      r0,[r2,#4]
        0x00001176:    4a51        QJ      LDR      r2,[pc,#324] ; [0x12bc] = 0x200002bc
        0x00001178:    68d1        .h      LDR      r1,[r2,#0xc]
        0x0000117a:    4788        .G      BLX      r1
        0x0000117c:    2001        .       MOVS     r0,#1
        0x0000117e:    0780        ..      LSLS     r0,r0,#30
        0x00001180:    6980        .i      LDR      r0,[r0,#0x18]
        0x00001182:    2108        .!      MOVS     r1,#8
        0x00001184:    4308        .C      ORRS     r0,r0,r1
        0x00001186:    06c9        ..      LSLS     r1,r1,#27
        0x00001188:    6188        .a      STR      r0,[r1,#0x18]
        0x0000118a:    2010        .       MOVS     r0,#0x10
        0x0000118c:    4020         @      ANDS     r0,r0,r4
        0x0000118e:    2800        .(      CMP      r0,#0
        0x00001190:    d010        ..      BEQ      0x11b4 ; radio_isr + 244
        0x00001192:    484a        JH      LDR      r0,[pc,#296] ; [0x12bc] = 0x200002bc
        0x00001194:    6900        .i      LDR      r0,[r0,#0x10]
        0x00001196:    2800        .(      CMP      r0,#0
        0x00001198:    d005        ..      BEQ      0x11a6 ; radio_isr + 230
        0x0000119a:    2221        !"      MOVS     r2,#0x21
        0x0000119c:    0652        R.      LSLS     r2,r2,#25
        0x0000119e:    6850        Ph      LDR      r0,[r2,#4]
        0x000011a0:    4a46        FJ      LDR      r2,[pc,#280] ; [0x12bc] = 0x200002bc
        0x000011a2:    6911        .i      LDR      r1,[r2,#0x10]
        0x000011a4:    4788        .G      BLX      r1
        0x000011a6:    2001        .       MOVS     r0,#1
        0x000011a8:    0780        ..      LSLS     r0,r0,#30
        0x000011aa:    6980        .i      LDR      r0,[r0,#0x18]
        0x000011ac:    2110        .!      MOVS     r1,#0x10
        0x000011ae:    4308        .C      ORRS     r0,r0,r1
        0x000011b0:    0689        ..      LSLS     r1,r1,#26
        0x000011b2:    6188        .a      STR      r0,[r1,#0x18]
        0x000011b4:    f000fa70    ..p.    BL       gpio_2_clr ; 0x1698
        0x000011b8:    f000faaa    ....    BL       gpio_6_clr ; 0x1710
        0x000011bc:    bd70        p.      POP      {r4-r6,pc}
    rawchips_32_isr
        0x000011be:    b570        p.      PUSH     {r4-r6,lr}
        0x000011c0:    483f        ?H      LDR      r0,[pc,#252] ; [0x12c0] = 0x52440000
        0x000011c2:    6805        .h      LDR      r5,[r0,#0]
        0x000011c4:    483f        ?H      LDR      r0,[pc,#252] ; [0x12c4] = 0x52480000
        0x000011c6:    6806        .h      LDR      r6,[r0,#0]
        0x000011c8:    0430        0.      LSLS     r0,r6,#16
        0x000011ca:    1940        @.      ADDS     r0,r0,r5
        0x000011cc:    493e        >I      LDR      r1,[pc,#248] ; [0x12c8] = 0x20000008
        0x000011ce:    6809        .h      LDR      r1,[r1,#0]
        0x000011d0:    0089        ..      LSLS     r1,r1,#2
        0x000011d2:    4a3e        >J      LDR      r2,[pc,#248] ; [0x12cc] = 0x20000114
        0x000011d4:    5050        PP      STR      r0,[r2,r1]
        0x000011d6:    483c        <H      LDR      r0,[pc,#240] ; [0x12c8] = 0x20000008
        0x000011d8:    6800        .h      LDR      r0,[r0,#0]
        0x000011da:    1c40        @.      ADDS     r0,r0,#1
        0x000011dc:    493a        :I      LDR      r1,[pc,#232] ; [0x12c8] = 0x20000008
        0x000011de:    6008        .`      STR      r0,[r1,#0]
        0x000011e0:    483b        ;H      LDR      r0,[pc,#236] ; [0x12d0] = 0x20000014
        0x000011e2:    6800        .h      LDR      r0,[r0,#0]
        0x000011e4:    2120         !      MOVS     r1,#0x20
        0x000011e6:    4308        .C      ORRS     r0,r0,r1
        0x000011e8:    4939        9I      LDR      r1,[pc,#228] ; [0x12d0] = 0x20000014
        0x000011ea:    6008        .`      STR      r0,[r1,#0]
        0x000011ec:    4608        .F      MOV      r0,r1
        0x000011ee:    6800        .h      LDR      r0,[r0,#0]
        0x000011f0:    4938        8I      LDR      r1,[pc,#224] ; [0x12d4] = 0x520c0000
        0x000011f2:    6008        .`      STR      r0,[r1,#0]
        0x000011f4:    4836        6H      LDR      r0,[pc,#216] ; [0x12d0] = 0x20000014
        0x000011f6:    6800        .h      LDR      r0,[r0,#0]
        0x000011f8:    2120         !      MOVS     r1,#0x20
        0x000011fa:    4388        .C      BICS     r0,r0,r1
        0x000011fc:    4934        4I      LDR      r1,[pc,#208] ; [0x12d0] = 0x20000014
        0x000011fe:    6008        .`      STR      r0,[r1,#0]
        0x00001200:    4608        .F      MOV      r0,r1
        0x00001202:    6800        .h      LDR      r0,[r0,#0]
        0x00001204:    4933        3I      LDR      r1,[pc,#204] ; [0x12d4] = 0x520c0000
        0x00001206:    6008        .`      STR      r0,[r1,#0]
        0x00001208:    482f        /H      LDR      r0,[pc,#188] ; [0x12c8] = 0x20000008
        0x0000120a:    6800        .h      LDR      r0,[r0,#0]
        0x0000120c:    280a        .(      CMP      r0,#0xa
        0x0000120e:    d11e        ..      BNE      0x124e ; rawchips_32_isr + 144
        0x00001210:    2401        .$      MOVS     r4,#1
        0x00001212:    e006        ..      B        0x1222 ; rawchips_32_isr + 100
        0x00001214:    00a0        ..      LSLS     r0,r4,#2
        0x00001216:    4a2d        -J      LDR      r2,[pc,#180] ; [0x12cc] = 0x20000114
        0x00001218:    5811        .X      LDR      r1,[r2,r0]
        0x0000121a:    a02f        /.      ADR      r0,{pc}+0xbe ; 0x12d8
        0x0000121c:    f004f81c    ....    BL       __2printf ; 0x5258
        0x00001220:    1c64        d.      ADDS     r4,r4,#1
        0x00001222:    2c0a        .,      CMP      r4,#0xa
        0x00001224:    d3f6        ..      BCC      0x1214 ; rawchips_32_isr + 86
        0x00001226:    20ff        .       MOVS     r0,#0xff
        0x00001228:    3001        .0      ADDS     r0,#1
        0x0000122a:    492d        -I      LDR      r1,[pc,#180] ; [0x12e0] = 0xe000e180
        0x0000122c:    6008        .`      STR      r0,[r1,#0]
        0x0000122e:    0040        @.      LSLS     r0,r0,#1
        0x00001230:    492b        +I      LDR      r1,[pc,#172] ; [0x12e0] = 0xe000e180
        0x00001232:    3980        .9      SUBS     r1,r1,#0x80
        0x00001234:    6008        .`      STR      r0,[r1,#0]
        0x00001236:    2000        .       MOVS     r0,#0
        0x00001238:    4923        #I      LDR      r1,[pc,#140] ; [0x12c8] = 0x20000008
        0x0000123a:    6008        .`      STR      r0,[r1,#0]
        0x0000123c:    2400        .$      MOVS     r4,#0
        0x0000123e:    e000        ..      B        0x1242 ; rawchips_32_isr + 132
        0x00001240:    1c64        d.      ADDS     r4,r4,#1
        0x00001242:    4828        (H      LDR      r0,[pc,#160] ; [0x12e4] = 0x2710
        0x00001244:    4284        .B      CMP      r4,r0
        0x00001246:    d3fb        ..      BCC      0x1240 ; rawchips_32_isr + 130
        0x00001248:    4827        'H      LDR      r0,[pc,#156] ; [0x12e8] = 0x5fa0004
        0x0000124a:    4928        (I      LDR      r1,[pc,#160] ; [0x12ec] = 0xe000ed00
        0x0000124c:    60c8        .`      STR      r0,[r1,#0xc]
        0x0000124e:    bd70        p.      POP      {r4-r6,pc}
    rawchips_startval_isr
        0x00001250:    b510        ..      PUSH     {r4,lr}
        0x00001252:    4a1f        .J      LDR      r2,[pc,#124] ; [0x12d0] = 0x20000014
        0x00001254:    6812        .h      LDR      r2,[r2,#0]
        0x00001256:    2360        `#      MOVS     r3,#0x60
        0x00001258:    431a        .C      ORRS     r2,r2,r3
        0x0000125a:    4b1d        .K      LDR      r3,[pc,#116] ; [0x12d0] = 0x20000014
        0x0000125c:    601a        .`      STR      r2,[r3,#0]
        0x0000125e:    461a        .F      MOV      r2,r3
        0x00001260:    6812        .h      LDR      r2,[r2,#0]
        0x00001262:    4b1c        .K      LDR      r3,[pc,#112] ; [0x12d4] = 0x520c0000
        0x00001264:    601a        .`      STR      r2,[r3,#0]
        0x00001266:    4a1a        .J      LDR      r2,[pc,#104] ; [0x12d0] = 0x20000014
        0x00001268:    6812        .h      LDR      r2,[r2,#0]
        0x0000126a:    2360        `#      MOVS     r3,#0x60
        0x0000126c:    439a        .C      BICS     r2,r2,r3
        0x0000126e:    4b18        .K      LDR      r3,[pc,#96] ; [0x12d0] = 0x20000014
        0x00001270:    601a        .`      STR      r2,[r3,#0]
        0x00001272:    461a        .F      MOV      r2,r3
        0x00001274:    6812        .h      LDR      r2,[r2,#0]
        0x00001276:    4b17        .K      LDR      r3,[pc,#92] ; [0x12d4] = 0x520c0000
        0x00001278:    601a        .`      STR      r2,[r3,#0]
        0x0000127a:    2201        ."      MOVS     r2,#1
        0x0000127c:    0252        R.      LSLS     r2,r2,#9
        0x0000127e:    4b18        .K      LDR      r3,[pc,#96] ; [0x12e0] = 0xe000e180
        0x00001280:    3b80        .;      SUBS     r3,r3,#0x80
        0x00001282:    601a        .`      STR      r2,[r3,#0]
        0x00001284:    1052        R.      ASRS     r2,r2,#1
        0x00001286:    4b16        .K      LDR      r3,[pc,#88] ; [0x12e0] = 0xe000e180
        0x00001288:    601a        .`      STR      r2,[r3,#0]
        0x0000128a:    0052        R.      LSLS     r2,r2,#1
        0x0000128c:    4b18        .K      LDR      r3,[pc,#96] ; [0x12f0] = 0xe000e280
        0x0000128e:    601a        .`      STR      r2,[r3,#0]
        0x00001290:    4a0b        .J      LDR      r2,[pc,#44] ; [0x12c0] = 0x52440000
        0x00001292:    6810        .h      LDR      r0,[r2,#0]
        0x00001294:    4a0b        .J      LDR      r2,[pc,#44] ; [0x12c4] = 0x52480000
        0x00001296:    6811        .h      LDR      r1,[r2,#0]
        0x00001298:    040a        ..      LSLS     r2,r1,#16
        0x0000129a:    1812        ..      ADDS     r2,r2,r0
        0x0000129c:    4b0a        .K      LDR      r3,[pc,#40] ; [0x12c8] = 0x20000008
        0x0000129e:    681b        .h      LDR      r3,[r3,#0]
        0x000012a0:    009b        ..      LSLS     r3,r3,#2
        0x000012a2:    4c0a        .L      LDR      r4,[pc,#40] ; [0x12cc] = 0x20000114
        0x000012a4:    50e2        .P      STR      r2,[r4,r3]
        0x000012a6:    4a08        .J      LDR      r2,[pc,#32] ; [0x12c8] = 0x20000008
        0x000012a8:    6812        .h      LDR      r2,[r2,#0]
        0x000012aa:    1c52        R.      ADDS     r2,r2,#1
        0x000012ac:    4b06        .K      LDR      r3,[pc,#24] ; [0x12c8] = 0x20000008
        0x000012ae:    601a        .`      STR      r2,[r3,#0]
        0x000012b0:    bd10        ..      POP      {r4,pc}
    $d
        0x000012b2:    0000        ..      DCW    0
        0x000012b4:    20000414    ...     DCD    536871956
        0x000012b8:    000003cb    ....    DCD    971
        0x000012bc:    200002bc    ...     DCD    536871612
        0x000012c0:    52440000    ..DR    DCD    1380188160
        0x000012c4:    52480000    ..HR    DCD    1380450304
        0x000012c8:    20000008    ...     DCD    536870920
        0x000012cc:    20000114    ...     DCD    536871188
        0x000012d0:    20000014    ...     DCD    536870932
        0x000012d4:    520c0000    ...R    DCD    1376518144
        0x000012d8:    0a0d5825    %X..    DCD    168646693
        0x000012dc:    00000000    ....    DCD    0
        0x000012e0:    e000e180    ....    DCD    3758154112
        0x000012e4:    00002710    .'..    DCD    10000
        0x000012e8:    05fa0004    ....    DCD    100270084
        0x000012ec:    e000ed00    ....    DCD    3758157056
        0x000012f0:    e000e280    ....    DCD    3758154368
    $t
    .text
    adc_isr
        0x000012f4:    48b1        .H      LDR      r0,[pc,#708] ; [0x15bc] = 0x50040000
        0x000012f6:    8800        ..      LDRH     r0,[r0,#0]
        0x000012f8:    49b1        .I      LDR      r1,[pc,#708] ; [0x15c0] = 0x20000050
        0x000012fa:    8008        ..      STRH     r0,[r1,#0]
        0x000012fc:    2001        .       MOVS     r0,#1
        0x000012fe:    49b1        .I      LDR      r1,[pc,#708] ; [0x15c4] = 0x20000052
        0x00001300:    7008        .p      STRB     r0,[r1,#0]
        0x00001302:    4770        pG      BX       lr
    adc_config
        0x00001304:    b510        ..      PUSH     {r4,lr}
        0x00001306:    4604        .F      MOV      r4,r0
        0x00001308:    7821        !x      LDRB     r1,[r4,#0]
        0x0000130a:    20f2        .       MOVS     r0,#0xf2
        0x0000130c:    f000f880    ....    BL       adc_set_asc_bit ; 0x1410
        0x00001310:    7861        ax      LDRB     r1,[r4,#1]
        0x00001312:    20f3        .       MOVS     r0,#0xf3
        0x00001314:    f000f87c    ..|.    BL       adc_set_asc_bit ; 0x1410
        0x00001318:    78a1        .x      LDRB     r1,[r4,#2]
        0x0000131a:    20f4        .       MOVS     r0,#0xf4
        0x0000131c:    f000f878    ..x.    BL       adc_set_asc_bit ; 0x1410
        0x00001320:    78e0        .x      LDRB     r0,[r4,#3]
        0x00001322:    f000f884    ....    BL       adc_set_pga_gain_asc_bits ; 0x142e
        0x00001326:    7920         y      LDRB     r0,[r4,#4]
        0x00001328:    f000f8b4    ....    BL       adc_set_settling_time_asc_bits ; 0x1494
        0x0000132c:    7960        `y      LDRB     r0,[r4,#5]
        0x0000132e:    f000f8e4    ....    BL       adc_set_bandgap_refernce_tuning_code_asc_bits ; 0x14fa
        0x00001332:    79a0        .y      LDRB     r0,[r4,#6]
        0x00001334:    f000f90e    ....    BL       adc_set_const_gm_tuning_code_asc_bits ; 0x1554
        0x00001338:    79e1        .y      LDRB     r1,[r4,#7]
        0x0000133a:    48a3        .H      LDR      r0,[pc,#652] ; [0x15c8] = 0x31e
        0x0000133c:    f000f868    ..h.    BL       adc_set_asc_bit ; 0x1410
        0x00001340:    7a21        !z      LDRB     r1,[r4,#8]
        0x00001342:    48a1        .H      LDR      r0,[pc,#644] ; [0x15c8] = 0x31e
        0x00001344:    1cc0        ..      ADDS     r0,r0,#3
        0x00001346:    f000f863    ..c.    BL       adc_set_asc_bit ; 0x1410
        0x0000134a:    7a60        `z      LDRB     r0,[r4,#9]
        0x0000134c:    0780        ..      LSLS     r0,r0,#30
        0x0000134e:    0fc1        ..      LSRS     r1,r0,#31
        0x00001350:    489d        .H      LDR      r0,[pc,#628] ; [0x15c8] = 0x31e
        0x00001352:    3075        u0      ADDS     r0,r0,#0x75
        0x00001354:    f000f85c    ..\.    BL       adc_set_asc_bit ; 0x1410
        0x00001358:    7a60        `z      LDRB     r0,[r4,#9]
        0x0000135a:    07c1        ..      LSLS     r1,r0,#31
        0x0000135c:    0fc9        ..      LSRS     r1,r1,#31
        0x0000135e:    489b        .H      LDR      r0,[pc,#620] ; [0x15cc] = 0x43f
        0x00001360:    f000f856    ..V.    BL       adc_set_asc_bit ; 0x1410
        0x00001364:    7aa1        .z      LDRB     r1,[r4,#0xa]
        0x00001366:    2011        .       MOVS     r0,#0x11
        0x00001368:    0180        ..      LSLS     r0,r0,#6
        0x0000136a:    f000f851    ..Q.    BL       adc_set_asc_bit ; 0x1410
        0x0000136e:    bd10        ..      POP      {r4,pc}
    adc_enable_interrupt
        0x00001370:    b510        ..      PUSH     {r4,lr}
        0x00001372:    4897        .H      LDR      r0,[pc,#604] ; [0x15d0] = 0xe000e100
        0x00001374:    6800        .h      LDR      r0,[r0,#0]
        0x00001376:    2108        .!      MOVS     r1,#8
        0x00001378:    4308        .C      ORRS     r0,r0,r1
        0x0000137a:    4995        .I      LDR      r1,[pc,#596] ; [0x15d0] = 0xe000e100
        0x0000137c:    6008        .`      STR      r0,[r1,#0]
        0x0000137e:    4608        .F      MOV      r0,r1
        0x00001380:    6801        .h      LDR      r1,[r0,#0]
        0x00001382:    a094        ..      ADR      r0,{pc}+0x252 ; 0x15d4
        0x00001384:    f003ff68    ..h.    BL       __2printf ; 0x5258
        0x00001388:    bd10        ..      POP      {r4,pc}
    adc_disable_interrupt
        0x0000138a:    b510        ..      PUSH     {r4,lr}
        0x0000138c:    4890        .H      LDR      r0,[pc,#576] ; [0x15d0] = 0xe000e100
        0x0000138e:    3080        .0      ADDS     r0,r0,#0x80
        0x00001390:    6800        .h      LDR      r0,[r0,#0]
        0x00001392:    2108        .!      MOVS     r1,#8
        0x00001394:    4308        .C      ORRS     r0,r0,r1
        0x00001396:    498e        .I      LDR      r1,[pc,#568] ; [0x15d0] = 0xe000e100
        0x00001398:    3180        .1      ADDS     r1,r1,#0x80
        0x0000139a:    6008        .`      STR      r0,[r1,#0]
        0x0000139c:    4608        .F      MOV      r0,r1
        0x0000139e:    6801        .h      LDR      r1,[r0,#0]
        0x000013a0:    a094        ..      ADR      r0,{pc}+0x254 ; 0x15f4
        0x000013a2:    f003ff59    ..Y.    BL       __2printf ; 0x5258
        0x000013a6:    bd10        ..      POP      {r4,pc}
    adc_trigger
        0x000013a8:    2000        .       MOVS     r0,#0
        0x000013aa:    4986        .I      LDR      r1,[pc,#536] ; [0x15c4] = 0x20000052
        0x000013ac:    7008        .p      STRB     r0,[r1,#0]
        0x000013ae:    2001        .       MOVS     r0,#1
        0x000013b0:    2105        .!      MOVS     r1,#5
        0x000013b2:    0709        ..      LSLS     r1,r1,#28
        0x000013b4:    6008        .`      STR      r0,[r1,#0]
        0x000013b6:    4770        pG      BX       lr
    adc_output_valid
        0x000013b8:    4882        .H      LDR      r0,[pc,#520] ; [0x15c4] = 0x20000052
        0x000013ba:    7800        .x      LDRB     r0,[r0,#0]
        0x000013bc:    4770        pG      BX       lr
    adc_output_reset_valid
        0x000013be:    2000        .       MOVS     r0,#0
        0x000013c0:    4980        .I      LDR      r1,[pc,#512] ; [0x15c4] = 0x20000052
        0x000013c2:    7008        .p      STRB     r0,[r1,#0]
        0x000013c4:    4770        pG      BX       lr
    adc_peek_output
        0x000013c6:    487e        ~H      LDR      r0,[pc,#504] ; [0x15c0] = 0x20000050
        0x000013c8:    8800        ..      LDRH     r0,[r0,#0]
        0x000013ca:    4770        pG      BX       lr
    adc_read_output
        0x000013cc:    b500        ..      PUSH     {lr}
        0x000013ce:    2200        ."      MOVS     r2,#0
        0x000013d0:    e00c        ..      B        0x13ec ; adc_read_output + 32
        0x000013d2:    f7ffffe9    ....    BL       adc_trigger ; 0x13a8
        0x000013d6:    bf00        ..      NOP      
        0x000013d8:    487a        zH      LDR      r0,[pc,#488] ; [0x15c4] = 0x20000052
        0x000013da:    7800        .x      LDRB     r0,[r0,#0]
        0x000013dc:    2800        .(      CMP      r0,#0
        0x000013de:    d0fb        ..      BEQ      0x13d8 ; adc_read_output + 12
        0x000013e0:    2000        .       MOVS     r0,#0
        0x000013e2:    e000        ..      B        0x13e6 ; adc_read_output + 26
        0x000013e4:    1c40        @.      ADDS     r0,r0,#1
        0x000013e6:    280a        .(      CMP      r0,#0xa
        0x000013e8:    d3fc        ..      BCC      0x13e4 ; adc_read_output + 24
        0x000013ea:    1c52        R.      ADDS     r2,r2,#1
        0x000013ec:    2a02        .*      CMP      r2,#2
        0x000013ee:    d3f0        ..      BCC      0x13d2 ; adc_read_output + 6
        0x000013f0:    4873        sH      LDR      r0,[pc,#460] ; [0x15c0] = 0x20000050
        0x000013f2:    8800        ..      LDRH     r0,[r0,#0]
        0x000013f4:    bd00        ..      POP      {pc}
    adc_average_output
        0x000013f6:    b510        ..      PUSH     {r4,lr}
        0x000013f8:    2300        .#      MOVS     r3,#0
        0x000013fa:    2400        .$      MOVS     r4,#0
        0x000013fc:    e003        ..      B        0x1406 ; adc_average_output + 16
        0x000013fe:    f7ffffe5    ....    BL       adc_read_output ; 0x13cc
        0x00001402:    18c3        ..      ADDS     r3,r0,r3
        0x00001404:    1c64        d.      ADDS     r4,r4,#1
        0x00001406:    2c10        .,      CMP      r4,#0x10
        0x00001408:    d3f9        ..      BCC      0x13fe ; adc_average_output + 8
        0x0000140a:    0318        ..      LSLS     r0,r3,#12
        0x0000140c:    0c00        ..      LSRS     r0,r0,#16
        0x0000140e:    bd10        ..      POP      {r4,pc}
    adc_set_asc_bit
        0x00001410:    b570        p.      PUSH     {r4-r6,lr}
        0x00001412:    4605        .F      MOV      r5,r0
        0x00001414:    460c        .F      MOV      r4,r1
        0x00001416:    07e0        ..      LSLS     r0,r4,#31
        0x00001418:    0fc0        ..      LSRS     r0,r0,#31
        0x0000141a:    2800        .(      CMP      r0,#0
        0x0000141c:    d003        ..      BEQ      0x1426 ; adc_set_asc_bit + 22
        0x0000141e:    4628        (F      MOV      r0,r5
        0x00001420:    f000fcc8    ....    BL       set_asc_bit ; 0x1db4
        0x00001424:    e002        ..      B        0x142c ; adc_set_asc_bit + 28
        0x00001426:    4628        (F      MOV      r0,r5
        0x00001428:    f000fcb4    ....    BL       clear_asc_bit ; 0x1d94
        0x0000142c:    bd70        p.      POP      {r4-r6,pc}
    adc_set_pga_gain_asc_bits
        0x0000142e:    b510        ..      PUSH     {r4,lr}
        0x00001430:    4604        .F      MOV      r4,r0
        0x00001432:    0620         .      LSLS     r0,r4,#24
        0x00001434:    0fc1        ..      LSRS     r1,r0,#31
        0x00001436:    4864        dH      LDR      r0,[pc,#400] ; [0x15c8] = 0x31e
        0x00001438:    3820         8      SUBS     r0,r0,#0x20
        0x0000143a:    f7ffffe9    ....    BL       adc_set_asc_bit ; 0x1410
        0x0000143e:    0660        `.      LSLS     r0,r4,#25
        0x00001440:    0fc1        ..      LSRS     r1,r0,#31
        0x00001442:    4861        aH      LDR      r0,[pc,#388] ; [0x15c8] = 0x31e
        0x00001444:    381f        .8      SUBS     r0,r0,#0x1f
        0x00001446:    f7ffffe3    ....    BL       adc_set_asc_bit ; 0x1410
        0x0000144a:    06a0        ..      LSLS     r0,r4,#26
        0x0000144c:    0fc1        ..      LSRS     r1,r0,#31
        0x0000144e:    2003        .       MOVS     r0,#3
        0x00001450:    0200        ..      LSLS     r0,r0,#8
        0x00001452:    f7ffffdd    ....    BL       adc_set_asc_bit ; 0x1410
        0x00001456:    06e0        ..      LSLS     r0,r4,#27
        0x00001458:    0fc1        ..      LSRS     r1,r0,#31
        0x0000145a:    485b        [H      LDR      r0,[pc,#364] ; [0x15c8] = 0x31e
        0x0000145c:    381d        .8      SUBS     r0,r0,#0x1d
        0x0000145e:    f7ffffd7    ....    BL       adc_set_asc_bit ; 0x1410
        0x00001462:    0720         .      LSLS     r0,r4,#28
        0x00001464:    0fc1        ..      LSRS     r1,r0,#31
        0x00001466:    4858        XH      LDR      r0,[pc,#352] ; [0x15c8] = 0x31e
        0x00001468:    381c        .8      SUBS     r0,r0,#0x1c
        0x0000146a:    f7ffffd1    ....    BL       adc_set_asc_bit ; 0x1410
        0x0000146e:    0760        `.      LSLS     r0,r4,#29
        0x00001470:    0fc1        ..      LSRS     r1,r0,#31
        0x00001472:    4855        UH      LDR      r0,[pc,#340] ; [0x15c8] = 0x31e
        0x00001474:    381b        .8      SUBS     r0,r0,#0x1b
        0x00001476:    f7ffffcb    ....    BL       adc_set_asc_bit ; 0x1410
        0x0000147a:    07a0        ..      LSLS     r0,r4,#30
        0x0000147c:    0fc1        ..      LSRS     r1,r0,#31
        0x0000147e:    2019        .       MOVS     r0,#0x19
        0x00001480:    0140        @.      LSLS     r0,r0,#5
        0x00001482:    f7ffffc5    ....    BL       adc_set_asc_bit ; 0x1410
        0x00001486:    07e1        ..      LSLS     r1,r4,#31
        0x00001488:    0fc9        ..      LSRS     r1,r1,#31
        0x0000148a:    484f        OH      LDR      r0,[pc,#316] ; [0x15c8] = 0x31e
        0x0000148c:    3819        .8      SUBS     r0,r0,#0x19
        0x0000148e:    f7ffffbf    ....    BL       adc_set_asc_bit ; 0x1410
        0x00001492:    bd10        ..      POP      {r4,pc}
    adc_set_settling_time_asc_bits
        0x00001494:    b510        ..      PUSH     {r4,lr}
        0x00001496:    4604        .F      MOV      r4,r0
        0x00001498:    0620         .      LSLS     r0,r4,#24
        0x0000149a:    0fc1        ..      LSRS     r1,r0,#31
        0x0000149c:    2033        3       MOVS     r0,#0x33
        0x0000149e:    0100        ..      LSLS     r0,r0,#4
        0x000014a0:    f7ffffb6    ....    BL       adc_set_asc_bit ; 0x1410
        0x000014a4:    0660        `.      LSLS     r0,r4,#25
        0x000014a6:    0fc1        ..      LSRS     r1,r0,#31
        0x000014a8:    4847        GH      LDR      r0,[pc,#284] ; [0x15c8] = 0x31e
        0x000014aa:    3013        .0      ADDS     r0,r0,#0x13
        0x000014ac:    f7ffffb0    ....    BL       adc_set_asc_bit ; 0x1410
        0x000014b0:    06a0        ..      LSLS     r0,r4,#26
        0x000014b2:    0fc1        ..      LSRS     r1,r0,#31
        0x000014b4:    4844        DH      LDR      r0,[pc,#272] ; [0x15c8] = 0x31e
        0x000014b6:    3014        .0      ADDS     r0,r0,#0x14
        0x000014b8:    f7ffffaa    ....    BL       adc_set_asc_bit ; 0x1410
        0x000014bc:    06e0        ..      LSLS     r0,r4,#27
        0x000014be:    0fc1        ..      LSRS     r1,r0,#31
        0x000014c0:    4841        AH      LDR      r0,[pc,#260] ; [0x15c8] = 0x31e
        0x000014c2:    3015        .0      ADDS     r0,r0,#0x15
        0x000014c4:    f7ffffa4    ....    BL       adc_set_asc_bit ; 0x1410
        0x000014c8:    0720         .      LSLS     r0,r4,#28
        0x000014ca:    0fc1        ..      LSRS     r1,r0,#31
        0x000014cc:    20cd        .       MOVS     r0,#0xcd
        0x000014ce:    0080        ..      LSLS     r0,r0,#2
        0x000014d0:    f7ffff9e    ....    BL       adc_set_asc_bit ; 0x1410
        0x000014d4:    0760        `.      LSLS     r0,r4,#29
        0x000014d6:    0fc1        ..      LSRS     r1,r0,#31
        0x000014d8:    483b        ;H      LDR      r0,[pc,#236] ; [0x15c8] = 0x31e
        0x000014da:    3017        .0      ADDS     r0,r0,#0x17
        0x000014dc:    f7ffff98    ....    BL       adc_set_asc_bit ; 0x1410
        0x000014e0:    07a0        ..      LSLS     r0,r4,#30
        0x000014e2:    0fc1        ..      LSRS     r1,r0,#31
        0x000014e4:    4838        8H      LDR      r0,[pc,#224] ; [0x15c8] = 0x31e
        0x000014e6:    3018        .0      ADDS     r0,r0,#0x18
        0x000014e8:    f7ffff92    ....    BL       adc_set_asc_bit ; 0x1410
        0x000014ec:    07e1        ..      LSLS     r1,r4,#31
        0x000014ee:    0fc9        ..      LSRS     r1,r1,#31
        0x000014f0:    4835        5H      LDR      r0,[pc,#212] ; [0x15c8] = 0x31e
        0x000014f2:    3019        .0      ADDS     r0,r0,#0x19
        0x000014f4:    f7ffff8c    ....    BL       adc_set_asc_bit ; 0x1410
        0x000014f8:    bd10        ..      POP      {r4,pc}
    adc_set_bandgap_refernce_tuning_code_asc_bits
        0x000014fa:    b510        ..      PUSH     {r4,lr}
        0x000014fc:    4604        .F      MOV      r4,r0
        0x000014fe:    0660        `.      LSLS     r0,r4,#25
        0x00001500:    0fc1        ..      LSRS     r1,r0,#31
        0x00001502:    4831        1H      LDR      r0,[pc,#196] ; [0x15c8] = 0x31e
        0x00001504:    3814        .8      SUBS     r0,r0,#0x14
        0x00001506:    f7ffff83    ....    BL       adc_set_asc_bit ; 0x1410
        0x0000150a:    06a0        ..      LSLS     r0,r4,#26
        0x0000150c:    0fc1        ..      LSRS     r1,r0,#31
        0x0000150e:    2031        1       MOVS     r0,#0x31
        0x00001510:    0100        ..      LSLS     r0,r0,#4
        0x00001512:    f7ffff7d    ..}.    BL       adc_set_asc_bit ; 0x1410
        0x00001516:    06e0        ..      LSLS     r0,r4,#27
        0x00001518:    0fc1        ..      LSRS     r1,r0,#31
        0x0000151a:    482b        +H      LDR      r0,[pc,#172] ; [0x15c8] = 0x31e
        0x0000151c:    380f        .8      SUBS     r0,r0,#0xf
        0x0000151e:    f7ffff77    ..w.    BL       adc_set_asc_bit ; 0x1410
        0x00001522:    0720         .      LSLS     r0,r4,#28
        0x00001524:    0fc1        ..      LSRS     r1,r0,#31
        0x00001526:    4828        (H      LDR      r0,[pc,#160] ; [0x15c8] = 0x31e
        0x00001528:    3810        .8      SUBS     r0,r0,#0x10
        0x0000152a:    f7ffff71    ..q.    BL       adc_set_asc_bit ; 0x1410
        0x0000152e:    0760        `.      LSLS     r0,r4,#29
        0x00001530:    0fc1        ..      LSRS     r1,r0,#31
        0x00001532:    4825        %H      LDR      r0,[pc,#148] ; [0x15c8] = 0x31e
        0x00001534:    3811        .8      SUBS     r0,r0,#0x11
        0x00001536:    f7ffff6b    ..k.    BL       adc_set_asc_bit ; 0x1410
        0x0000153a:    07a0        ..      LSLS     r0,r4,#30
        0x0000153c:    0fc1        ..      LSRS     r1,r0,#31
        0x0000153e:    20c3        .       MOVS     r0,#0xc3
        0x00001540:    0080        ..      LSLS     r0,r0,#2
        0x00001542:    f7ffff65    ..e.    BL       adc_set_asc_bit ; 0x1410
        0x00001546:    07e1        ..      LSLS     r1,r4,#31
        0x00001548:    0fc9        ..      LSRS     r1,r1,#31
        0x0000154a:    481f        .H      LDR      r0,[pc,#124] ; [0x15c8] = 0x31e
        0x0000154c:    3813        .8      SUBS     r0,r0,#0x13
        0x0000154e:    f7ffff5f    .._.    BL       adc_set_asc_bit ; 0x1410
        0x00001552:    bd10        ..      POP      {r4,pc}
    adc_set_const_gm_tuning_code_asc_bits
        0x00001554:    b510        ..      PUSH     {r4,lr}
        0x00001556:    4604        .F      MOV      r4,r0
        0x00001558:    0620         .      LSLS     r0,r4,#24
        0x0000155a:    0fc1        ..      LSRS     r1,r0,#31
        0x0000155c:    481a        .H      LDR      r0,[pc,#104] ; [0x15c8] = 0x31e
        0x0000155e:    3821        !8      SUBS     r0,r0,#0x21
        0x00001560:    f7ffff56    ..V.    BL       adc_set_asc_bit ; 0x1410
        0x00001564:    0660        `.      LSLS     r0,r4,#25
        0x00001566:    0fc1        ..      LSRS     r1,r0,#31
        0x00001568:    20bf        .       MOVS     r0,#0xbf
        0x0000156a:    0080        ..      LSLS     r0,r0,#2
        0x0000156c:    f7ffff50    ..P.    BL       adc_set_asc_bit ; 0x1410
        0x00001570:    06a0        ..      LSLS     r0,r4,#26
        0x00001572:    0fc1        ..      LSRS     r1,r0,#31
        0x00001574:    4814        .H      LDR      r0,[pc,#80] ; [0x15c8] = 0x31e
        0x00001576:    3823        #8      SUBS     r0,r0,#0x23
        0x00001578:    f7ffff4a    ..J.    BL       adc_set_asc_bit ; 0x1410
        0x0000157c:    06e0        ..      LSLS     r0,r4,#27
        0x0000157e:    0fc1        ..      LSRS     r1,r0,#31
        0x00001580:    4811        .H      LDR      r0,[pc,#68] ; [0x15c8] = 0x31e
        0x00001582:    3824        $8      SUBS     r0,r0,#0x24
        0x00001584:    f7ffff44    ..D.    BL       adc_set_asc_bit ; 0x1410
        0x00001588:    0720         .      LSLS     r0,r4,#28
        0x0000158a:    0fc1        ..      LSRS     r1,r0,#31
        0x0000158c:    480e        .H      LDR      r0,[pc,#56] ; [0x15c8] = 0x31e
        0x0000158e:    3825        %8      SUBS     r0,r0,#0x25
        0x00001590:    f7ffff3e    ..>.    BL       adc_set_asc_bit ; 0x1410
        0x00001594:    0760        `.      LSLS     r0,r4,#29
        0x00001596:    0fc1        ..      LSRS     r1,r0,#31
        0x00001598:    205f        _       MOVS     r0,#0x5f
        0x0000159a:    00c0        ..      LSLS     r0,r0,#3
        0x0000159c:    f7ffff38    ..8.    BL       adc_set_asc_bit ; 0x1410
        0x000015a0:    07a0        ..      LSLS     r0,r4,#30
        0x000015a2:    0fc1        ..      LSRS     r1,r0,#31
        0x000015a4:    4808        .H      LDR      r0,[pc,#32] ; [0x15c8] = 0x31e
        0x000015a6:    3827        '8      SUBS     r0,r0,#0x27
        0x000015a8:    f7ffff32    ..2.    BL       adc_set_asc_bit ; 0x1410
        0x000015ac:    07e1        ..      LSLS     r1,r4,#31
        0x000015ae:    0fc9        ..      LSRS     r1,r1,#31
        0x000015b0:    4805        .H      LDR      r0,[pc,#20] ; [0x15c8] = 0x31e
        0x000015b2:    3828        (8      SUBS     r0,r0,#0x28
        0x000015b4:    f7ffff2c    ..,.    BL       adc_set_asc_bit ; 0x1410
        0x000015b8:    bd10        ..      POP      {r4,pc}
    $d
        0x000015ba:    0000        ..      DCW    0
        0x000015bc:    50040000    ...P    DCD    1342439424
        0x000015c0:    20000050    P..     DCD    536870992
        0x000015c4:    20000052    R..     DCD    536870994
        0x000015c8:    0000031e    ....    DCD    798
        0x000015cc:    0000043f    ?...    DCD    1087
        0x000015d0:    e000e100    ....    DCD    3758153984
        0x000015d4:    20434441    ADC     DCD    541279297
        0x000015d8:    65746e69    inte    DCD    1702129257
        0x000015dc:    70757272    rrup    DCD    1886745202
        0x000015e0:    6e652074    t en    DCD    1852121204
        0x000015e4:    656c6261    able    DCD    1701601889
        0x000015e8:    30203a64    d: 0    DCD    807418468
        0x000015ec:    2e782578    x%x.    DCD    779625848
        0x000015f0:    0000000a    ....    DCD    10
        0x000015f4:    20434441    ADC     DCD    541279297
        0x000015f8:    65746e69    inte    DCD    1702129257
        0x000015fc:    70757272    rrup    DCD    1886745202
        0x00001600:    69642074    t di    DCD    1768169588
        0x00001604:    6c626173    sabl    DCD    1818386803
        0x00001608:    203a6465    ed:     DCD    540697701
        0x0000160c:    78257830    0x%x    DCD    2015721520
        0x00001610:    00000a2e    ....    DCD    2606
    $t
    .text
    gpio_set_high
        0x00001614:    4990        .I      LDR      r1,[pc,#576] ; [0x1858] = 0x53040000
        0x00001616:    6809        .h      LDR      r1,[r1,#0]
        0x00001618:    2201        ."      MOVS     r2,#1
        0x0000161a:    4082        .@      LSLS     r2,r2,r0
        0x0000161c:    4311        .C      ORRS     r1,r1,r2
        0x0000161e:    4a8e        .J      LDR      r2,[pc,#568] ; [0x1858] = 0x53040000
        0x00001620:    6011        .`      STR      r1,[r2,#0]
        0x00001622:    4770        pG      BX       lr
    gpio_set_low
        0x00001624:    498c        .I      LDR      r1,[pc,#560] ; [0x1858] = 0x53040000
        0x00001626:    6809        .h      LDR      r1,[r1,#0]
        0x00001628:    2201        ."      MOVS     r2,#1
        0x0000162a:    4082        .@      LSLS     r2,r2,r0
        0x0000162c:    4391        .C      BICS     r1,r1,r2
        0x0000162e:    4a8a        .J      LDR      r2,[pc,#552] ; [0x1858] = 0x53040000
        0x00001630:    6011        .`      STR      r1,[r2,#0]
        0x00001632:    4770        pG      BX       lr
    gpio_toggle
        0x00001634:    4988        .I      LDR      r1,[pc,#544] ; [0x1858] = 0x53040000
        0x00001636:    6809        .h      LDR      r1,[r1,#0]
        0x00001638:    2201        ."      MOVS     r2,#1
        0x0000163a:    4082        .@      LSLS     r2,r2,r0
        0x0000163c:    4051        Q@      EORS     r1,r1,r2
        0x0000163e:    4a86        .J      LDR      r2,[pc,#536] ; [0x1858] = 0x53040000
        0x00001640:    6011        .`      STR      r1,[r2,#0]
        0x00001642:    4770        pG      BX       lr
    gpio_init
        0x00001644:    4884        .H      LDR      r0,[pc,#528] ; [0x1858] = 0x53040000
        0x00001646:    6800        .h      LDR      r0,[r0,#0]
        0x00001648:    0c00        ..      LSRS     r0,r0,#16
        0x0000164a:    0400        ..      LSLS     r0,r0,#16
        0x0000164c:    4982        .I      LDR      r1,[pc,#520] ; [0x1858] = 0x53040000
        0x0000164e:    6008        .`      STR      r0,[r1,#0]
        0x00001650:    4770        pG      BX       lr
    gpio_0_set
        0x00001652:    b500        ..      PUSH     {lr}
        0x00001654:    2000        .       MOVS     r0,#0
        0x00001656:    f7ffffdd    ....    BL       gpio_set_high ; 0x1614
        0x0000165a:    bd00        ..      POP      {pc}
    gpio_0_clr
        0x0000165c:    b500        ..      PUSH     {lr}
        0x0000165e:    2000        .       MOVS     r0,#0
        0x00001660:    f7ffffe0    ....    BL       gpio_set_low ; 0x1624
        0x00001664:    bd00        ..      POP      {pc}
    gpio_0_toggle
        0x00001666:    b500        ..      PUSH     {lr}
        0x00001668:    2000        .       MOVS     r0,#0
        0x0000166a:    f7ffffe3    ....    BL       gpio_toggle ; 0x1634
        0x0000166e:    bd00        ..      POP      {pc}
    gpio_1_set
        0x00001670:    b500        ..      PUSH     {lr}
        0x00001672:    2001        .       MOVS     r0,#1
        0x00001674:    f7ffffce    ....    BL       gpio_set_high ; 0x1614
        0x00001678:    bd00        ..      POP      {pc}
    gpio_1_clr
        0x0000167a:    b500        ..      PUSH     {lr}
        0x0000167c:    2001        .       MOVS     r0,#1
        0x0000167e:    f7ffffd1    ....    BL       gpio_set_low ; 0x1624
        0x00001682:    bd00        ..      POP      {pc}
    gpio_1_toggle
        0x00001684:    b500        ..      PUSH     {lr}
        0x00001686:    2001        .       MOVS     r0,#1
        0x00001688:    f7ffffd4    ....    BL       gpio_toggle ; 0x1634
        0x0000168c:    bd00        ..      POP      {pc}
    gpio_2_set
        0x0000168e:    b500        ..      PUSH     {lr}
        0x00001690:    2002        .       MOVS     r0,#2
        0x00001692:    f7ffffbf    ....    BL       gpio_set_high ; 0x1614
        0x00001696:    bd00        ..      POP      {pc}
    gpio_2_clr
        0x00001698:    b500        ..      PUSH     {lr}
        0x0000169a:    2002        .       MOVS     r0,#2
        0x0000169c:    f7ffffc2    ....    BL       gpio_set_low ; 0x1624
        0x000016a0:    bd00        ..      POP      {pc}
    gpio_2_toggle
        0x000016a2:    b500        ..      PUSH     {lr}
        0x000016a4:    2002        .       MOVS     r0,#2
        0x000016a6:    f7ffffc5    ....    BL       gpio_toggle ; 0x1634
        0x000016aa:    bd00        ..      POP      {pc}
    gpio_3_set
        0x000016ac:    b500        ..      PUSH     {lr}
        0x000016ae:    2003        .       MOVS     r0,#3
        0x000016b0:    f7ffffb0    ....    BL       gpio_set_high ; 0x1614
        0x000016b4:    bd00        ..      POP      {pc}
    gpio_3_clr
        0x000016b6:    b500        ..      PUSH     {lr}
        0x000016b8:    2003        .       MOVS     r0,#3
        0x000016ba:    f7ffffb3    ....    BL       gpio_set_low ; 0x1624
        0x000016be:    bd00        ..      POP      {pc}
    gpio_3_toggle
        0x000016c0:    b500        ..      PUSH     {lr}
        0x000016c2:    2003        .       MOVS     r0,#3
        0x000016c4:    f7ffffb6    ....    BL       gpio_toggle ; 0x1634
        0x000016c8:    bd00        ..      POP      {pc}
    gpio_4_set
        0x000016ca:    b500        ..      PUSH     {lr}
        0x000016cc:    2004        .       MOVS     r0,#4
        0x000016ce:    f7ffffa1    ....    BL       gpio_set_high ; 0x1614
        0x000016d2:    bd00        ..      POP      {pc}
    gpio_4_clr
        0x000016d4:    b500        ..      PUSH     {lr}
        0x000016d6:    2004        .       MOVS     r0,#4
        0x000016d8:    f7ffffa4    ....    BL       gpio_set_low ; 0x1624
        0x000016dc:    bd00        ..      POP      {pc}
    gpio_4_toggle
        0x000016de:    b500        ..      PUSH     {lr}
        0x000016e0:    2004        .       MOVS     r0,#4
        0x000016e2:    f7ffffa7    ....    BL       gpio_toggle ; 0x1634
        0x000016e6:    bd00        ..      POP      {pc}
    gpio_5_set
        0x000016e8:    b500        ..      PUSH     {lr}
        0x000016ea:    2005        .       MOVS     r0,#5
        0x000016ec:    f7ffff92    ....    BL       gpio_set_high ; 0x1614
        0x000016f0:    bd00        ..      POP      {pc}
    gpio_5_clr
        0x000016f2:    b500        ..      PUSH     {lr}
        0x000016f4:    2005        .       MOVS     r0,#5
        0x000016f6:    f7ffff95    ....    BL       gpio_set_low ; 0x1624
        0x000016fa:    bd00        ..      POP      {pc}
    gpio_5_toggle
        0x000016fc:    b500        ..      PUSH     {lr}
        0x000016fe:    2005        .       MOVS     r0,#5
        0x00001700:    f7ffff98    ....    BL       gpio_toggle ; 0x1634
        0x00001704:    bd00        ..      POP      {pc}
    gpio_6_set
        0x00001706:    b500        ..      PUSH     {lr}
        0x00001708:    2006        .       MOVS     r0,#6
        0x0000170a:    f7ffff83    ....    BL       gpio_set_high ; 0x1614
        0x0000170e:    bd00        ..      POP      {pc}
    gpio_6_clr
        0x00001710:    b500        ..      PUSH     {lr}
        0x00001712:    2006        .       MOVS     r0,#6
        0x00001714:    f7ffff86    ....    BL       gpio_set_low ; 0x1624
        0x00001718:    bd00        ..      POP      {pc}
    gpio_6_toggle
        0x0000171a:    b500        ..      PUSH     {lr}
        0x0000171c:    2006        .       MOVS     r0,#6
        0x0000171e:    f7ffff89    ....    BL       gpio_toggle ; 0x1634
        0x00001722:    bd00        ..      POP      {pc}
    gpio_7_set
        0x00001724:    b500        ..      PUSH     {lr}
        0x00001726:    2007        .       MOVS     r0,#7
        0x00001728:    f7ffff74    ..t.    BL       gpio_set_high ; 0x1614
        0x0000172c:    bd00        ..      POP      {pc}
    gpio_7_clr
        0x0000172e:    b500        ..      PUSH     {lr}
        0x00001730:    2007        .       MOVS     r0,#7
        0x00001732:    f7ffff77    ..w.    BL       gpio_set_low ; 0x1624
        0x00001736:    bd00        ..      POP      {pc}
    gpio_7_toggle
        0x00001738:    b500        ..      PUSH     {lr}
        0x0000173a:    2007        .       MOVS     r0,#7
        0x0000173c:    f7ffff7a    ..z.    BL       gpio_toggle ; 0x1634
        0x00001740:    bd00        ..      POP      {pc}
    gpio_8_set
        0x00001742:    b500        ..      PUSH     {lr}
        0x00001744:    2008        .       MOVS     r0,#8
        0x00001746:    f7ffff65    ..e.    BL       gpio_set_high ; 0x1614
        0x0000174a:    bd00        ..      POP      {pc}
    gpio_8_clr
        0x0000174c:    b500        ..      PUSH     {lr}
        0x0000174e:    2008        .       MOVS     r0,#8
        0x00001750:    f7ffff68    ..h.    BL       gpio_set_low ; 0x1624
        0x00001754:    bd00        ..      POP      {pc}
    gpio_8_toggle
        0x00001756:    b500        ..      PUSH     {lr}
        0x00001758:    2008        .       MOVS     r0,#8
        0x0000175a:    f7ffff6b    ..k.    BL       gpio_toggle ; 0x1634
        0x0000175e:    bd00        ..      POP      {pc}
    gpio_9_set
        0x00001760:    b500        ..      PUSH     {lr}
        0x00001762:    2009        .       MOVS     r0,#9
        0x00001764:    f7ffff56    ..V.    BL       gpio_set_high ; 0x1614
        0x00001768:    bd00        ..      POP      {pc}
    gpio_9_clr
        0x0000176a:    b500        ..      PUSH     {lr}
        0x0000176c:    2009        .       MOVS     r0,#9
        0x0000176e:    f7ffff59    ..Y.    BL       gpio_set_low ; 0x1624
        0x00001772:    bd00        ..      POP      {pc}
    gpio_9_toggle
        0x00001774:    b500        ..      PUSH     {lr}
        0x00001776:    2009        .       MOVS     r0,#9
        0x00001778:    f7ffff5c    ..\.    BL       gpio_toggle ; 0x1634
        0x0000177c:    bd00        ..      POP      {pc}
    gpio_10_set
        0x0000177e:    b500        ..      PUSH     {lr}
        0x00001780:    200a        .       MOVS     r0,#0xa
        0x00001782:    f7ffff47    ..G.    BL       gpio_set_high ; 0x1614
        0x00001786:    bd00        ..      POP      {pc}
    gpio_10_clr
        0x00001788:    b500        ..      PUSH     {lr}
        0x0000178a:    200a        .       MOVS     r0,#0xa
        0x0000178c:    f7ffff4a    ..J.    BL       gpio_set_low ; 0x1624
        0x00001790:    bd00        ..      POP      {pc}
    gpio_10_toggle
        0x00001792:    b500        ..      PUSH     {lr}
        0x00001794:    200a        .       MOVS     r0,#0xa
        0x00001796:    f7ffff4d    ..M.    BL       gpio_toggle ; 0x1634
        0x0000179a:    bd00        ..      POP      {pc}
    gpio_11_set
        0x0000179c:    b500        ..      PUSH     {lr}
        0x0000179e:    200b        .       MOVS     r0,#0xb
        0x000017a0:    f7ffff38    ..8.    BL       gpio_set_high ; 0x1614
        0x000017a4:    bd00        ..      POP      {pc}
    gpio_11_clr
        0x000017a6:    b500        ..      PUSH     {lr}
        0x000017a8:    200b        .       MOVS     r0,#0xb
        0x000017aa:    f7ffff3b    ..;.    BL       gpio_set_low ; 0x1624
        0x000017ae:    bd00        ..      POP      {pc}
    gpio_11_toggle
        0x000017b0:    b500        ..      PUSH     {lr}
        0x000017b2:    200b        .       MOVS     r0,#0xb
        0x000017b4:    f7ffff3e    ..>.    BL       gpio_toggle ; 0x1634
        0x000017b8:    bd00        ..      POP      {pc}
    gpio_12_set
        0x000017ba:    b500        ..      PUSH     {lr}
        0x000017bc:    200c        .       MOVS     r0,#0xc
        0x000017be:    f7ffff29    ..).    BL       gpio_set_high ; 0x1614
        0x000017c2:    bd00        ..      POP      {pc}
    gpio_12_clr
        0x000017c4:    b500        ..      PUSH     {lr}
        0x000017c6:    200c        .       MOVS     r0,#0xc
        0x000017c8:    f7ffff2c    ..,.    BL       gpio_set_low ; 0x1624
        0x000017cc:    bd00        ..      POP      {pc}
    gpio_12_toggle
        0x000017ce:    b500        ..      PUSH     {lr}
        0x000017d0:    200c        .       MOVS     r0,#0xc
        0x000017d2:    f7ffff2f    ../.    BL       gpio_toggle ; 0x1634
        0x000017d6:    bd00        ..      POP      {pc}
    gpio_13_set
        0x000017d8:    b500        ..      PUSH     {lr}
        0x000017da:    200d        .       MOVS     r0,#0xd
        0x000017dc:    f7ffff1a    ....    BL       gpio_set_high ; 0x1614
        0x000017e0:    bd00        ..      POP      {pc}
    gpio_13_clr
        0x000017e2:    b500        ..      PUSH     {lr}
        0x000017e4:    200d        .       MOVS     r0,#0xd
        0x000017e6:    f7ffff1d    ....    BL       gpio_set_low ; 0x1624
        0x000017ea:    bd00        ..      POP      {pc}
    gpio_13_toggle
        0x000017ec:    b500        ..      PUSH     {lr}
        0x000017ee:    200d        .       MOVS     r0,#0xd
        0x000017f0:    f7ffff20    .. .    BL       gpio_toggle ; 0x1634
        0x000017f4:    bd00        ..      POP      {pc}
    gpio_14_set
        0x000017f6:    b500        ..      PUSH     {lr}
        0x000017f8:    200e        .       MOVS     r0,#0xe
        0x000017fa:    f7ffff0b    ....    BL       gpio_set_high ; 0x1614
        0x000017fe:    bd00        ..      POP      {pc}
    gpio_14_clr
        0x00001800:    b500        ..      PUSH     {lr}
        0x00001802:    200e        .       MOVS     r0,#0xe
        0x00001804:    f7ffff0e    ....    BL       gpio_set_low ; 0x1624
        0x00001808:    bd00        ..      POP      {pc}
    gpio_14_toggle
        0x0000180a:    b500        ..      PUSH     {lr}
        0x0000180c:    200e        .       MOVS     r0,#0xe
        0x0000180e:    f7ffff11    ....    BL       gpio_toggle ; 0x1634
        0x00001812:    bd00        ..      POP      {pc}
    gpio_15_set
        0x00001814:    b500        ..      PUSH     {lr}
        0x00001816:    200f        .       MOVS     r0,#0xf
        0x00001818:    f7fffefc    ....    BL       gpio_set_high ; 0x1614
        0x0000181c:    bd00        ..      POP      {pc}
    gpio_15_clr
        0x0000181e:    b500        ..      PUSH     {lr}
        0x00001820:    200f        .       MOVS     r0,#0xf
        0x00001822:    f7fffeff    ....    BL       gpio_set_low ; 0x1624
        0x00001826:    bd00        ..      POP      {pc}
    gpio_15_toggle
        0x00001828:    b500        ..      PUSH     {lr}
        0x0000182a:    200f        .       MOVS     r0,#0xf
        0x0000182c:    f7ffff02    ....    BL       gpio_toggle ; 0x1634
        0x00001830:    bd00        ..      POP      {pc}
    ext_gpio3_activehigh_debounced_isr
        0x00001832:    b510        ..      PUSH     {r4,lr}
        0x00001834:    a009        ..      ADR      r0,{pc}+0x28 ; 0x185c
        0x00001836:    f003fd0f    ....    BL       __2printf ; 0x5258
        0x0000183a:    bd10        ..      POP      {r4,pc}
    ext_gpio8_activehigh_isr
        0x0000183c:    b510        ..      PUSH     {r4,lr}
        0x0000183e:    f7fefe13    ....    BL       optical_sfd_isr ; 0x468
        0x00001842:    bd10        ..      POP      {r4,pc}
    ext_gpio9_activelow_isr
        0x00001844:    b510        ..      PUSH     {r4,lr}
        0x00001846:    a00f        ..      ADR      r0,{pc}+0x3e ; 0x1884
        0x00001848:    f003fd06    ....    BL       __2printf ; 0x5258
        0x0000184c:    bd10        ..      POP      {r4,pc}
    ext_gpio10_activelow_isr
        0x0000184e:    b510        ..      PUSH     {r4,lr}
        0x00001850:    a016        ..      ADR      r0,{pc}+0x5c ; 0x18ac
        0x00001852:    f003fd01    ....    BL       __2printf ; 0x5258
        0x00001856:    bd10        ..      POP      {r4,pc}
    $d
        0x00001858:    53040000    ...S    DCD    1392771072
        0x0000185c:    65747845    Exte    DCD    1702131781
        0x00001860:    6c616e72    rnal    DCD    1818324594
        0x00001864:    746e4920     Int    DCD    1953384736
        0x00001868:    75727265    erru    DCD    1970434661
        0x0000186c:    47207470    pt G    DCD    1193309296
        0x00001870:    334f4950    PIO3    DCD    860834128
        0x00001874:    69727420     tri    DCD    1769108512
        0x00001878:    72656767    gger    DCD    1919248231
        0x0000187c:    0a0d6465    ed..    DCD    168649829
        0x00001880:    00000000    ....    DCD    0
        0x00001884:    65747845    Exte    DCD    1702131781
        0x00001888:    6c616e72    rnal    DCD    1818324594
        0x0000188c:    746e4920     Int    DCD    1953384736
        0x00001890:    75727265    erru    DCD    1970434661
        0x00001894:    47207470    pt G    DCD    1193309296
        0x00001898:    394f4950    PIO9    DCD    961497424
        0x0000189c:    69727420     tri    DCD    1769108512
        0x000018a0:    72656767    gger    DCD    1919248231
        0x000018a4:    0a0d6465    ed..    DCD    168649829
        0x000018a8:    00000000    ....    DCD    0
        0x000018ac:    65747845    Exte    DCD    1702131781
        0x000018b0:    6c616e72    rnal    DCD    1818324594
        0x000018b4:    746e4920     Int    DCD    1953384736
        0x000018b8:    75727265    erru    DCD    1970434661
        0x000018bc:    47207470    pt G    DCD    1193309296
        0x000018c0:    314f4950    PIO1    DCD    827279696
        0x000018c4:    72742030    0 tr    DCD    1920213040
        0x000018c8:    65676769    igge    DCD    1701275497
        0x000018cc:    0d646572    red.    DCD    224683378
        0x000018d0:    0000000a    ....    DCD    10
    $t
    .text
    uart_tx_isr
        0x000018d4:    b510        ..      PUSH     {r4,lr}
        0x000018d6:    4836        6H      LDR      r0,[pc,#216] ; [0x19b0] = 0x2000005c
        0x000018d8:    7800        .x      LDRB     r0,[r0,#0]
        0x000018da:    2800        .(      CMP      r0,#0
        0x000018dc:    d009        ..      BEQ      0x18f2 ; uart_tx_isr + 30
        0x000018de:    4835        5H      LDR      r0,[pc,#212] ; [0x19b4] = 0x2000005d
        0x000018e0:    7800        .x      LDRB     r0,[r0,#0]
        0x000018e2:    2110        .!      MOVS     r1,#0x10
        0x000018e4:    4048        H@      EORS     r0,r0,r1
        0x000018e6:    2151        Q!      MOVS     r1,#0x51
        0x000018e8:    0609        ..      LSLS     r1,r1,#24
        0x000018ea:    6008        .`      STR      r0,[r1,#0]
        0x000018ec:    2000        .       MOVS     r0,#0
        0x000018ee:    4930        0I      LDR      r1,[pc,#192] ; [0x19b0] = 0x2000005c
        0x000018f0:    7008        .p      STRB     r0,[r1,#0]
        0x000018f2:    4831        1H      LDR      r0,[pc,#196] ; [0x19b8] = 0x20000054
        0x000018f4:    6800        .h      LDR      r0,[r0,#0]
        0x000018f6:    2800        .(      CMP      r0,#0
        0x000018f8:    d002        ..      BEQ      0x1900 ; uart_tx_isr + 44
        0x000018fa:    482f        /H      LDR      r0,[pc,#188] ; [0x19b8] = 0x20000054
        0x000018fc:    6800        .h      LDR      r0,[r0,#0]
        0x000018fe:    4780        .G      BLX      r0
        0x00001900:    bd10        ..      POP      {r4,pc}
    uart_read
        0x00001902:    2051        Q       MOVS     r0,#0x51
        0x00001904:    0600        ..      LSLS     r0,r0,#24
        0x00001906:    7800        .x      LDRB     r0,[r0,#0]
        0x00001908:    4770        pG      BX       lr
    uart_rx_isr
        0x0000190a:    b510        ..      PUSH     {r4,lr}
        0x0000190c:    482b        +H      LDR      r0,[pc,#172] ; [0x19bc] = 0x20000058
        0x0000190e:    6800        .h      LDR      r0,[r0,#0]
        0x00001910:    2800        .(      CMP      r0,#0
        0x00001912:    d005        ..      BEQ      0x1920 ; uart_rx_isr + 22
        0x00001914:    f7fffff5    ....    BL       uart_read ; 0x1902
        0x00001918:    4604        .F      MOV      r4,r0
        0x0000191a:    4928        (I      LDR      r1,[pc,#160] ; [0x19bc] = 0x20000058
        0x0000191c:    6809        .h      LDR      r1,[r1,#0]
        0x0000191e:    4788        .G      BLX      r1
        0x00001920:    bd10        ..      POP      {r4,pc}
    uart_set_tx_callback
        0x00001922:    4925        %I      LDR      r1,[pc,#148] ; [0x19b8] = 0x20000054
        0x00001924:    6008        .`      STR      r0,[r1,#0]
        0x00001926:    4770        pG      BX       lr
    uart_set_rx_callback
        0x00001928:    4924        $I      LDR      r1,[pc,#144] ; [0x19bc] = 0x20000058
        0x0000192a:    6008        .`      STR      r0,[r1,#0]
        0x0000192c:    4770        pG      BX       lr
    uart_enable_interrupt
        0x0000192e:    b510        ..      PUSH     {r4,lr}
        0x00001930:    4823        #H      LDR      r0,[pc,#140] ; [0x19c0] = 0xe000e100
        0x00001932:    6800        .h      LDR      r0,[r0,#0]
        0x00001934:    2101        .!      MOVS     r1,#1
        0x00001936:    4308        .C      ORRS     r0,r0,r1
        0x00001938:    4921        !I      LDR      r1,[pc,#132] ; [0x19c0] = 0xe000e100
        0x0000193a:    6008        .`      STR      r0,[r1,#0]
        0x0000193c:    4608        .F      MOV      r0,r1
        0x0000193e:    6801        .h      LDR      r1,[r0,#0]
        0x00001940:    a020         .      ADR      r0,{pc}+0x84 ; 0x19c4
        0x00001942:    f003fc89    ....    BL       __2printf ; 0x5258
        0x00001946:    bd10        ..      POP      {r4,pc}
    uart_disable_interrupt
        0x00001948:    b510        ..      PUSH     {r4,lr}
        0x0000194a:    481d        .H      LDR      r0,[pc,#116] ; [0x19c0] = 0xe000e100
        0x0000194c:    3080        .0      ADDS     r0,r0,#0x80
        0x0000194e:    6800        .h      LDR      r0,[r0,#0]
        0x00001950:    2101        .!      MOVS     r1,#1
        0x00001952:    4308        .C      ORRS     r0,r0,r1
        0x00001954:    491a        .I      LDR      r1,[pc,#104] ; [0x19c0] = 0xe000e100
        0x00001956:    3180        .1      ADDS     r1,r1,#0x80
        0x00001958:    6008        .`      STR      r0,[r1,#0]
        0x0000195a:    4608        .F      MOV      r0,r1
        0x0000195c:    6801        .h      LDR      r1,[r0,#0]
        0x0000195e:    a021        !.      ADR      r0,{pc}+0x86 ; 0x19e4
        0x00001960:    f003fc7a    ..z.    BL       __2printf ; 0x5258
        0x00001964:    bd10        ..      POP      {r4,pc}
    uart_set_cts
        0x00001966:    2800        .(      CMP      r0,#0
        0x00001968:    d004        ..      BEQ      0x1974 ; uart_set_cts + 14
        0x0000196a:    2111        .!      MOVS     r1,#0x11
        0x0000196c:    2251        Q"      MOVS     r2,#0x51
        0x0000196e:    0612        ..      LSLS     r2,r2,#24
        0x00001970:    6011        .`      STR      r1,[r2,#0]
        0x00001972:    e003        ..      B        0x197c ; uart_set_cts + 22
        0x00001974:    2113        .!      MOVS     r1,#0x13
        0x00001976:    2251        Q"      MOVS     r2,#0x51
        0x00001978:    0612        ..      LSLS     r2,r2,#24
        0x0000197a:    6011        .`      STR      r1,[r2,#0]
        0x0000197c:    4770        pG      BX       lr
    uart_write
        0x0000197e:    b510        ..      PUSH     {r4,lr}
        0x00001980:    4604        .F      MOV      r4,r0
        0x00001982:    2c13        .,      CMP      r4,#0x13
        0x00001984:    d003        ..      BEQ      0x198e ; uart_write + 16
        0x00001986:    2c11        .,      CMP      r4,#0x11
        0x00001988:    d001        ..      BEQ      0x198e ; uart_write + 16
        0x0000198a:    2c10        .,      CMP      r4,#0x10
        0x0000198c:    d109        ..      BNE      0x19a2 ; uart_write + 36
        0x0000198e:    2001        .       MOVS     r0,#1
        0x00001990:    4907        .I      LDR      r1,[pc,#28] ; [0x19b0] = 0x2000005c
        0x00001992:    7008        .p      STRB     r0,[r1,#0]
        0x00001994:    4807        .H      LDR      r0,[pc,#28] ; [0x19b4] = 0x2000005d
        0x00001996:    7004        .p      STRB     r4,[r0,#0]
        0x00001998:    2012        .       MOVS     r0,#0x12
        0x0000199a:    2151        Q!      MOVS     r1,#0x51
        0x0000199c:    0609        ..      LSLS     r1,r1,#24
        0x0000199e:    6008        .`      STR      r0,[r1,#0]
        0x000019a0:    e002        ..      B        0x19a8 ; uart_write + 42
        0x000019a2:    2051        Q       MOVS     r0,#0x51
        0x000019a4:    0600        ..      LSLS     r0,r0,#24
        0x000019a6:    6004        .`      STR      r4,[r0,#0]
        0x000019a8:    f7ffff94    ....    BL       uart_tx_isr ; 0x18d4
        0x000019ac:    bd10        ..      POP      {r4,pc}
    $d
        0x000019ae:    0000        ..      DCW    0
        0x000019b0:    2000005c    \..     DCD    536871004
        0x000019b4:    2000005d    ]..     DCD    536871005
        0x000019b8:    20000054    T..     DCD    536870996
        0x000019bc:    20000058    X..     DCD    536871000
        0x000019c0:    e000e100    ....    DCD    3758153984
        0x000019c4:    54524155    UART    DCD    1414676821
        0x000019c8:    746e6920     int    DCD    1953392928
        0x000019cc:    75727265    erru    DCD    1970434661
        0x000019d0:    65207470    pt e    DCD    1696625776
        0x000019d4:    6c62616e    nabl    DCD    1818386798
        0x000019d8:    203a6465    ed:     DCD    540697701
        0x000019dc:    78257830    0x%x    DCD    2015721520
        0x000019e0:    00000a2e    ....    DCD    2606
        0x000019e4:    54524155    UART    DCD    1414676821
        0x000019e8:    746e6920     int    DCD    1953392928
        0x000019ec:    75727265    erru    DCD    1970434661
        0x000019f0:    64207470    pt d    DCD    1679848560
        0x000019f4:    62617369    isab    DCD    1650553705
        0x000019f8:    3a64656c    led:    DCD    979658092
        0x000019fc:    25783020     0x%    DCD    628633632
        0x00001a00:    000a2e78    x...    DCD    667256
    $t
    .text
    rftimer_init
        0x00001a04:    b510        ..      PUSH     {r4,lr}
        0x00001a06:    212c        ,!      MOVS     r1,#0x2c
        0x00001a08:    485c        \H      LDR      r0,[pc,#368] ; [0x1b7c] = 0x20000574
        0x00001a0a:    f003fd8b    ....    BL       __aeabi_memclr4 ; 0x5524
        0x00001a0e:    2000        .       MOVS     r0,#0
        0x00001a10:    43c0        .C      MVNS     r0,r0
        0x00001a12:    2121        !!      MOVS     r1,#0x21
        0x00001a14:    0649        I.      LSLS     r1,r1,#25
        0x00001a16:    6088        .`      STR      r0,[r1,#8]
        0x00001a18:    2007        .       MOVS     r0,#7
        0x00001a1a:    6008        .`      STR      r0,[r1,#0]
        0x00001a1c:    bd10        ..      POP      {r4,pc}
    rftimer_set_callback_by_id
        0x00001a1e:    008a        ..      LSLS     r2,r1,#2
        0x00001a20:    4b56        VK      LDR      r3,[pc,#344] ; [0x1b7c] = 0x20000574
        0x00001a22:    5098        .P      STR      r0,[r3,r2]
        0x00001a24:    4770        pG      BX       lr
    rftimer_set_callback
        0x00001a26:    b510        ..      PUSH     {r4,lr}
        0x00001a28:    4604        .F      MOV      r4,r0
        0x00001a2a:    2100        .!      MOVS     r1,#0
        0x00001a2c:    4620         F      MOV      r0,r4
        0x00001a2e:    f7fffff6    ....    BL       rftimer_set_callback_by_id ; 0x1a1e
        0x00001a32:    bd10        ..      POP      {r4,pc}
    rftimer_enable_interrupts
        0x00001a34:    2080        .       MOVS     r0,#0x80
        0x00001a36:    4952        RI      LDR      r1,[pc,#328] ; [0x1b80] = 0xe000e100
        0x00001a38:    6008        .`      STR      r0,[r1,#0]
        0x00001a3a:    4770        pG      BX       lr
    rftimer_clear_interrupts_by_id
        0x00001a3c:    2101        .!      MOVS     r1,#1
        0x00001a3e:    4081        .@      LSLS     r1,r1,r0
        0x00001a40:    4a50        PJ      LDR      r2,[pc,#320] ; [0x1b84] = 0x42000040
        0x00001a42:    6351        Qc      STR      r1,[r2,#0x34]
        0x00001a44:    4770        pG      BX       lr
    rftimer_enable_interrupts_by_id
        0x00001a46:    b500        ..      PUSH     {lr}
        0x00001a48:    4603        .F      MOV      r3,r0
        0x00001a4a:    4618        .F      MOV      r0,r3
        0x00001a4c:    f7fffff6    ....    BL       rftimer_clear_interrupts_by_id ; 0x1a3c
        0x00001a50:    2003        .       MOVS     r0,#3
        0x00001a52:    0099        ..      LSLS     r1,r3,#2
        0x00001a54:    4a4c        LJ      LDR      r2,[pc,#304] ; [0x1b88] = 0x20000090
        0x00001a56:    5851        QX      LDR      r1,[r2,r1]
        0x00001a58:    6008        .`      STR      r0,[r1,#0]
        0x00001a5a:    bd00        ..      POP      {pc}
    rftimer_setCompareIn_by_id
        0x00001a5c:    b530        0.      PUSH     {r4,r5,lr}
        0x00001a5e:    4604        .F      MOV      r4,r0
        0x00001a60:    460d        .F      MOV      r5,r1
        0x00001a62:    4628        (F      MOV      r0,r5
        0x00001a64:    f7ffffef    ....    BL       rftimer_enable_interrupts_by_id ; 0x1a46
        0x00001a68:    f7ffffe4    ....    BL       rftimer_enable_interrupts ; 0x1a34
        0x00001a6c:    2021        !       MOVS     r0,#0x21
        0x00001a6e:    0640        @.      LSLS     r0,r0,#25
        0x00001a70:    6840        @h      LDR      r0,[r0,#4]
        0x00001a72:    1a20         .      SUBS     r0,r4,r0
        0x00001a74:    4945        EI      LDR      r1,[pc,#276] ; [0x1b8c] = 0xffff
        0x00001a76:    4288        .B      CMP      r0,r1
        0x00001a78:    d302        ..      BCC      0x1a80 ; rftimer_setCompareIn_by_id + 36
        0x00001a7a:    2001        .       MOVS     r0,#1
        0x00001a7c:    4941        AI      LDR      r1,[pc,#260] ; [0x1b84] = 0x42000040
        0x00001a7e:    6308        .c      STR      r0,[r1,#0x30]
        0x00001a80:    00a8        ..      LSLS     r0,r5,#2
        0x00001a82:    4943        CI      LDR      r1,[pc,#268] ; [0x1b90] = 0x20000070
        0x00001a84:    5808        .X      LDR      r0,[r1,r0]
        0x00001a86:    6004        .`      STR      r4,[r0,#0]
        0x00001a88:    bd30        0.      POP      {r4,r5,pc}
    rftimer_setCompareIn
        0x00001a8a:    b510        ..      PUSH     {r4,lr}
        0x00001a8c:    4604        .F      MOV      r4,r0
        0x00001a8e:    2100        .!      MOVS     r1,#0
        0x00001a90:    4620         F      MOV      r0,r4
        0x00001a92:    f7ffffe3    ....    BL       rftimer_setCompareIn_by_id ; 0x1a5c
        0x00001a96:    bd10        ..      POP      {r4,pc}
    rftimer_readCounter
        0x00001a98:    2021        !       MOVS     r0,#0x21
        0x00001a9a:    0640        @.      LSLS     r0,r0,#25
        0x00001a9c:    6840        @h      LDR      r0,[r0,#4]
        0x00001a9e:    4770        pG      BX       lr
    rftimer_disable_interrupts
        0x00001aa0:    2080        .       MOVS     r0,#0x80
        0x00001aa2:    4937        7I      LDR      r1,[pc,#220] ; [0x1b80] = 0xe000e100
        0x00001aa4:    3180        .1      ADDS     r1,r1,#0x80
        0x00001aa6:    6008        .`      STR      r0,[r1,#0]
        0x00001aa8:    4770        pG      BX       lr
    rftimer_disable_interrupts_by_id
        0x00001aaa:    2100        .!      MOVS     r1,#0
        0x00001aac:    0082        ..      LSLS     r2,r0,#2
        0x00001aae:    4b36        6K      LDR      r3,[pc,#216] ; [0x1b88] = 0x20000090
        0x00001ab0:    589a        .X      LDR      r2,[r3,r2]
        0x00001ab2:    6011        .`      STR      r1,[r2,#0]
        0x00001ab4:    4770        pG      BX       lr
    rftimer_clear_interrupts
        0x00001ab6:    b500        ..      PUSH     {lr}
        0x00001ab8:    2000        .       MOVS     r0,#0
        0x00001aba:    f7ffffbf    ....    BL       rftimer_clear_interrupts_by_id ; 0x1a3c
        0x00001abe:    bd00        ..      POP      {pc}
    rftimer_set_repeat
        0x00001ac0:    4a34        4J      LDR      r2,[pc,#208] ; [0x1b94] = 0x20000068
        0x00001ac2:    5450        PT      STRB     r0,[r2,r1]
        0x00001ac4:    4770        pG      BX       lr
    delay_milliseconds_asynchronous
        0x00001ac6:    b5f0        ..      PUSH     {r4-r7,lr}
        0x00001ac8:    4604        .F      MOV      r4,r0
        0x00001aca:    460d        .F      MOV      r5,r1
        0x00001acc:    20ff        .       MOVS     r0,#0xff
        0x00001ace:    30f5        .0      ADDS     r0,r0,#0xf5
        0x00001ad0:    4360        `C      MULS     r0,r4,r0
        0x00001ad2:    4606        .F      MOV      r6,r0
        0x00001ad4:    4628        (F      MOV      r0,r5
        0x00001ad6:    f7ffffb6    ....    BL       rftimer_enable_interrupts_by_id ; 0x1a46
        0x00001ada:    f7ffffab    ....    BL       rftimer_enable_interrupts ; 0x1a34
        0x00001ade:    00a8        ..      LSLS     r0,r5,#2
        0x00001ae0:    492d        -I      LDR      r1,[pc,#180] ; [0x1b98] = 0x200005a0
        0x00001ae2:    500c        .P      STR      r4,[r1,r0]
        0x00001ae4:    f7ffffd8    ....    BL       rftimer_readCounter ; 0x1a98
        0x00001ae8:    1987        ..      ADDS     r7,r0,r6
        0x00001aea:    4629        )F      MOV      r1,r5
        0x00001aec:    4638        8F      MOV      r0,r7
        0x00001aee:    f7ffffb5    ....    BL       rftimer_setCompareIn_by_id ; 0x1a5c
        0x00001af2:    bdf0        ..      POP      {r4-r7,pc}
    delay_milliseconds_synchronous
        0x00001af4:    b530        0.      PUSH     {r4,r5,lr}
        0x00001af6:    4605        .F      MOV      r5,r0
        0x00001af8:    460c        .F      MOV      r4,r1
        0x00001afa:    2000        .       MOVS     r0,#0
        0x00001afc:    4927        'I      LDR      r1,[pc,#156] ; [0x1b9c] = 0x20000060
        0x00001afe:    5508        .U      STRB     r0,[r1,r4]
        0x00001b00:    4621        !F      MOV      r1,r4
        0x00001b02:    4628        (F      MOV      r0,r5
        0x00001b04:    f7ffffdf    ....    BL       delay_milliseconds_asynchronous ; 0x1ac6
        0x00001b08:    bf00        ..      NOP      
        0x00001b0a:    4824        $H      LDR      r0,[pc,#144] ; [0x1b9c] = 0x20000060
        0x00001b0c:    5d00        .]      LDRB     r0,[r0,r4]
        0x00001b0e:    2800        .(      CMP      r0,#0
        0x00001b10:    d0fb        ..      BEQ      0x1b0a ; delay_milliseconds_synchronous + 22
        0x00001b12:    bd30        0.      POP      {r4,r5,pc}
    handle_interrupt
        0x00001b14:    b510        ..      PUSH     {r4,lr}
        0x00001b16:    4604        .F      MOV      r4,r0
        0x00001b18:    2001        .       MOVS     r0,#1
        0x00001b1a:    4920         I      LDR      r1,[pc,#128] ; [0x1b9c] = 0x20000060
        0x00001b1c:    5508        .U      STRB     r0,[r1,r4]
        0x00001b1e:    481d        .H      LDR      r0,[pc,#116] ; [0x1b94] = 0x20000068
        0x00001b20:    5d00        .]      LDRB     r0,[r0,r4]
        0x00001b22:    2800        .(      CMP      r0,#0
        0x00001b24:    d005        ..      BEQ      0x1b32 ; handle_interrupt + 30
        0x00001b26:    00a1        ..      LSLS     r1,r4,#2
        0x00001b28:    4a1b        .J      LDR      r2,[pc,#108] ; [0x1b98] = 0x200005a0
        0x00001b2a:    5850        PX      LDR      r0,[r2,r1]
        0x00001b2c:    4621        !F      MOV      r1,r4
        0x00001b2e:    f7ffffca    ....    BL       delay_milliseconds_asynchronous ; 0x1ac6
        0x00001b32:    00a0        ..      LSLS     r0,r4,#2
        0x00001b34:    4911        .I      LDR      r1,[pc,#68] ; [0x1b7c] = 0x20000574
        0x00001b36:    5808        .X      LDR      r0,[r1,r0]
        0x00001b38:    2800        .(      CMP      r0,#0
        0x00001b3a:    d004        ..      BEQ      0x1b46 ; handle_interrupt + 50
        0x00001b3c:    00a1        ..      LSLS     r1,r4,#2
        0x00001b3e:    4a0f        .J      LDR      r2,[pc,#60] ; [0x1b7c] = 0x20000574
        0x00001b40:    5850        PX      LDR      r0,[r2,r1]
        0x00001b42:    4780        .G      BLX      r0
        0x00001b44:    e003        ..      B        0x1b4e ; handle_interrupt + 58
        0x00001b46:    4621        !F      MOV      r1,r4
        0x00001b48:    a015        ..      ADR      r0,{pc}+0x58 ; 0x1ba0
        0x00001b4a:    f003fb85    ....    BL       __2printf ; 0x5258
        0x00001b4e:    bd10        ..      POP      {r4,pc}
    rftimer_isr
        0x00001b50:    b570        p.      PUSH     {r4-r6,lr}
        0x00001b52:    2400        .$      MOVS     r4,#0
        0x00001b54:    2601        .&      MOVS     r6,#1
        0x00001b56:    480b        .H      LDR      r0,[pc,#44] ; [0x1b84] = 0x42000040
        0x00001b58:    8e00        ..      LDRH     r0,[r0,#0x30]
        0x00001b5a:    b285        ..      UXTH     r5,r0
        0x00001b5c:    bf00        ..      NOP      
        0x00001b5e:    e008        ..      B        0x1b72 ; rftimer_isr + 34
        0x00001b60:    4628        (F      MOV      r0,r5
        0x00001b62:    4030        0@      ANDS     r0,r0,r6
        0x00001b64:    2800        .(      CMP      r0,#0
        0x00001b66:    d002        ..      BEQ      0x1b6e ; rftimer_isr + 30
        0x00001b68:    b2e0        ..      UXTB     r0,r4
        0x00001b6a:    f7ffffd3    ....    BL       handle_interrupt ; 0x1b14
        0x00001b6e:    0076        v.      LSLS     r6,r6,#1
        0x00001b70:    1c64        d.      ADDS     r4,r4,#1
        0x00001b72:    2c08        .,      CMP      r4,#8
        0x00001b74:    dbf4        ..      BLT      0x1b60 ; rftimer_isr + 16
        0x00001b76:    4803        .H      LDR      r0,[pc,#12] ; [0x1b84] = 0x42000040
        0x00001b78:    6345        Ec      STR      r5,[r0,#0x34]
        0x00001b7a:    bd70        p.      POP      {r4-r6,pc}
    $d
        0x00001b7c:    20000574    t..     DCD    536872308
        0x00001b80:    e000e100    ....    DCD    3758153984
        0x00001b84:    42000040    @..B    DCD    1107296320
        0x00001b88:    20000090    ...     DCD    536871056
        0x00001b8c:    0000ffff    ....    DCD    65535
        0x00001b90:    20000070    p..     DCD    536871024
        0x00001b94:    20000068    h..     DCD    536871016
        0x00001b98:    200005a0    ...     DCD    536872352
        0x00001b9c:    20000060    `..     DCD    536871008
        0x00001ba0:    65746e69    inte    DCD    1702129257
        0x00001ba4:    70757272    rrup    DCD    1886745202
        0x00001ba8:    64252074    t %d    DCD    1680154740
        0x00001bac:    6c616320     cal    DCD    1818321696
        0x00001bb0:    2c64656c    led,    DCD    744777068
        0x00001bb4:    74756220     but    DCD    1953849888
        0x00001bb8:    64616820     had    DCD    1684105248
        0x00001bbc:    206f6e20     no     DCD    544173600
        0x00001bc0:    6c6c6163    call    DCD    1819042147
        0x00001bc4:    6b636162    back    DCD    1801675106
        0x00001bc8:    66656420     def    DCD    1717920800
        0x00001bcc:    64656e69    ined    DCD    1684369001
        0x00001bd0:    00000a2e    ....    DCD    2606
    $t
    .text
    scm3c_hw_interface_init
        0x00001bd4:    b510        ..      PUSH     {r4,lr}
        0x00001bd6:    21cc        .!      MOVS     r1,#0xcc
        0x00001bd8:    48f7        .H      LDR      r0,[pc,#988] ; [0x1fb8] = 0x200005c0
        0x00001bda:    f003fca3    ....    BL       __aeabi_memclr4 ; 0x5524
        0x00001bde:    2111        .!      MOVS     r1,#0x11
        0x00001be0:    48f5        .H      LDR      r0,[pc,#980] ; [0x1fb8] = 0x200005c0
        0x00001be2:    3080        .0      ADDS     r0,r0,#0x80
        0x00001be4:    62c1        .b      STR      r1,[r0,#0x2c]
        0x00001be6:    2103        .!      MOVS     r1,#3
        0x00001be8:    6301        .c      STR      r1,[r0,#0x30]
        0x00001bea:    2115        .!      MOVS     r1,#0x15
        0x00001bec:    6341        Ac      STR      r1,[r0,#0x34]
        0x00001bee:    210f        .!      MOVS     r1,#0xf
        0x00001bf0:    6381        .c      STR      r1,[r0,#0x38]
        0x00001bf2:    63c1        .c      STR      r1,[r0,#0x3c]
        0x00001bf4:    49f1        .I      LDR      r1,[pc,#964] ; [0x1fbc] = 0x186a00
        0x00001bf6:    6401        .d      STR      r1,[r0,#0x40]
        0x00001bf8:    2116        .!      MOVS     r1,#0x16
        0x00001bfa:    6441        Ad      STR      r1,[r0,#0x44]
        0x00001bfc:    2112        .!      MOVS     r1,#0x12
        0x00001bfe:    6481        .d      STR      r1,[r0,#0x48]
        0x00001c00:    2214        ."      MOVS     r2,#0x14
        0x00001c02:    49ef        .I      LDR      r1,[pc,#956] ; [0x1fc0] = 0x5a1c
        0x00001c04:    3018        .0      ADDS     r0,r0,#0x18
        0x00001c06:    f7fefaa9    ....    BL       __aeabi_memcpy4 ; 0x15c
        0x00001c0a:    bd10        ..      POP      {r4,pc}
    scm3c_hw_interface_get_HF_CLOCK_fine
        0x00001c0c:    48ea        .H      LDR      r0,[pc,#936] ; [0x1fb8] = 0x200005c0
        0x00001c0e:    3080        .0      ADDS     r0,r0,#0x80
        0x00001c10:    6ac0        .j      LDR      r0,[r0,#0x2c]
        0x00001c12:    4770        pG      BX       lr
    scm3c_hw_interface_get_HF_CLOCK_coarse
        0x00001c14:    48e8        .H      LDR      r0,[pc,#928] ; [0x1fb8] = 0x200005c0
        0x00001c16:    3080        .0      ADDS     r0,r0,#0x80
        0x00001c18:    6b00        .k      LDR      r0,[r0,#0x30]
        0x00001c1a:    4770        pG      BX       lr
    scm3c_hw_interface_get_RC2M_coarse
        0x00001c1c:    48e6        .H      LDR      r0,[pc,#920] ; [0x1fb8] = 0x200005c0
        0x00001c1e:    3080        .0      ADDS     r0,r0,#0x80
        0x00001c20:    6b40        @k      LDR      r0,[r0,#0x34]
        0x00001c22:    4770        pG      BX       lr
    scm3c_hw_interface_get_RC2M_fine
        0x00001c24:    48e4        .H      LDR      r0,[pc,#912] ; [0x1fb8] = 0x200005c0
        0x00001c26:    3080        .0      ADDS     r0,r0,#0x80
        0x00001c28:    6b80        .k      LDR      r0,[r0,#0x38]
        0x00001c2a:    4770        pG      BX       lr
    scm3c_hw_interface_get_RC2M_superfine
        0x00001c2c:    48e2        .H      LDR      r0,[pc,#904] ; [0x1fb8] = 0x200005c0
        0x00001c2e:    3080        .0      ADDS     r0,r0,#0x80
        0x00001c30:    6bc0        .k      LDR      r0,[r0,#0x3c]
        0x00001c32:    4770        pG      BX       lr
    scm3c_hw_interface_get_IF_clk_target
        0x00001c34:    48e0        .H      LDR      r0,[pc,#896] ; [0x1fb8] = 0x200005c0
        0x00001c36:    3080        .0      ADDS     r0,r0,#0x80
        0x00001c38:    6c00        .l      LDR      r0,[r0,#0x40]
        0x00001c3a:    4770        pG      BX       lr
    scm3c_hw_interface_get_IF_coarse
        0x00001c3c:    48de        .H      LDR      r0,[pc,#888] ; [0x1fb8] = 0x200005c0
        0x00001c3e:    3080        .0      ADDS     r0,r0,#0x80
        0x00001c40:    6c40        @l      LDR      r0,[r0,#0x44]
        0x00001c42:    4770        pG      BX       lr
    scm3c_hw_interface_get_IF_fine
        0x00001c44:    48dc        .H      LDR      r0,[pc,#880] ; [0x1fb8] = 0x200005c0
        0x00001c46:    3080        .0      ADDS     r0,r0,#0x80
        0x00001c48:    6c80        .l      LDR      r0,[r0,#0x48]
        0x00001c4a:    4770        pG      BX       lr
    scm3c_hw_interface_set_HF_CLOCK_fine
        0x00001c4c:    49da        .I      LDR      r1,[pc,#872] ; [0x1fb8] = 0x200005c0
        0x00001c4e:    3180        .1      ADDS     r1,r1,#0x80
        0x00001c50:    62c8        .b      STR      r0,[r1,#0x2c]
        0x00001c52:    4770        pG      BX       lr
    scm3c_hw_interface_set_HF_CLOCK_coarse
        0x00001c54:    49d8        .I      LDR      r1,[pc,#864] ; [0x1fb8] = 0x200005c0
        0x00001c56:    3180        .1      ADDS     r1,r1,#0x80
        0x00001c58:    6308        .c      STR      r0,[r1,#0x30]
        0x00001c5a:    4770        pG      BX       lr
    scm3c_hw_interface_set_RC2M_coarse
        0x00001c5c:    49d6        .I      LDR      r1,[pc,#856] ; [0x1fb8] = 0x200005c0
        0x00001c5e:    3180        .1      ADDS     r1,r1,#0x80
        0x00001c60:    6348        Hc      STR      r0,[r1,#0x34]
        0x00001c62:    4770        pG      BX       lr
    scm3c_hw_interface_set_RC2M_fine
        0x00001c64:    49d4        .I      LDR      r1,[pc,#848] ; [0x1fb8] = 0x200005c0
        0x00001c66:    3180        .1      ADDS     r1,r1,#0x80
        0x00001c68:    6388        .c      STR      r0,[r1,#0x38]
        0x00001c6a:    4770        pG      BX       lr
    scm3c_hw_interface_set_RC2M_superfine
        0x00001c6c:    49d2        .I      LDR      r1,[pc,#840] ; [0x1fb8] = 0x200005c0
        0x00001c6e:    3180        .1      ADDS     r1,r1,#0x80
        0x00001c70:    63c8        .c      STR      r0,[r1,#0x3c]
        0x00001c72:    4770        pG      BX       lr
    scm3c_hw_interface_set_IF_clk_target
        0x00001c74:    49d0        .I      LDR      r1,[pc,#832] ; [0x1fb8] = 0x200005c0
        0x00001c76:    3180        .1      ADDS     r1,r1,#0x80
        0x00001c78:    6408        .d      STR      r0,[r1,#0x40]
        0x00001c7a:    4770        pG      BX       lr
    scm3c_hw_interface_set_IF_coarse
        0x00001c7c:    49ce        .I      LDR      r1,[pc,#824] ; [0x1fb8] = 0x200005c0
        0x00001c7e:    3180        .1      ADDS     r1,r1,#0x80
        0x00001c80:    6448        Hd      STR      r0,[r1,#0x44]
        0x00001c82:    4770        pG      BX       lr
    scm3c_hw_interface_set_IF_fine
        0x00001c84:    49cc        .I      LDR      r1,[pc,#816] ; [0x1fb8] = 0x200005c0
        0x00001c86:    3180        .1      ADDS     r1,r1,#0x80
        0x00001c88:    6488        .d      STR      r0,[r1,#0x48]
        0x00001c8a:    4770        pG      BX       lr
    scm3c_hw_interface_set_asc
        0x00001c8c:    b510        ..      PUSH     {r4,lr}
        0x00001c8e:    4604        .F      MOV      r4,r0
        0x00001c90:    2298        ."      MOVS     r2,#0x98
        0x00001c92:    4621        !F      MOV      r1,r4
        0x00001c94:    48c8        .H      LDR      r0,[pc,#800] ; [0x1fb8] = 0x200005c0
        0x00001c96:    f7fefa61    ..a.    BL       __aeabi_memcpy4 ; 0x15c
        0x00001c9a:    bd10        ..      POP      {r4,pc}
    reverse
        0x00001c9c:    49c9        .I      LDR      r1,[pc,#804] ; [0x1fc4] = 0x55555555
        0x00001c9e:    4001        .@      ANDS     r1,r1,r0
        0x00001ca0:    0049        I.      LSLS     r1,r1,#1
        0x00001ca2:    0842        B.      LSRS     r2,r0,#1
        0x00001ca4:    4bc7        .K      LDR      r3,[pc,#796] ; [0x1fc4] = 0x55555555
        0x00001ca6:    401a        .@      ANDS     r2,r2,r3
        0x00001ca8:    4311        .C      ORRS     r1,r1,r2
        0x00001caa:    4608        .F      MOV      r0,r1
        0x00001cac:    49c6        .I      LDR      r1,[pc,#792] ; [0x1fc8] = 0x33333333
        0x00001cae:    4001        .@      ANDS     r1,r1,r0
        0x00001cb0:    0089        ..      LSLS     r1,r1,#2
        0x00001cb2:    0882        ..      LSRS     r2,r0,#2
        0x00001cb4:    4bc4        .K      LDR      r3,[pc,#784] ; [0x1fc8] = 0x33333333
        0x00001cb6:    401a        .@      ANDS     r2,r2,r3
        0x00001cb8:    4311        .C      ORRS     r1,r1,r2
        0x00001cba:    4608        .F      MOV      r0,r1
        0x00001cbc:    49c3        .I      LDR      r1,[pc,#780] ; [0x1fcc] = 0xf0f0f0f
        0x00001cbe:    4001        .@      ANDS     r1,r1,r0
        0x00001cc0:    0109        ..      LSLS     r1,r1,#4
        0x00001cc2:    0902        ..      LSRS     r2,r0,#4
        0x00001cc4:    4bc1        .K      LDR      r3,[pc,#772] ; [0x1fcc] = 0xf0f0f0f
        0x00001cc6:    401a        .@      ANDS     r2,r2,r3
        0x00001cc8:    4311        .C      ORRS     r1,r1,r2
        0x00001cca:    4608        .F      MOV      r0,r1
        0x00001ccc:    0601        ..      LSLS     r1,r0,#24
        0x00001cce:    22ff        ."      MOVS     r2,#0xff
        0x00001cd0:    0212        ..      LSLS     r2,r2,#8
        0x00001cd2:    4002        .@      ANDS     r2,r2,r0
        0x00001cd4:    0212        ..      LSLS     r2,r2,#8
        0x00001cd6:    4311        .C      ORRS     r1,r1,r2
        0x00001cd8:    0a02        ..      LSRS     r2,r0,#8
        0x00001cda:    23ff        .#      MOVS     r3,#0xff
        0x00001cdc:    021b        ..      LSLS     r3,r3,#8
        0x00001cde:    401a        .@      ANDS     r2,r2,r3
        0x00001ce0:    4311        .C      ORRS     r1,r1,r2
        0x00001ce2:    0e02        ..      LSRS     r2,r0,#24
        0x00001ce4:    4311        .C      ORRS     r1,r1,r2
        0x00001ce6:    4608        .F      MOV      r0,r1
        0x00001ce8:    4770        pG      BX       lr
    crc32c
        0x00001cea:    b5f3        ..      PUSH     {r0,r1,r4-r7,lr}
        0x00001cec:    2500        .%      MOVS     r5,#0
        0x00001cee:    1e6c        l.      SUBS     r4,r5,#1
        0x00001cf0:    e016        ..      B        0x1d20 ; crc32c + 54
        0x00001cf2:    9800        ..      LDR      r0,[sp,#0]
        0x00001cf4:    5d46        F]      LDRB     r6,[r0,r5]
        0x00001cf6:    4630        0F      MOV      r0,r6
        0x00001cf8:    f7ffffd0    ....    BL       reverse ; 0x1c9c
        0x00001cfc:    4606        .F      MOV      r6,r0
        0x00001cfe:    2700        .'      MOVS     r7,#0
        0x00001d00:    e00b        ..      B        0x1d1a ; crc32c + 48
        0x00001d02:    4620         F      MOV      r0,r4
        0x00001d04:    4070        p@      EORS     r0,r0,r6
        0x00001d06:    2800        .(      CMP      r0,#0
        0x00001d08:    da04        ..      BGE      0x1d14 ; crc32c + 42
        0x00001d0a:    0060        `.      LSLS     r0,r4,#1
        0x00001d0c:    49b0        .I      LDR      r1,[pc,#704] ; [0x1fd0] = 0x4c11db7
        0x00001d0e:    4048        H@      EORS     r0,r0,r1
        0x00001d10:    4604        .F      MOV      r4,r0
        0x00001d12:    e000        ..      B        0x1d16 ; crc32c + 44
        0x00001d14:    0064        d.      LSLS     r4,r4,#1
        0x00001d16:    0076        v.      LSLS     r6,r6,#1
        0x00001d18:    1c7f        ..      ADDS     r7,r7,#1
        0x00001d1a:    2f07        ./      CMP      r7,#7
        0x00001d1c:    ddf1        ..      BLE      0x1d02 ; crc32c + 24
        0x00001d1e:    1c6d        m.      ADDS     r5,r5,#1
        0x00001d20:    9801        ..      LDR      r0,[sp,#4]
        0x00001d22:    4285        .B      CMP      r5,r0
        0x00001d24:    d3e5        ..      BCC      0x1cf2 ; crc32c + 8
        0x00001d26:    43e0        .C      MVNS     r0,r4
        0x00001d28:    f7ffffb8    ....    BL       reverse ; 0x1c9c
        0x00001d2c:    bdfc        ..      POP      {r2-r7,pc}
    crc_check
        0x00001d2e:    b510        ..      PUSH     {r4,lr}
        0x00001d30:    a0a8        ..      ADR      r0,{pc}+0x2a4 ; 0x1fd4
        0x00001d32:    f003fa91    ....    BL       __2printf ; 0x5258
        0x00001d36:    a0ad        ..      ADR      r0,{pc}+0x2b6 ; 0x1fec
        0x00001d38:    f003fa8e    ....    BL       __2printf ; 0x5258
        0x00001d3c:    48b3        .H      LDR      r0,[pc,#716] ; [0x200c] = 0xffc0
        0x00001d3e:    6b81        .k      LDR      r1,[r0,#0x38]
        0x00001d40:    2000        .       MOVS     r0,#0
        0x00001d42:    f7ffffd2    ....    BL       crc32c ; 0x1cea
        0x00001d46:    4604        .F      MOV      r4,r0
        0x00001d48:    48b0        .H      LDR      r0,[pc,#704] ; [0x200c] = 0xffc0
        0x00001d4a:    6bc0        .k      LDR      r0,[r0,#0x3c]
        0x00001d4c:    42a0        .B      CMP      r0,r4
        0x00001d4e:    d103        ..      BNE      0x1d58 ; crc_check + 42
        0x00001d50:    a0af        ..      ADR      r0,{pc}+0x2c0 ; 0x2010
        0x00001d52:    f003fa81    ....    BL       __2printf ; 0x5258
        0x00001d56:    e004        ..      B        0x1d62 ; crc_check + 52
        0x00001d58:    a0b0        ..      ADR      r0,{pc}+0x2c4 ; 0x201c
        0x00001d5a:    f003fa7d    ..}.    BL       __2printf ; 0x5258
        0x00001d5e:    bf00        ..      NOP      
        0x00001d60:    e7fe        ..      B        0x1d60 ; crc_check + 50
        0x00001d62:    bd10        ..      POP      {r4,pc}
    flipChar
        0x00001d64:    21f0        .!      MOVS     r1,#0xf0
        0x00001d66:    4001        .@      ANDS     r1,r1,r0
        0x00001d68:    1109        ..      ASRS     r1,r1,#4
        0x00001d6a:    0702        ..      LSLS     r2,r0,#28
        0x00001d6c:    0e12        ..      LSRS     r2,r2,#24
        0x00001d6e:    4311        .C      ORRS     r1,r1,r2
        0x00001d70:    4608        .F      MOV      r0,r1
        0x00001d72:    21cc        .!      MOVS     r1,#0xcc
        0x00001d74:    4001        .@      ANDS     r1,r1,r0
        0x00001d76:    1089        ..      ASRS     r1,r1,#2
        0x00001d78:    2233        3"      MOVS     r2,#0x33
        0x00001d7a:    4002        .@      ANDS     r2,r2,r0
        0x00001d7c:    0092        ..      LSLS     r2,r2,#2
        0x00001d7e:    4311        .C      ORRS     r1,r1,r2
        0x00001d80:    4608        .F      MOV      r0,r1
        0x00001d82:    21aa        .!      MOVS     r1,#0xaa
        0x00001d84:    4001        .@      ANDS     r1,r1,r0
        0x00001d86:    1049        I.      ASRS     r1,r1,#1
        0x00001d88:    2255        U"      MOVS     r2,#0x55
        0x00001d8a:    4002        .@      ANDS     r2,r2,r0
        0x00001d8c:    0052        R.      LSLS     r2,r2,#1
        0x00001d8e:    4311        .C      ORRS     r1,r1,r2
        0x00001d90:    4608        .F      MOV      r0,r1
        0x00001d92:    4770        pG      BX       lr
    clear_asc_bit
        0x00001d94:    b510        ..      PUSH     {r4,lr}
        0x00001d96:    0941        A.      LSRS     r1,r0,#5
        0x00001d98:    008a        ..      LSLS     r2,r1,#2
        0x00001d9a:    4b87        .K      LDR      r3,[pc,#540] ; [0x1fb8] = 0x200005c0
        0x00001d9c:    589a        .X      LDR      r2,[r3,r2]
        0x00001d9e:    014b        K.      LSLS     r3,r1,#5
        0x00001da0:    1ac4        ..      SUBS     r4,r0,r3
        0x00001da2:    2301        .#      MOVS     r3,#1
        0x00001da4:    07db        ..      LSLS     r3,r3,#31
        0x00001da6:    40e3        .@      LSRS     r3,r3,r4
        0x00001da8:    439a        .C      BICS     r2,r2,r3
        0x00001daa:    008b        ..      LSLS     r3,r1,#2
        0x00001dac:    4c82        .L      LDR      r4,[pc,#520] ; [0x1fb8] = 0x200005c0
        0x00001dae:    50e2        .P      STR      r2,[r4,r3]
        0x00001db0:    bf00        ..      NOP      
        0x00001db2:    bd10        ..      POP      {r4,pc}
    set_asc_bit
        0x00001db4:    b510        ..      PUSH     {r4,lr}
        0x00001db6:    0941        A.      LSRS     r1,r0,#5
        0x00001db8:    008a        ..      LSLS     r2,r1,#2
        0x00001dba:    4b7f        .K      LDR      r3,[pc,#508] ; [0x1fb8] = 0x200005c0
        0x00001dbc:    589a        .X      LDR      r2,[r3,r2]
        0x00001dbe:    014b        K.      LSLS     r3,r1,#5
        0x00001dc0:    1ac4        ..      SUBS     r4,r0,r3
        0x00001dc2:    2301        .#      MOVS     r3,#1
        0x00001dc4:    07db        ..      LSLS     r3,r3,#31
        0x00001dc6:    40e3        .@      LSRS     r3,r3,r4
        0x00001dc8:    431a        .C      ORRS     r2,r2,r3
        0x00001dca:    008b        ..      LSLS     r3,r1,#2
        0x00001dcc:    4c7a        zL      LDR      r4,[pc,#488] ; [0x1fb8] = 0x200005c0
        0x00001dce:    50e2        .P      STR      r2,[r4,r3]
        0x00001dd0:    bf00        ..      NOP      
        0x00001dd2:    bd10        ..      POP      {r4,pc}
    GPO_control
        0x00001dd4:    b5ff        ..      PUSH     {r0-r7,lr}
        0x00001dd6:    4605        .F      MOV      r5,r0
        0x00001dd8:    460e        .F      MOV      r6,r1
        0x00001dda:    4617        .F      MOV      r7,r2
        0x00001ddc:    2400        .$      MOVS     r4,#0
        0x00001dde:    e00f        ..      B        0x1e00 ; GPO_control + 44
        0x00001de0:    4628        (F      MOV      r0,r5
        0x00001de2:    4120         A      ASRS     r0,r0,r4
        0x00001de4:    07c0        ..      LSLS     r0,r0,#31
        0x00001de6:    0fc0        ..      LSRS     r0,r0,#31
        0x00001de8:    2800        .(      CMP      r0,#0
        0x00001dea:    d004        ..      BEQ      0x1df6 ; GPO_control + 34
        0x00001dec:    4620         F      MOV      r0,r4
        0x00001dee:    30f5        .0      ADDS     r0,r0,#0xf5
        0x00001df0:    f7ffffe0    ....    BL       set_asc_bit ; 0x1db4
        0x00001df4:    e003        ..      B        0x1dfe ; GPO_control + 42
        0x00001df6:    4620         F      MOV      r0,r4
        0x00001df8:    30f5        .0      ADDS     r0,r0,#0xf5
        0x00001dfa:    f7ffffcb    ....    BL       clear_asc_bit ; 0x1d94
        0x00001dfe:    1c64        d.      ADDS     r4,r4,#1
        0x00001e00:    2c03        .,      CMP      r4,#3
        0x00001e02:    dded        ..      BLE      0x1de0 ; GPO_control + 12
        0x00001e04:    2400        .$      MOVS     r4,#0
        0x00001e06:    e00f        ..      B        0x1e28 ; GPO_control + 84
        0x00001e08:    4630        0F      MOV      r0,r6
        0x00001e0a:    4120         A      ASRS     r0,r0,r4
        0x00001e0c:    07c0        ..      LSLS     r0,r0,#31
        0x00001e0e:    0fc0        ..      LSRS     r0,r0,#31
        0x00001e10:    2800        .(      CMP      r0,#0
        0x00001e12:    d004        ..      BEQ      0x1e1e ; GPO_control + 74
        0x00001e14:    4620         F      MOV      r0,r4
        0x00001e16:    30f9        .0      ADDS     r0,r0,#0xf9
        0x00001e18:    f7ffffcc    ....    BL       set_asc_bit ; 0x1db4
        0x00001e1c:    e003        ..      B        0x1e26 ; GPO_control + 82
        0x00001e1e:    4620         F      MOV      r0,r4
        0x00001e20:    30f9        .0      ADDS     r0,r0,#0xf9
        0x00001e22:    f7ffffb7    ....    BL       clear_asc_bit ; 0x1d94
        0x00001e26:    1c64        d.      ADDS     r4,r4,#1
        0x00001e28:    2c03        .,      CMP      r4,#3
        0x00001e2a:    dded        ..      BLE      0x1e08 ; GPO_control + 52
        0x00001e2c:    2400        .$      MOVS     r4,#0
        0x00001e2e:    e00f        ..      B        0x1e50 ; GPO_control + 124
        0x00001e30:    4638        8F      MOV      r0,r7
        0x00001e32:    4120         A      ASRS     r0,r0,r4
        0x00001e34:    07c0        ..      LSLS     r0,r0,#31
        0x00001e36:    0fc0        ..      LSRS     r0,r0,#31
        0x00001e38:    2800        .(      CMP      r0,#0
        0x00001e3a:    d004        ..      BEQ      0x1e46 ; GPO_control + 114
        0x00001e3c:    4620         F      MOV      r0,r4
        0x00001e3e:    30fd        .0      ADDS     r0,r0,#0xfd
        0x00001e40:    f7ffffb8    ....    BL       set_asc_bit ; 0x1db4
        0x00001e44:    e003        ..      B        0x1e4e ; GPO_control + 122
        0x00001e46:    4620         F      MOV      r0,r4
        0x00001e48:    30fd        .0      ADDS     r0,r0,#0xfd
        0x00001e4a:    f7ffffa3    ....    BL       clear_asc_bit ; 0x1d94
        0x00001e4e:    1c64        d.      ADDS     r4,r4,#1
        0x00001e50:    2c03        .,      CMP      r4,#3
        0x00001e52:    dded        ..      BLE      0x1e30 ; GPO_control + 92
        0x00001e54:    2400        .$      MOVS     r4,#0
        0x00001e56:    e00f        ..      B        0x1e78 ; GPO_control + 164
        0x00001e58:    9803        ..      LDR      r0,[sp,#0xc]
        0x00001e5a:    4120         A      ASRS     r0,r0,r4
        0x00001e5c:    07c0        ..      LSLS     r0,r0,#31
        0x00001e5e:    0fc0        ..      LSRS     r0,r0,#31
        0x00001e60:    2800        .(      CMP      r0,#0
        0x00001e62:    d004        ..      BEQ      0x1e6e ; GPO_control + 154
        0x00001e64:    1de0        ..      ADDS     r0,r4,#7
        0x00001e66:    30fa        .0      ADDS     r0,r0,#0xfa
        0x00001e68:    f7ffffa4    ....    BL       set_asc_bit ; 0x1db4
        0x00001e6c:    e003        ..      B        0x1e76 ; GPO_control + 162
        0x00001e6e:    1de0        ..      ADDS     r0,r4,#7
        0x00001e70:    30fa        .0      ADDS     r0,r0,#0xfa
        0x00001e72:    f7ffff8f    ....    BL       clear_asc_bit ; 0x1d94
        0x00001e76:    1c64        d.      ADDS     r4,r4,#1
        0x00001e78:    2c03        .,      CMP      r4,#3
        0x00001e7a:    dded        ..      BLE      0x1e58 ; GPO_control + 132
        0x00001e7c:    bdff        ..      POP      {r0-r7,pc}
    GPI_control
        0x00001e7e:    b5ff        ..      PUSH     {r0-r7,lr}
        0x00001e80:    4605        .F      MOV      r5,r0
        0x00001e82:    460e        .F      MOV      r6,r1
        0x00001e84:    4617        .F      MOV      r7,r2
        0x00001e86:    2400        .$      MOVS     r4,#0
        0x00001e88:    e00f        ..      B        0x1eaa ; GPI_control + 44
        0x00001e8a:    4628        (F      MOV      r0,r5
        0x00001e8c:    4120         A      ASRS     r0,r0,r4
        0x00001e8e:    07c0        ..      LSLS     r0,r0,#31
        0x00001e90:    0fc0        ..      LSRS     r0,r0,#31
        0x00001e92:    2800        .(      CMP      r0,#0
        0x00001e94:    d004        ..      BEQ      0x1ea0 ; GPI_control + 34
        0x00001e96:    1de0        ..      ADDS     r0,r4,#7
        0x00001e98:    30fe        .0      ADDS     r0,r0,#0xfe
        0x00001e9a:    f7ffff8b    ....    BL       set_asc_bit ; 0x1db4
        0x00001e9e:    e003        ..      B        0x1ea8 ; GPI_control + 42
        0x00001ea0:    1de0        ..      ADDS     r0,r4,#7
        0x00001ea2:    30fe        .0      ADDS     r0,r0,#0xfe
        0x00001ea4:    f7ffff76    ..v.    BL       clear_asc_bit ; 0x1d94
        0x00001ea8:    1c64        d.      ADDS     r4,r4,#1
        0x00001eaa:    2c01        .,      CMP      r4,#1
        0x00001eac:    dded        ..      BLE      0x1e8a ; GPI_control + 12
        0x00001eae:    2400        .$      MOVS     r4,#0
        0x00001eb0:    e011        ..      B        0x1ed6 ; GPI_control + 88
        0x00001eb2:    4630        0F      MOV      r0,r6
        0x00001eb4:    4120         A      ASRS     r0,r0,r4
        0x00001eb6:    07c0        ..      LSLS     r0,r0,#31
        0x00001eb8:    0fc0        ..      LSRS     r0,r0,#31
        0x00001eba:    2800        .(      CMP      r0,#0
        0x00001ebc:    d005        ..      BEQ      0x1eca ; GPI_control + 76
        0x00001ebe:    4620         F      MOV      r0,r4
        0x00001ec0:    30ff        .0      ADDS     r0,r0,#0xff
        0x00001ec2:    3008        .0      ADDS     r0,r0,#8
        0x00001ec4:    f7ffff76    ..v.    BL       set_asc_bit ; 0x1db4
        0x00001ec8:    e004        ..      B        0x1ed4 ; GPI_control + 86
        0x00001eca:    4620         F      MOV      r0,r4
        0x00001ecc:    30ff        .0      ADDS     r0,r0,#0xff
        0x00001ece:    3008        .0      ADDS     r0,r0,#8
        0x00001ed0:    f7ffff60    ..`.    BL       clear_asc_bit ; 0x1d94
        0x00001ed4:    1c64        d.      ADDS     r4,r4,#1
        0x00001ed6:    2c01        .,      CMP      r4,#1
        0x00001ed8:    ddeb        ..      BLE      0x1eb2 ; GPI_control + 52
        0x00001eda:    2400        .$      MOVS     r4,#0
        0x00001edc:    e011        ..      B        0x1f02 ; GPI_control + 132
        0x00001ede:    4638        8F      MOV      r0,r7
        0x00001ee0:    4120         A      ASRS     r0,r0,r4
        0x00001ee2:    07c0        ..      LSLS     r0,r0,#31
        0x00001ee4:    0fc0        ..      LSRS     r0,r0,#31
        0x00001ee6:    2800        .(      CMP      r0,#0
        0x00001ee8:    d005        ..      BEQ      0x1ef6 ; GPI_control + 120
        0x00001eea:    4620         F      MOV      r0,r4
        0x00001eec:    30ff        .0      ADDS     r0,r0,#0xff
        0x00001eee:    300a        .0      ADDS     r0,r0,#0xa
        0x00001ef0:    f7ffff60    ..`.    BL       set_asc_bit ; 0x1db4
        0x00001ef4:    e004        ..      B        0x1f00 ; GPI_control + 130
        0x00001ef6:    4620         F      MOV      r0,r4
        0x00001ef8:    30ff        .0      ADDS     r0,r0,#0xff
        0x00001efa:    300a        .0      ADDS     r0,r0,#0xa
        0x00001efc:    f7ffff4a    ..J.    BL       clear_asc_bit ; 0x1d94
        0x00001f00:    1c64        d.      ADDS     r4,r4,#1
        0x00001f02:    2c01        .,      CMP      r4,#1
        0x00001f04:    ddeb        ..      BLE      0x1ede ; GPI_control + 96
        0x00001f06:    2400        .$      MOVS     r4,#0
        0x00001f08:    e011        ..      B        0x1f2e ; GPI_control + 176
        0x00001f0a:    9803        ..      LDR      r0,[sp,#0xc]
        0x00001f0c:    4120         A      ASRS     r0,r0,r4
        0x00001f0e:    07c0        ..      LSLS     r0,r0,#31
        0x00001f10:    0fc0        ..      LSRS     r0,r0,#31
        0x00001f12:    2800        .(      CMP      r0,#0
        0x00001f14:    d005        ..      BEQ      0x1f22 ; GPI_control + 164
        0x00001f16:    4620         F      MOV      r0,r4
        0x00001f18:    30ff        .0      ADDS     r0,r0,#0xff
        0x00001f1a:    300c        .0      ADDS     r0,r0,#0xc
        0x00001f1c:    f7ffff4a    ..J.    BL       set_asc_bit ; 0x1db4
        0x00001f20:    e004        ..      B        0x1f2c ; GPI_control + 174
        0x00001f22:    4620         F      MOV      r0,r4
        0x00001f24:    30ff        .0      ADDS     r0,r0,#0xff
        0x00001f26:    300c        .0      ADDS     r0,r0,#0xc
        0x00001f28:    f7ffff34    ..4.    BL       clear_asc_bit ; 0x1d94
        0x00001f2c:    1c64        d.      ADDS     r4,r4,#1
        0x00001f2e:    2c01        .,      CMP      r4,#1
        0x00001f30:    ddeb        ..      BLE      0x1f0a ; GPI_control + 140
        0x00001f32:    bdff        ..      POP      {r0-r7,pc}
    GPO_enables
        0x00001f34:    b530        0.      PUSH     {r4,r5,lr}
        0x00001f36:    b089        ..      SUB      sp,sp,#0x24
        0x00001f38:    4605        .F      MOV      r5,r0
        0x00001f3a:    2220         "      MOVS     r2,#0x20
        0x00001f3c:    4947        GI      LDR      r1,[pc,#284] ; [0x205c] = 0x5a30
        0x00001f3e:    a801        ..      ADD      r0,sp,#4
        0x00001f40:    f7fef90c    ....    BL       __aeabi_memcpy4 ; 0x15c
        0x00001f44:    2400        .$      MOVS     r4,#0
        0x00001f46:    e011        ..      B        0x1f6c ; GPO_enables + 56
        0x00001f48:    4628        (F      MOV      r0,r5
        0x00001f4a:    40e0        .@      LSRS     r0,r0,r4
        0x00001f4c:    07c0        ..      LSLS     r0,r0,#31
        0x00001f4e:    0fc0        ..      LSRS     r0,r0,#31
        0x00001f50:    2800        .(      CMP      r0,#0
        0x00001f52:    d005        ..      BEQ      0x1f60 ; GPO_enables + 44
        0x00001f54:    0061        a.      LSLS     r1,r4,#1
        0x00001f56:    aa01        ..      ADD      r2,sp,#4
        0x00001f58:    5a50        PZ      LDRH     r0,[r2,r1]
        0x00001f5a:    f7ffff1b    ....    BL       clear_asc_bit ; 0x1d94
        0x00001f5e:    e004        ..      B        0x1f6a ; GPO_enables + 54
        0x00001f60:    0061        a.      LSLS     r1,r4,#1
        0x00001f62:    aa01        ..      ADD      r2,sp,#4
        0x00001f64:    5a50        PZ      LDRH     r0,[r2,r1]
        0x00001f66:    f7ffff25    ..%.    BL       set_asc_bit ; 0x1db4
        0x00001f6a:    1c64        d.      ADDS     r4,r4,#1
        0x00001f6c:    2c0f        .,      CMP      r4,#0xf
        0x00001f6e:    d9eb        ..      BLS      0x1f48 ; GPO_enables + 20
        0x00001f70:    b009        ..      ADD      sp,sp,#0x24
        0x00001f72:    bd30        0.      POP      {r4,r5,pc}
    GPI_enables
        0x00001f74:    b530        0.      PUSH     {r4,r5,lr}
        0x00001f76:    b089        ..      SUB      sp,sp,#0x24
        0x00001f78:    4605        .F      MOV      r5,r0
        0x00001f7a:    2220         "      MOVS     r2,#0x20
        0x00001f7c:    4937        7I      LDR      r1,[pc,#220] ; [0x205c] = 0x5a30
        0x00001f7e:    3120         1      ADDS     r1,r1,#0x20
        0x00001f80:    a801        ..      ADD      r0,sp,#4
        0x00001f82:    f7fef8eb    ....    BL       __aeabi_memcpy4 ; 0x15c
        0x00001f86:    2400        .$      MOVS     r4,#0
        0x00001f88:    e011        ..      B        0x1fae ; GPI_enables + 58
        0x00001f8a:    4628        (F      MOV      r0,r5
        0x00001f8c:    40e0        .@      LSRS     r0,r0,r4
        0x00001f8e:    07c0        ..      LSLS     r0,r0,#31
        0x00001f90:    0fc0        ..      LSRS     r0,r0,#31
        0x00001f92:    2800        .(      CMP      r0,#0
        0x00001f94:    d005        ..      BEQ      0x1fa2 ; GPI_enables + 46
        0x00001f96:    0061        a.      LSLS     r1,r4,#1
        0x00001f98:    aa01        ..      ADD      r2,sp,#4
        0x00001f9a:    5a50        PZ      LDRH     r0,[r2,r1]
        0x00001f9c:    f7ffff0a    ....    BL       set_asc_bit ; 0x1db4
        0x00001fa0:    e004        ..      B        0x1fac ; GPI_enables + 56
        0x00001fa2:    0061        a.      LSLS     r1,r4,#1
        0x00001fa4:    aa01        ..      ADD      r2,sp,#4
        0x00001fa6:    5a50        PZ      LDRH     r0,[r2,r1]
        0x00001fa8:    f7fffef4    ....    BL       clear_asc_bit ; 0x1d94
        0x00001fac:    1c64        d.      ADDS     r4,r4,#1
        0x00001fae:    2c0f        .,      CMP      r4,#0xf
        0x00001fb0:    d9eb        ..      BLS      0x1f8a ; GPI_enables + 22
        0x00001fb2:    b009        ..      ADD      sp,sp,#0x24
        0x00001fb4:    bd30        0.      POP      {r4,r5,pc}
    $d
        0x00001fb6:    0000        ..      DCW    0
        0x00001fb8:    200005c0    ...     DCD    536872384
        0x00001fbc:    00186a00    .j..    DCD    1600000
        0x00001fc0:    00005a1c    .Z..    DCD    23068
        0x00001fc4:    55555555    UUUU    DCD    1431655765
        0x00001fc8:    33333333    3333    DCD    858993459
        0x00001fcc:    0f0f0f0f    ....    DCD    252645135
        0x00001fd0:    04c11db7    ....    DCD    79764919
        0x00001fd4:    2d2d0a0d    ..--    DCD    757926413
        0x00001fd8:    2d2d2d2d    ----    DCD    757935405
        0x00001fdc:    2d2d2d2d    ----    DCD    757935405
        0x00001fe0:    2d2d2d2d    ----    DCD    757935405
        0x00001fe4:    2d2d2d2d    ----    DCD    757935405
        0x00001fe8:    000a0d2d    -...    DCD    658733
        0x00001fec:    696c6156    Vali    DCD    1768710486
        0x00001ff0:    69746164    dati    DCD    1769234788
        0x00001ff4:    7020676e    ng p    DCD    1881171822
        0x00001ff8:    72676f72    rogr    DCD    1919381362
        0x00001ffc:    69206d61    am i    DCD    1763732833
        0x00002000:    6765746e    nteg    DCD    1734702190
        0x00002004:    79746972    rity    DCD    2037672306
        0x00002008:    002e2e2e    ....    DCD    3026478
        0x0000200c:    0000ffc0    ....    DCD    65472
        0x00002010:    20435243    CRC     DCD    541282883
        0x00002014:    0a0d4b4f    OK..    DCD    168643407
        0x00002018:    00000000    ....    DCD    0
        0x0000201c:    72500a0d    ..Pr    DCD    1917848077
        0x00002020:    6172676f    ogra    DCD    1634887535
        0x00002024:    6e696d6d    mmin    DCD    1852403053
        0x00002028:    72452067    g Er    DCD    1917132903
        0x0000202c:    20726f72    ror     DCD    544370546
        0x00002030:    5243202d    - CR    DCD    1380130861
        0x00002034:    4f442043    C DO    DCD    1329864771
        0x00002038:    4e205345    ES N    DCD    1310741317
        0x0000203c:    4d20544f    OT M    DCD    1293964367
        0x00002040:    48435441    ATCH    DCD    1212372033
        0x00002044:    48202d20     - H    DCD    1210068256
        0x00002048:    69746c61    alti    DCD    1769237601
        0x0000204c:    4520676e    ng E    DCD    1159751534
        0x00002050:    75636578    xecu    DCD    1969448312
        0x00002054:    6e6f6974    tion    DCD    1852795252
        0x00002058:    00000a0d    ....    DCD    2573
        0x0000205c:    00005a30    0Z..    DCD    23088
    $t
    init_ldo_control
        0x00002060:    b500        ..      PUSH     {lr}
        0x00002062:    20ff        .       MOVS     r0,#0xff
        0x00002064:    30f6        .0      ADDS     r0,r0,#0xf6
        0x00002066:    f7fffe95    ....    BL       clear_asc_bit ; 0x1d94
        0x0000206a:    20ff        .       MOVS     r0,#0xff
        0x0000206c:    30f7        .0      ADDS     r0,r0,#0xf7
        0x0000206e:    f7fffe91    ....    BL       clear_asc_bit ; 0x1d94
        0x00002072:    20ff        .       MOVS     r0,#0xff
        0x00002074:    30f8        .0      ADDS     r0,r0,#0xf8
        0x00002076:    f7fffe8d    ....    BL       clear_asc_bit ; 0x1d94
        0x0000207a:    20ff        .       MOVS     r0,#0xff
        0x0000207c:    30f9        .0      ADDS     r0,r0,#0xf9
        0x0000207e:    f7fffe89    ....    BL       clear_asc_bit ; 0x1d94
        0x00002082:    20ff        .       MOVS     r0,#0xff
        0x00002084:    30fa        .0      ADDS     r0,r0,#0xfa
        0x00002086:    f7fffe95    ....    BL       set_asc_bit ; 0x1db4
        0x0000208a:    20ff        .       MOVS     r0,#0xff
        0x0000208c:    30fb        .0      ADDS     r0,r0,#0xfb
        0x0000208e:    f7fffe81    ....    BL       clear_asc_bit ; 0x1d94
        0x00002092:    20ff        .       MOVS     r0,#0xff
        0x00002094:    30fc        .0      ADDS     r0,r0,#0xfc
        0x00002096:    f7fffe8d    ....    BL       set_asc_bit ; 0x1db4
        0x0000209a:    20ff        .       MOVS     r0,#0xff
        0x0000209c:    30fd        .0      ADDS     r0,r0,#0xfd
        0x0000209e:    f7fffe79    ..y.    BL       clear_asc_bit ; 0x1d94
        0x000020a2:    20ff        .       MOVS     r0,#0xff
        0x000020a4:    30fe        .0      ADDS     r0,r0,#0xfe
        0x000020a6:    f7fffe85    ....    BL       set_asc_bit ; 0x1db4
        0x000020aa:    20ff        .       MOVS     r0,#0xff
        0x000020ac:    30ff        .0      ADDS     r0,r0,#0xff
        0x000020ae:    f7fffe81    ....    BL       set_asc_bit ; 0x1db4
        0x000020b2:    48f7        .H      LDR      r0,[pc,#988] ; [0x2490] = 0x1ff
        0x000020b4:    f7fffe7e    ..~.    BL       set_asc_bit ; 0x1db4
        0x000020b8:    2001        .       MOVS     r0,#1
        0x000020ba:    0240        @.      LSLS     r0,r0,#9
        0x000020bc:    f7fffe7a    ..z.    BL       set_asc_bit ; 0x1db4
        0x000020c0:    48f3        .H      LDR      r0,[pc,#972] ; [0x2490] = 0x1ff
        0x000020c2:    1c80        ..      ADDS     r0,r0,#2
        0x000020c4:    f7fffe66    ..f.    BL       clear_asc_bit ; 0x1d94
        0x000020c8:    48f1        .H      LDR      r0,[pc,#964] ; [0x2490] = 0x1ff
        0x000020ca:    1cc0        ..      ADDS     r0,r0,#3
        0x000020cc:    f7fffe62    ..b.    BL       clear_asc_bit ; 0x1d94
        0x000020d0:    48ef        .H      LDR      r0,[pc,#956] ; [0x2490] = 0x1ff
        0x000020d2:    1d00        ..      ADDS     r0,r0,#4
        0x000020d4:    f7fffe6e    ..n.    BL       set_asc_bit ; 0x1db4
        0x000020d8:    2081        .       MOVS     r0,#0x81
        0x000020da:    0080        ..      LSLS     r0,r0,#2
        0x000020dc:    f7fffe6a    ..j.    BL       set_asc_bit ; 0x1db4
        0x000020e0:    2000        .       MOVS     r0,#0
        0x000020e2:    49ec        .I      LDR      r1,[pc,#944] ; [0x2494] = 0x52280000
        0x000020e4:    6008        .`      STR      r0,[r1,#0]
        0x000020e6:    48ec        .H      LDR      r0,[pc,#944] ; [0x2498] = 0x392
        0x000020e8:    f7fffe64    ..d.    BL       set_asc_bit ; 0x1db4
        0x000020ec:    bd00        ..      POP      {pc}
    sram_test
        0x000020ee:    b5f3        ..      PUSH     {r0,r1,r4-r7,lr}
        0x000020f0:    b081        ..      SUB      sp,sp,#4
        0x000020f2:    460f        .F      MOV      r7,r1
        0x000020f4:    2000        .       MOVS     r0,#0
        0x000020f6:    9000        ..      STR      r0,[sp,#0]
        0x000020f8:    9e01        ..      LDR      r6,[sp,#4]
        0x000020fa:    00b8        ..      LSLS     r0,r7,#2
        0x000020fc:    9e01        ..      LDR      r6,[sp,#4]
        0x000020fe:    1982        ..      ADDS     r2,r0,r6
        0x00002100:    4631        1F      MOV      r1,r6
        0x00002102:    a0e6        ..      ADR      r0,{pc}+0x39a ; 0x249c
        0x00002104:    f003f8a8    ....    BL       __2printf ; 0x5258
        0x00002108:    a0f0        ..      ADR      r0,{pc}+0x3c4 ; 0x24cc
        0x0000210a:    f003f8a5    ....    BL       __2printf ; 0x5258
        0x0000210e:    2400        .$      MOVS     r4,#0
        0x00002110:    e00c        ..      B        0x212c ; sram_test + 62
        0x00002112:    2500        .%      MOVS     r5,#0
        0x00002114:    e007        ..      B        0x2126 ; sram_test + 56
        0x00002116:    00a0        ..      LSLS     r0,r4,#2
        0x00002118:    5830        0X      LDR      r0,[r6,r0]
        0x0000211a:    2101        .!      MOVS     r1,#1
        0x0000211c:    40a9        .@      LSLS     r1,r1,r5
        0x0000211e:    4388        .C      BICS     r0,r0,r1
        0x00002120:    00a1        ..      LSLS     r1,r4,#2
        0x00002122:    5070        pP      STR      r0,[r6,r1]
        0x00002124:    1c6d        m.      ADDS     r5,r5,#1
        0x00002126:    2d20         -      CMP      r5,#0x20
        0x00002128:    dbf5        ..      BLT      0x2116 ; sram_test + 40
        0x0000212a:    1c64        d.      ADDS     r4,r4,#1
        0x0000212c:    42bc        .B      CMP      r4,r7
        0x0000212e:    d3f0        ..      BCC      0x2112 ; sram_test + 36
        0x00002130:    2400        .$      MOVS     r4,#0
        0x00002132:    e01d        ..      B        0x2170 ; sram_test + 130
        0x00002134:    2500        .%      MOVS     r5,#0
        0x00002136:    e018        ..      B        0x216a ; sram_test + 124
        0x00002138:    00a0        ..      LSLS     r0,r4,#2
        0x0000213a:    5830        0X      LDR      r0,[r6,r0]
        0x0000213c:    2101        .!      MOVS     r1,#1
        0x0000213e:    40a9        .@      LSLS     r1,r1,r5
        0x00002140:    4008        .@      ANDS     r0,r0,r1
        0x00002142:    2800        .(      CMP      r0,#0
        0x00002144:    d009        ..      BEQ      0x215a ; sram_test + 108
        0x00002146:    00a0        ..      LSLS     r0,r4,#2
        0x00002148:    5833        3X      LDR      r3,[r6,r0]
        0x0000214a:    462a        *F      MOV      r2,r5
        0x0000214c:    4621        !F      MOV      r1,r4
        0x0000214e:    a0e5        ..      ADR      r0,{pc}+0x396 ; 0x24e4
        0x00002150:    f003f882    ....    BL       __2printf ; 0x5258
        0x00002154:    9800        ..      LDR      r0,[sp,#0]
        0x00002156:    1c40        @.      ADDS     r0,r0,#1
        0x00002158:    9000        ..      STR      r0,[sp,#0]
        0x0000215a:    00a0        ..      LSLS     r0,r4,#2
        0x0000215c:    5830        0X      LDR      r0,[r6,r0]
        0x0000215e:    2101        .!      MOVS     r1,#1
        0x00002160:    40a9        .@      LSLS     r1,r1,r5
        0x00002162:    4308        .C      ORRS     r0,r0,r1
        0x00002164:    00a1        ..      LSLS     r1,r4,#2
        0x00002166:    5070        pP      STR      r0,[r6,r1]
        0x00002168:    1c6d        m.      ADDS     r5,r5,#1
        0x0000216a:    2d20         -      CMP      r5,#0x20
        0x0000216c:    dbe4        ..      BLT      0x2138 ; sram_test + 74
        0x0000216e:    1c64        d.      ADDS     r4,r4,#1
        0x00002170:    42bc        .B      CMP      r4,r7
        0x00002172:    d3df        ..      BCC      0x2134 ; sram_test + 70
        0x00002174:    2400        .$      MOVS     r4,#0
        0x00002176:    e01f        ..      B        0x21b8 ; sram_test + 202
        0x00002178:    2500        .%      MOVS     r5,#0
        0x0000217a:    e01a        ..      B        0x21b2 ; sram_test + 196
        0x0000217c:    00a0        ..      LSLS     r0,r4,#2
        0x0000217e:    5830        0X      LDR      r0,[r6,r0]
        0x00002180:    2101        .!      MOVS     r1,#1
        0x00002182:    40a9        .@      LSLS     r1,r1,r5
        0x00002184:    4008        .@      ANDS     r0,r0,r1
        0x00002186:    2101        .!      MOVS     r1,#1
        0x00002188:    40a9        .@      LSLS     r1,r1,r5
        0x0000218a:    4288        .B      CMP      r0,r1
        0x0000218c:    d009        ..      BEQ      0x21a2 ; sram_test + 180
        0x0000218e:    00a0        ..      LSLS     r0,r4,#2
        0x00002190:    5833        3X      LDR      r3,[r6,r0]
        0x00002192:    462a        *F      MOV      r2,r5
        0x00002194:    4621        !F      MOV      r1,r4
        0x00002196:    a0df        ..      ADR      r0,{pc}+0x37e ; 0x2514
        0x00002198:    f003f85e    ..^.    BL       __2printf ; 0x5258
        0x0000219c:    9800        ..      LDR      r0,[sp,#0]
        0x0000219e:    1c40        @.      ADDS     r0,r0,#1
        0x000021a0:    9000        ..      STR      r0,[sp,#0]
        0x000021a2:    00a0        ..      LSLS     r0,r4,#2
        0x000021a4:    5830        0X      LDR      r0,[r6,r0]
        0x000021a6:    2101        .!      MOVS     r1,#1
        0x000021a8:    40a9        .@      LSLS     r1,r1,r5
        0x000021aa:    4388        .C      BICS     r0,r0,r1
        0x000021ac:    00a1        ..      LSLS     r1,r4,#2
        0x000021ae:    5070        pP      STR      r0,[r6,r1]
        0x000021b0:    1c6d        m.      ADDS     r5,r5,#1
        0x000021b2:    2d20         -      CMP      r5,#0x20
        0x000021b4:    dbe2        ..      BLT      0x217c ; sram_test + 142
        0x000021b6:    1c64        d.      ADDS     r4,r4,#1
        0x000021b8:    42bc        .B      CMP      r4,r7
        0x000021ba:    d3dd        ..      BCC      0x2178 ; sram_test + 138
        0x000021bc:    1e7c        |.      SUBS     r4,r7,#1
        0x000021be:    e01d        ..      B        0x21fc ; sram_test + 270
        0x000021c0:    251f        .%      MOVS     r5,#0x1f
        0x000021c2:    e018        ..      B        0x21f6 ; sram_test + 264
        0x000021c4:    00a0        ..      LSLS     r0,r4,#2
        0x000021c6:    5830        0X      LDR      r0,[r6,r0]
        0x000021c8:    2101        .!      MOVS     r1,#1
        0x000021ca:    40a9        .@      LSLS     r1,r1,r5
        0x000021cc:    4008        .@      ANDS     r0,r0,r1
        0x000021ce:    2800        .(      CMP      r0,#0
        0x000021d0:    d009        ..      BEQ      0x21e6 ; sram_test + 248
        0x000021d2:    00a0        ..      LSLS     r0,r4,#2
        0x000021d4:    5833        3X      LDR      r3,[r6,r0]
        0x000021d6:    462a        *F      MOV      r2,r5
        0x000021d8:    4621        !F      MOV      r1,r4
        0x000021da:    a0da        ..      ADR      r0,{pc}+0x36a ; 0x2544
        0x000021dc:    f003f83c    ..<.    BL       __2printf ; 0x5258
        0x000021e0:    9800        ..      LDR      r0,[sp,#0]
        0x000021e2:    1c40        @.      ADDS     r0,r0,#1
        0x000021e4:    9000        ..      STR      r0,[sp,#0]
        0x000021e6:    00a0        ..      LSLS     r0,r4,#2
        0x000021e8:    5830        0X      LDR      r0,[r6,r0]
        0x000021ea:    2101        .!      MOVS     r1,#1
        0x000021ec:    40a9        .@      LSLS     r1,r1,r5
        0x000021ee:    4308        .C      ORRS     r0,r0,r1
        0x000021f0:    00a1        ..      LSLS     r1,r4,#2
        0x000021f2:    5070        pP      STR      r0,[r6,r1]
        0x000021f4:    1e6d        m.      SUBS     r5,r5,#1
        0x000021f6:    2d00        .-      CMP      r5,#0
        0x000021f8:    dae4        ..      BGE      0x21c4 ; sram_test + 214
        0x000021fa:    1e64        d.      SUBS     r4,r4,#1
        0x000021fc:    2c00        .,      CMP      r4,#0
        0x000021fe:    dadf        ..      BGE      0x21c0 ; sram_test + 210
        0x00002200:    1e7c        |.      SUBS     r4,r7,#1
        0x00002202:    e01f        ..      B        0x2244 ; sram_test + 342
        0x00002204:    251f        .%      MOVS     r5,#0x1f
        0x00002206:    e01a        ..      B        0x223e ; sram_test + 336
        0x00002208:    00a0        ..      LSLS     r0,r4,#2
        0x0000220a:    5830        0X      LDR      r0,[r6,r0]
        0x0000220c:    2101        .!      MOVS     r1,#1
        0x0000220e:    40a9        .@      LSLS     r1,r1,r5
        0x00002210:    4008        .@      ANDS     r0,r0,r1
        0x00002212:    2101        .!      MOVS     r1,#1
        0x00002214:    40a9        .@      LSLS     r1,r1,r5
        0x00002216:    4288        .B      CMP      r0,r1
        0x00002218:    d009        ..      BEQ      0x222e ; sram_test + 320
        0x0000221a:    00a0        ..      LSLS     r0,r4,#2
        0x0000221c:    5833        3X      LDR      r3,[r6,r0]
        0x0000221e:    462a        *F      MOV      r2,r5
        0x00002220:    4621        !F      MOV      r1,r4
        0x00002222:    a0d4        ..      ADR      r0,{pc}+0x352 ; 0x2574
        0x00002224:    f003f818    ....    BL       __2printf ; 0x5258
        0x00002228:    9800        ..      LDR      r0,[sp,#0]
        0x0000222a:    1c40        @.      ADDS     r0,r0,#1
        0x0000222c:    9000        ..      STR      r0,[sp,#0]
        0x0000222e:    00a0        ..      LSLS     r0,r4,#2
        0x00002230:    5830        0X      LDR      r0,[r6,r0]
        0x00002232:    2101        .!      MOVS     r1,#1
        0x00002234:    40a9        .@      LSLS     r1,r1,r5
        0x00002236:    4388        .C      BICS     r0,r0,r1
        0x00002238:    00a1        ..      LSLS     r1,r4,#2
        0x0000223a:    5070        pP      STR      r0,[r6,r1]
        0x0000223c:    1e6d        m.      SUBS     r5,r5,#1
        0x0000223e:    2d00        .-      CMP      r5,#0
        0x00002240:    dae2        ..      BGE      0x2208 ; sram_test + 282
        0x00002242:    1e64        d.      SUBS     r4,r4,#1
        0x00002244:    2c00        .,      CMP      r4,#0
        0x00002246:    dadd        ..      BGE      0x2204 ; sram_test + 278
        0x00002248:    2400        .$      MOVS     r4,#0
        0x0000224a:    e016        ..      B        0x227a ; sram_test + 396
        0x0000224c:    2500        .%      MOVS     r5,#0
        0x0000224e:    e011        ..      B        0x2274 ; sram_test + 390
        0x00002250:    00a0        ..      LSLS     r0,r4,#2
        0x00002252:    5830        0X      LDR      r0,[r6,r0]
        0x00002254:    2101        .!      MOVS     r1,#1
        0x00002256:    40a9        .@      LSLS     r1,r1,r5
        0x00002258:    4008        .@      ANDS     r0,r0,r1
        0x0000225a:    2800        .(      CMP      r0,#0
        0x0000225c:    d009        ..      BEQ      0x2272 ; sram_test + 388
        0x0000225e:    00a0        ..      LSLS     r0,r4,#2
        0x00002260:    5833        3X      LDR      r3,[r6,r0]
        0x00002262:    462a        *F      MOV      r2,r5
        0x00002264:    4621        !F      MOV      r1,r4
        0x00002266:    a0cf        ..      ADR      r0,{pc}+0x33e ; 0x25a4
        0x00002268:    f002fff6    ....    BL       __2printf ; 0x5258
        0x0000226c:    9800        ..      LDR      r0,[sp,#0]
        0x0000226e:    1c40        @.      ADDS     r0,r0,#1
        0x00002270:    9000        ..      STR      r0,[sp,#0]
        0x00002272:    1c6d        m.      ADDS     r5,r5,#1
        0x00002274:    2d20         -      CMP      r5,#0x20
        0x00002276:    dbeb        ..      BLT      0x2250 ; sram_test + 354
        0x00002278:    1c64        d.      ADDS     r4,r4,#1
        0x0000227a:    42bc        .B      CMP      r4,r7
        0x0000227c:    d3e6        ..      BCC      0x224c ; sram_test + 350
        0x0000227e:    a0d5        ..      ADR      r0,{pc}+0x356 ; 0x25d4
        0x00002280:    9900        ..      LDR      r1,[sp,#0]
        0x00002282:    f002ffe9    ....    BL       __2printf ; 0x5258
        0x00002286:    9800        ..      LDR      r0,[sp,#0]
        0x00002288:    bdfe        ..      POP      {r1-r7,pc}
    set_IF_LDO_voltage
        0x0000228a:    b530        0.      PUSH     {r4,r5,lr}
        0x0000228c:    4605        .F      MOV      r5,r0
        0x0000228e:    2400        .$      MOVS     r4,#0
        0x00002290:    e011        ..      B        0x22b6 ; set_IF_LDO_voltage + 44
        0x00002292:    4628        (F      MOV      r0,r5
        0x00002294:    4120         A      ASRS     r0,r0,r4
        0x00002296:    07c0        ..      LSLS     r0,r0,#31
        0x00002298:    0fc0        ..      LSRS     r0,r0,#31
        0x0000229a:    2800        .(      CMP      r0,#0
        0x0000229c:    d005        ..      BEQ      0x22aa ; set_IF_LDO_voltage + 32
        0x0000229e:    4620         F      MOV      r0,r4
        0x000022a0:    30ff        .0      ADDS     r0,r0,#0xff
        0x000022a2:    30ed        .0      ADDS     r0,r0,#0xed
        0x000022a4:    f7fffd86    ....    BL       set_asc_bit ; 0x1db4
        0x000022a8:    e004        ..      B        0x22b4 ; set_IF_LDO_voltage + 42
        0x000022aa:    4620         F      MOV      r0,r4
        0x000022ac:    30ff        .0      ADDS     r0,r0,#0xff
        0x000022ae:    30ed        .0      ADDS     r0,r0,#0xed
        0x000022b0:    f7fffd70    ..p.    BL       clear_asc_bit ; 0x1d94
        0x000022b4:    1c64        d.      ADDS     r4,r4,#1
        0x000022b6:    2c06        .,      CMP      r4,#6
        0x000022b8:    d9eb        ..      BLS      0x2292 ; set_IF_LDO_voltage + 8
        0x000022ba:    bd30        0.      POP      {r4,r5,pc}
    set_VDDD_LDO_voltage
        0x000022bc:    b530        0.      PUSH     {r4,r5,lr}
        0x000022be:    4605        .F      MOV      r5,r0
        0x000022c0:    2400        .$      MOVS     r4,#0
        0x000022c2:    e011        ..      B        0x22e8 ; set_VDDD_LDO_voltage + 44
        0x000022c4:    4628        (F      MOV      r0,r5
        0x000022c6:    4120         A      ASRS     r0,r0,r4
        0x000022c8:    07c0        ..      LSLS     r0,r0,#31
        0x000022ca:    0fc0        ..      LSRS     r0,r0,#31
        0x000022cc:    2800        .(      CMP      r0,#0
        0x000022ce:    d005        ..      BEQ      0x22dc ; set_VDDD_LDO_voltage + 32
        0x000022d0:    4971        qI      LDR      r1,[pc,#452] ; [0x2498] = 0x392
        0x000022d2:    3975        u9      SUBS     r1,r1,#0x75
        0x000022d4:    1b08        ..      SUBS     r0,r1,r4
        0x000022d6:    f7fffd6d    ..m.    BL       set_asc_bit ; 0x1db4
        0x000022da:    e004        ..      B        0x22e6 ; set_VDDD_LDO_voltage + 42
        0x000022dc:    496e        nI      LDR      r1,[pc,#440] ; [0x2498] = 0x392
        0x000022de:    3975        u9      SUBS     r1,r1,#0x75
        0x000022e0:    1b08        ..      SUBS     r0,r1,r4
        0x000022e2:    f7fffd57    ..W.    BL       clear_asc_bit ; 0x1d94
        0x000022e6:    1c64        d.      ADDS     r4,r4,#1
        0x000022e8:    2c04        .,      CMP      r4,#4
        0x000022ea:    d9eb        ..      BLS      0x22c4 ; set_VDDD_LDO_voltage + 8
        0x000022ec:    2405        .$      MOVS     r4,#5
        0x000022ee:    e011        ..      B        0x2314 ; set_VDDD_LDO_voltage + 88
        0x000022f0:    4628        (F      MOV      r0,r5
        0x000022f2:    4120         A      ASRS     r0,r0,r4
        0x000022f4:    07c0        ..      LSLS     r0,r0,#31
        0x000022f6:    0fc0        ..      LSRS     r0,r0,#31
        0x000022f8:    2800        .(      CMP      r0,#0
        0x000022fa:    d005        ..      BEQ      0x2308 ; set_VDDD_LDO_voltage + 76
        0x000022fc:    4966        fI      LDR      r1,[pc,#408] ; [0x2498] = 0x392
        0x000022fe:    3975        u9      SUBS     r1,r1,#0x75
        0x00002300:    1b08        ..      SUBS     r0,r1,r4
        0x00002302:    f7fffd47    ..G.    BL       clear_asc_bit ; 0x1d94
        0x00002306:    e004        ..      B        0x2312 ; set_VDDD_LDO_voltage + 86
        0x00002308:    4963        cI      LDR      r1,[pc,#396] ; [0x2498] = 0x392
        0x0000230a:    3975        u9      SUBS     r1,r1,#0x75
        0x0000230c:    1b08        ..      SUBS     r0,r1,r4
        0x0000230e:    f7fffd51    ..Q.    BL       set_asc_bit ; 0x1db4
        0x00002312:    1c64        d.      ADDS     r4,r4,#1
        0x00002314:    2c06        .,      CMP      r4,#6
        0x00002316:    d9eb        ..      BLS      0x22f0 ; set_VDDD_LDO_voltage + 52
        0x00002318:    bd30        0.      POP      {r4,r5,pc}
    set_AUX_LDO_voltage
        0x0000231a:    b530        0.      PUSH     {r4,r5,lr}
        0x0000231c:    4605        .F      MOV      r5,r0
        0x0000231e:    2400        .$      MOVS     r4,#0
        0x00002320:    e011        ..      B        0x2346 ; set_AUX_LDO_voltage + 44
        0x00002322:    4628        (F      MOV      r0,r5
        0x00002324:    4120         A      ASRS     r0,r0,r4
        0x00002326:    07c0        ..      LSLS     r0,r0,#31
        0x00002328:    0fc0        ..      LSRS     r0,r0,#31
        0x0000232a:    2800        .(      CMP      r0,#0
        0x0000232c:    d005        ..      BEQ      0x233a ; set_AUX_LDO_voltage + 32
        0x0000232e:    495a        ZI      LDR      r1,[pc,#360] ; [0x2498] = 0x392
        0x00002330:    1cc9        ..      ADDS     r1,r1,#3
        0x00002332:    1860        `.      ADDS     r0,r4,r1
        0x00002334:    f7fffd3e    ..>.    BL       set_asc_bit ; 0x1db4
        0x00002338:    e004        ..      B        0x2344 ; set_AUX_LDO_voltage + 42
        0x0000233a:    4957        WI      LDR      r1,[pc,#348] ; [0x2498] = 0x392
        0x0000233c:    1cc9        ..      ADDS     r1,r1,#3
        0x0000233e:    1860        `.      ADDS     r0,r4,r1
        0x00002340:    f7fffd28    ..(.    BL       clear_asc_bit ; 0x1d94
        0x00002344:    1c64        d.      ADDS     r4,r4,#1
        0x00002346:    2c04        .,      CMP      r4,#4
        0x00002348:    d9eb        ..      BLS      0x2322 ; set_AUX_LDO_voltage + 8
        0x0000234a:    2405        .$      MOVS     r4,#5
        0x0000234c:    e011        ..      B        0x2372 ; set_AUX_LDO_voltage + 88
        0x0000234e:    4628        (F      MOV      r0,r5
        0x00002350:    4120         A      ASRS     r0,r0,r4
        0x00002352:    07c0        ..      LSLS     r0,r0,#31
        0x00002354:    0fc0        ..      LSRS     r0,r0,#31
        0x00002356:    2800        .(      CMP      r0,#0
        0x00002358:    d005        ..      BEQ      0x2366 ; set_AUX_LDO_voltage + 76
        0x0000235a:    494f        OI      LDR      r1,[pc,#316] ; [0x2498] = 0x392
        0x0000235c:    1cc9        ..      ADDS     r1,r1,#3
        0x0000235e:    1860        `.      ADDS     r0,r4,r1
        0x00002360:    f7fffd18    ....    BL       clear_asc_bit ; 0x1d94
        0x00002364:    e004        ..      B        0x2370 ; set_AUX_LDO_voltage + 86
        0x00002366:    494c        LI      LDR      r1,[pc,#304] ; [0x2498] = 0x392
        0x00002368:    1cc9        ..      ADDS     r1,r1,#3
        0x0000236a:    1860        `.      ADDS     r0,r4,r1
        0x0000236c:    f7fffd22    ..".    BL       set_asc_bit ; 0x1db4
        0x00002370:    1c64        d.      ADDS     r4,r4,#1
        0x00002372:    2c06        .,      CMP      r4,#6
        0x00002374:    d9eb        ..      BLS      0x234e ; set_AUX_LDO_voltage + 52
        0x00002376:    bd30        0.      POP      {r4,r5,pc}
    set_ALWAYSON_LDO_voltage
        0x00002378:    b530        0.      PUSH     {r4,r5,lr}
        0x0000237a:    4605        .F      MOV      r5,r0
        0x0000237c:    2400        .$      MOVS     r4,#0
        0x0000237e:    e011        ..      B        0x23a4 ; set_ALWAYSON_LDO_voltage + 44
        0x00002380:    4628        (F      MOV      r0,r5
        0x00002382:    4120         A      ASRS     r0,r0,r4
        0x00002384:    07c0        ..      LSLS     r0,r0,#31
        0x00002386:    0fc0        ..      LSRS     r0,r0,#31
        0x00002388:    2800        .(      CMP      r0,#0
        0x0000238a:    d005        ..      BEQ      0x2398 ; set_ALWAYSON_LDO_voltage + 32
        0x0000238c:    4942        BI      LDR      r1,[pc,#264] ; [0x2498] = 0x392
        0x0000238e:    310f        .1      ADDS     r1,r1,#0xf
        0x00002390:    1b08        ..      SUBS     r0,r1,r4
        0x00002392:    f7fffd0f    ....    BL       set_asc_bit ; 0x1db4
        0x00002396:    e004        ..      B        0x23a2 ; set_ALWAYSON_LDO_voltage + 42
        0x00002398:    493f        ?I      LDR      r1,[pc,#252] ; [0x2498] = 0x392
        0x0000239a:    310f        .1      ADDS     r1,r1,#0xf
        0x0000239c:    1b08        ..      SUBS     r0,r1,r4
        0x0000239e:    f7fffcf9    ....    BL       clear_asc_bit ; 0x1d94
        0x000023a2:    1c64        d.      ADDS     r4,r4,#1
        0x000023a4:    2c04        .,      CMP      r4,#4
        0x000023a6:    d9eb        ..      BLS      0x2380 ; set_ALWAYSON_LDO_voltage + 8
        0x000023a8:    06a8        ..      LSLS     r0,r5,#26
        0x000023aa:    0fc0        ..      LSRS     r0,r0,#31
        0x000023ac:    2800        .(      CMP      r0,#0
        0x000023ae:    d004        ..      BEQ      0x23ba ; set_ALWAYSON_LDO_voltage + 66
        0x000023b0:    20e7        .       MOVS     r0,#0xe7
        0x000023b2:    0080        ..      LSLS     r0,r0,#2
        0x000023b4:    f7fffcee    ....    BL       clear_asc_bit ; 0x1d94
        0x000023b8:    e003        ..      B        0x23c2 ; set_ALWAYSON_LDO_voltage + 74
        0x000023ba:    20e7        .       MOVS     r0,#0xe7
        0x000023bc:    0080        ..      LSLS     r0,r0,#2
        0x000023be:    f7fffcf9    ....    BL       set_asc_bit ; 0x1db4
        0x000023c2:    0668        h.      LSLS     r0,r5,#25
        0x000023c4:    0fc0        ..      LSRS     r0,r0,#31
        0x000023c6:    2800        .(      CMP      r0,#0
        0x000023c8:    d004        ..      BEQ      0x23d4 ; set_ALWAYSON_LDO_voltage + 92
        0x000023ca:    4831        1H      LDR      r0,[pc,#196] ; [0x2490] = 0x1ff
        0x000023cc:    302e        .0      ADDS     r0,r0,#0x2e
        0x000023ce:    f7fffce1    ....    BL       clear_asc_bit ; 0x1d94
        0x000023d2:    e003        ..      B        0x23dc ; set_ALWAYSON_LDO_voltage + 100
        0x000023d4:    482e        .H      LDR      r0,[pc,#184] ; [0x2490] = 0x1ff
        0x000023d6:    302e        .0      ADDS     r0,r0,#0x2e
        0x000023d8:    f7fffcec    ....    BL       set_asc_bit ; 0x1db4
        0x000023dc:    bd30        0.      POP      {r4,r5,pc}
    set_zcc_demod_threshold
        0x000023de:    b530        0.      PUSH     {r4,r5,lr}
        0x000023e0:    4605        .F      MOV      r5,r0
        0x000023e2:    2400        .$      MOVS     r4,#0
        0x000023e4:    e00f        ..      B        0x2406 ; set_zcc_demod_threshold + 40
        0x000023e6:    4628        (F      MOV      r0,r5
        0x000023e8:    40e0        .@      LSRS     r0,r0,r4
        0x000023ea:    07c0        ..      LSLS     r0,r0,#31
        0x000023ec:    0fc0        ..      LSRS     r0,r0,#31
        0x000023ee:    2800        .(      CMP      r0,#0
        0x000023f0:    d004        ..      BEQ      0x23fc ; set_zcc_demod_threshold + 30
        0x000023f2:    4620         F      MOV      r0,r4
        0x000023f4:    306b        k0      ADDS     r0,r0,#0x6b
        0x000023f6:    f7fffcdd    ....    BL       set_asc_bit ; 0x1db4
        0x000023fa:    e003        ..      B        0x2404 ; set_zcc_demod_threshold + 38
        0x000023fc:    4620         F      MOV      r0,r4
        0x000023fe:    306b        k0      ADDS     r0,r0,#0x6b
        0x00002400:    f7fffcc8    ....    BL       clear_asc_bit ; 0x1d94
        0x00002404:    1c64        d.      ADDS     r4,r4,#1
        0x00002406:    2c0f        .,      CMP      r4,#0xf
        0x00002408:    dded        ..      BLE      0x23e6 ; set_zcc_demod_threshold + 8
        0x0000240a:    bd30        0.      POP      {r4,r5,pc}
    set_IF_ZCC_clkdiv
        0x0000240c:    b530        0.      PUSH     {r4,r5,lr}
        0x0000240e:    4605        .F      MOV      r5,r0
        0x00002410:    2400        .$      MOVS     r4,#0
        0x00002412:    e00f        ..      B        0x2434 ; set_IF_ZCC_clkdiv + 40
        0x00002414:    4628        (F      MOV      r0,r5
        0x00002416:    40e0        .@      LSRS     r0,r0,r4
        0x00002418:    07c0        ..      LSLS     r0,r0,#31
        0x0000241a:    0fc0        ..      LSRS     r0,r0,#31
        0x0000241c:    2800        .(      CMP      r0,#0
        0x0000241e:    d004        ..      BEQ      0x242a ; set_IF_ZCC_clkdiv + 30
        0x00002420:    4620         F      MOV      r0,r4
        0x00002422:    307c        |0      ADDS     r0,r0,#0x7c
        0x00002424:    f7fffcc6    ....    BL       set_asc_bit ; 0x1db4
        0x00002428:    e003        ..      B        0x2432 ; set_IF_ZCC_clkdiv + 38
        0x0000242a:    4620         F      MOV      r0,r4
        0x0000242c:    307c        |0      ADDS     r0,r0,#0x7c
        0x0000242e:    f7fffcb1    ....    BL       clear_asc_bit ; 0x1d94
        0x00002432:    1c64        d.      ADDS     r4,r4,#1
        0x00002434:    2c07        .,      CMP      r4,#7
        0x00002436:    dded        ..      BLE      0x2414 ; set_IF_ZCC_clkdiv + 8
        0x00002438:    bd30        0.      POP      {r4,r5,pc}
    set_IF_ZCC_early
        0x0000243a:    b530        0.      PUSH     {r4,r5,lr}
        0x0000243c:    4605        .F      MOV      r5,r0
        0x0000243e:    2400        .$      MOVS     r4,#0
        0x00002440:    e00f        ..      B        0x2462 ; set_IF_ZCC_early + 40
        0x00002442:    4628        (F      MOV      r0,r5
        0x00002444:    40e0        .@      LSRS     r0,r0,r4
        0x00002446:    07c0        ..      LSLS     r0,r0,#31
        0x00002448:    0fc0        ..      LSRS     r0,r0,#31
        0x0000244a:    2800        .(      CMP      r0,#0
        0x0000244c:    d004        ..      BEQ      0x2458 ; set_IF_ZCC_early + 30
        0x0000244e:    4620         F      MOV      r0,r4
        0x00002450:    30d1        .0      ADDS     r0,r0,#0xd1
        0x00002452:    f7fffcaf    ....    BL       set_asc_bit ; 0x1db4
        0x00002456:    e003        ..      B        0x2460 ; set_IF_ZCC_early + 38
        0x00002458:    4620         F      MOV      r0,r4
        0x0000245a:    30d1        .0      ADDS     r0,r0,#0xd1
        0x0000245c:    f7fffc9a    ....    BL       clear_asc_bit ; 0x1d94
        0x00002460:    1c64        d.      ADDS     r4,r4,#1
        0x00002462:    2c0f        .,      CMP      r4,#0xf
        0x00002464:    dded        ..      BLE      0x2442 ; set_IF_ZCC_early + 8
        0x00002466:    bd30        0.      POP      {r4,r5,pc}
    set_IF_stg3gm_ASC
        0x00002468:    b570        p.      PUSH     {r4-r6,lr}
        0x0000246a:    4605        .F      MOV      r5,r0
        0x0000246c:    460e        .F      MOV      r6,r1
        0x0000246e:    2400        .$      MOVS     r4,#0
        0x00002470:    e00a        ..      B        0x2488 ; set_IF_stg3gm_ASC + 32
        0x00002472:    4620         F      MOV      r0,r4
        0x00002474:    30ff        .0      ADDS     r0,r0,#0xff
        0x00002476:    30d9        .0      ADDS     r0,r0,#0xd9
        0x00002478:    f7fffc8c    ....    BL       clear_asc_bit ; 0x1d94
        0x0000247c:    4620         F      MOV      r0,r4
        0x0000247e:    30ff        .0      ADDS     r0,r0,#0xff
        0x00002480:    3017        .0      ADDS     r0,r0,#0x17
        0x00002482:    f7fffc87    ....    BL       clear_asc_bit ; 0x1d94
        0x00002486:    1c64        d.      ADDS     r4,r4,#1
        0x00002488:    2c0d        .,      CMP      r4,#0xd
        0x0000248a:    dbf2        ..      BLT      0x2472 ; set_IF_stg3gm_ASC + 10
        0x0000248c:    2400        .$      MOVS     r4,#0
        0x0000248e:    e0b9        ..      B        0x2604 ; set_IF_stg3gm_ASC + 412
    $d
        0x00002490:    000001ff    ....    DCD    511
        0x00002494:    52280000    ..(R    DCD    1378353152
        0x00002498:    00000392    ....    DCD    914
        0x0000249c:    0a0d0a0d    ....    DCD    168626701
        0x000024a0:    72617453    Star    DCD    1918989395
        0x000024a4:    676e6974    ting    DCD    1735289204
        0x000024a8:    41525320     SRA    DCD    1095914272
        0x000024ac:    6574204d    M te    DCD    1702109261
        0x000024b0:    66207473    st f    DCD    1713402995
        0x000024b4:    206d6f72    rom     DCD    544042866
        0x000024b8:    58257830    0x%X    DCD    1478850608
        0x000024bc:    206f7420     to     DCD    544175136
        0x000024c0:    58257830    0x%X    DCD    1478850608
        0x000024c4:    0d2e2e2e    ....    DCD    221130286
        0x000024c8:    0000000a    ....    DCD    10
        0x000024cc:    73696854    This    DCD    1936287828
        0x000024d0:    6b617420     tak    DCD    1801548832
        0x000024d4:    61207365    es a    DCD    1629516645
        0x000024d8:    6c696877    whil    DCD    1818847351
        0x000024dc:    2e2e2e65    e...    DCD    774778469
        0x000024e0:    00000a0d    ....    DCD    2573
        0x000024e4:    52450a0d    ..ER    DCD    1380256269
        0x000024e8:    20524f52    ROR     DCD    542265170
        0x000024ec:    20402031    1 @     DCD    541073457
        0x000024f0:    72646461    addr    DCD    1919181921
        0x000024f4:    20737365    ess     DCD    544437093
        0x000024f8:    62205825    %X b    DCD    1646286885
        0x000024fc:    25207469    it %    DCD    622883945
        0x00002500:    2d2d2064    d --    DCD    757932132
        0x00002504:    6c615620     Val    DCD    1818318368
        0x00002508:    69206575    ue i    DCD    1763730805
        0x0000250c:    58252073    s %X    DCD    1478828147
        0x00002510:    00000000    ....    DCD    0
        0x00002514:    52450a0d    ..ER    DCD    1380256269
        0x00002518:    20524f52    ROR     DCD    542265170
        0x0000251c:    20402032    2 @     DCD    541073458
        0x00002520:    72646461    addr    DCD    1919181921
        0x00002524:    20737365    ess     DCD    544437093
        0x00002528:    62205825    %X b    DCD    1646286885
        0x0000252c:    25207469    it %    DCD    622883945
        0x00002530:    2d2d2064    d --    DCD    757932132
        0x00002534:    6c615620     Val    DCD    1818318368
        0x00002538:    69206575    ue i    DCD    1763730805
        0x0000253c:    58252073    s %X    DCD    1478828147
        0x00002540:    00000000    ....    DCD    0
        0x00002544:    52450a0d    ..ER    DCD    1380256269
        0x00002548:    20524f52    ROR     DCD    542265170
        0x0000254c:    20402033    3 @     DCD    541073459
        0x00002550:    72646461    addr    DCD    1919181921
        0x00002554:    20737365    ess     DCD    544437093
        0x00002558:    62205825    %X b    DCD    1646286885
        0x0000255c:    25207469    it %    DCD    622883945
        0x00002560:    2d2d2064    d --    DCD    757932132
        0x00002564:    6c615620     Val    DCD    1818318368
        0x00002568:    69206575    ue i    DCD    1763730805
        0x0000256c:    58252073    s %X    DCD    1478828147
        0x00002570:    00000000    ....    DCD    0
        0x00002574:    52450a0d    ..ER    DCD    1380256269
        0x00002578:    20524f52    ROR     DCD    542265170
        0x0000257c:    20402034    4 @     DCD    541073460
        0x00002580:    72646461    addr    DCD    1919181921
        0x00002584:    20737365    ess     DCD    544437093
        0x00002588:    62205825    %X b    DCD    1646286885
        0x0000258c:    25207469    it %    DCD    622883945
        0x00002590:    2d2d2064    d --    DCD    757932132
        0x00002594:    6c615620     Val    DCD    1818318368
        0x00002598:    69206575    ue i    DCD    1763730805
        0x0000259c:    58252073    s %X    DCD    1478828147
        0x000025a0:    00000000    ....    DCD    0
        0x000025a4:    52450a0d    ..ER    DCD    1380256269
        0x000025a8:    20524f52    ROR     DCD    542265170
        0x000025ac:    20402035    5 @     DCD    541073461
        0x000025b0:    72646461    addr    DCD    1919181921
        0x000025b4:    20737365    ess     DCD    544437093
        0x000025b8:    62205825    %X b    DCD    1646286885
        0x000025bc:    25207469    it %    DCD    622883945
        0x000025c0:    2d2d2064    d --    DCD    757932132
        0x000025c4:    6c615620     Val    DCD    1818318368
        0x000025c8:    69206575    ue i    DCD    1763730805
        0x000025cc:    58252073    s %X    DCD    1478828147
        0x000025d0:    00000000    ....    DCD    0
        0x000025d4:    52530a0d    ..SR    DCD    1381173773
        0x000025d8:    54204d41    AM T    DCD    1411403073
        0x000025dc:    20747365    est     DCD    544502629
        0x000025e0:    706d6f43    Comp    DCD    1886220099
        0x000025e4:    6574656c    lete    DCD    1702126956
        0x000025e8:    202d2d20     --     DCD    539831584
        0x000025ec:    45206425    %d E    DCD    1159750693
        0x000025f0:    726f7272    rror    DCD    1919906418
        0x000025f4:    000a0d73    s...    DCD    658803
    $t
        0x000025f8:    21ff        .!      MOVS     r1,#0xff
        0x000025fa:    31e5        .1      ADDS     r1,r1,#0xe5
        0x000025fc:    1b08        ..      SUBS     r0,r1,r4
        0x000025fe:    f7fffbd9    ....    BL       set_asc_bit ; 0x1db4
        0x00002602:    1c64        d.      ADDS     r4,r4,#1
        0x00002604:    42ac        .B      CMP      r4,r5
        0x00002606:    d9f7        ..      BLS      0x25f8 ; set_IF_stg3gm_ASC + 400
        0x00002608:    2400        .$      MOVS     r4,#0
        0x0000260a:    e005        ..      B        0x2618 ; set_IF_stg3gm_ASC + 432
        0x0000260c:    4620         F      MOV      r0,r4
        0x0000260e:    30ff        .0      ADDS     r0,r0,#0xff
        0x00002610:    3017        .0      ADDS     r0,r0,#0x17
        0x00002612:    f7fffbbf    ....    BL       clear_asc_bit ; 0x1d94
        0x00002616:    1c64        d.      ADDS     r4,r4,#1
        0x00002618:    42b4        .B      CMP      r4,r6
        0x0000261a:    d9f7        ..      BLS      0x260c ; set_IF_stg3gm_ASC + 420
        0x0000261c:    bd70        p.      POP      {r4-r6,pc}
    set_IF_comparator_trim_I
        0x0000261e:    b570        p.      PUSH     {r4-r6,lr}
        0x00002620:    4605        .F      MOV      r5,r0
        0x00002622:    460e        .F      MOV      r6,r1
        0x00002624:    2400        .$      MOVS     r4,#0
        0x00002626:    e011        ..      B        0x264c ; set_IF_comparator_trim_I + 46
        0x00002628:    4630        0F      MOV      r0,r6
        0x0000262a:    40e0        .@      LSRS     r0,r0,r4
        0x0000262c:    07c0        ..      LSLS     r0,r0,#31
        0x0000262e:    0fc0        ..      LSRS     r0,r0,#31
        0x00002630:    2800        .(      CMP      r0,#0
        0x00002632:    d005        ..      BEQ      0x2640 ; set_IF_comparator_trim_I + 34
        0x00002634:    4620         F      MOV      r0,r4
        0x00002636:    30ff        .0      ADDS     r0,r0,#0xff
        0x00002638:    30c5        .0      ADDS     r0,r0,#0xc5
        0x0000263a:    f7fffbbb    ....    BL       set_asc_bit ; 0x1db4
        0x0000263e:    e004        ..      B        0x264a ; set_IF_comparator_trim_I + 44
        0x00002640:    4620         F      MOV      r0,r4
        0x00002642:    30ff        .0      ADDS     r0,r0,#0xff
        0x00002644:    30c5        .0      ADDS     r0,r0,#0xc5
        0x00002646:    f7fffba5    ....    BL       clear_asc_bit ; 0x1d94
        0x0000264a:    1c64        d.      ADDS     r4,r4,#1
        0x0000264c:    2c04        .,      CMP      r4,#4
        0x0000264e:    ddeb        ..      BLE      0x2628 ; set_IF_comparator_trim_I + 10
        0x00002650:    2400        .$      MOVS     r4,#0
        0x00002652:    e011        ..      B        0x2678 ; set_IF_comparator_trim_I + 90
        0x00002654:    4628        (F      MOV      r0,r5
        0x00002656:    40e0        .@      LSRS     r0,r0,r4
        0x00002658:    07c0        ..      LSLS     r0,r0,#31
        0x0000265a:    0fc0        ..      LSRS     r0,r0,#31
        0x0000265c:    2800        .(      CMP      r0,#0
        0x0000265e:    d005        ..      BEQ      0x266c ; set_IF_comparator_trim_I + 78
        0x00002660:    4620         F      MOV      r0,r4
        0x00002662:    30ff        .0      ADDS     r0,r0,#0xff
        0x00002664:    30ca        .0      ADDS     r0,r0,#0xca
        0x00002666:    f7fffba5    ....    BL       set_asc_bit ; 0x1db4
        0x0000266a:    e004        ..      B        0x2676 ; set_IF_comparator_trim_I + 88
        0x0000266c:    4620         F      MOV      r0,r4
        0x0000266e:    30ff        .0      ADDS     r0,r0,#0xff
        0x00002670:    30ca        .0      ADDS     r0,r0,#0xca
        0x00002672:    f7fffb8f    ....    BL       clear_asc_bit ; 0x1d94
        0x00002676:    1c64        d.      ADDS     r4,r4,#1
        0x00002678:    2c04        .,      CMP      r4,#4
        0x0000267a:    ddeb        ..      BLE      0x2654 ; set_IF_comparator_trim_I + 54
        0x0000267c:    bd70        p.      POP      {r4-r6,pc}
    set_IF_comparator_trim_Q
        0x0000267e:    b570        p.      PUSH     {r4-r6,lr}
        0x00002680:    4605        .F      MOV      r5,r0
        0x00002682:    460e        .F      MOV      r6,r1
        0x00002684:    2400        .$      MOVS     r4,#0
        0x00002686:    e011        ..      B        0x26ac ; set_IF_comparator_trim_Q + 46
        0x00002688:    4630        0F      MOV      r0,r6
        0x0000268a:    40e0        .@      LSRS     r0,r0,r4
        0x0000268c:    07c0        ..      LSLS     r0,r0,#31
        0x0000268e:    0fc0        ..      LSRS     r0,r0,#31
        0x00002690:    2800        .(      CMP      r0,#0
        0x00002692:    d005        ..      BEQ      0x26a0 ; set_IF_comparator_trim_Q + 34
        0x00002694:    21ff        .!      MOVS     r1,#0xff
        0x00002696:    3159        Y1      ADDS     r1,r1,#0x59
        0x00002698:    1b08        ..      SUBS     r0,r1,r4
        0x0000269a:    f7fffb8b    ....    BL       set_asc_bit ; 0x1db4
        0x0000269e:    e004        ..      B        0x26aa ; set_IF_comparator_trim_Q + 44
        0x000026a0:    21ff        .!      MOVS     r1,#0xff
        0x000026a2:    3159        Y1      ADDS     r1,r1,#0x59
        0x000026a4:    1b08        ..      SUBS     r0,r1,r4
        0x000026a6:    f7fffb75    ..u.    BL       clear_asc_bit ; 0x1d94
        0x000026aa:    1c64        d.      ADDS     r4,r4,#1
        0x000026ac:    2c04        .,      CMP      r4,#4
        0x000026ae:    ddeb        ..      BLE      0x2688 ; set_IF_comparator_trim_Q + 10
        0x000026b0:    2400        .$      MOVS     r4,#0
        0x000026b2:    e011        ..      B        0x26d8 ; set_IF_comparator_trim_Q + 90
        0x000026b4:    4628        (F      MOV      r0,r5
        0x000026b6:    40e0        .@      LSRS     r0,r0,r4
        0x000026b8:    07c0        ..      LSLS     r0,r0,#31
        0x000026ba:    0fc0        ..      LSRS     r0,r0,#31
        0x000026bc:    2800        .(      CMP      r0,#0
        0x000026be:    d005        ..      BEQ      0x26cc ; set_IF_comparator_trim_Q + 78
        0x000026c0:    21ff        .!      MOVS     r1,#0xff
        0x000026c2:    3154        T1      ADDS     r1,r1,#0x54
        0x000026c4:    1b08        ..      SUBS     r0,r1,r4
        0x000026c6:    f7fffb75    ..u.    BL       set_asc_bit ; 0x1db4
        0x000026ca:    e004        ..      B        0x26d6 ; set_IF_comparator_trim_Q + 88
        0x000026cc:    21ff        .!      MOVS     r1,#0xff
        0x000026ce:    3154        T1      ADDS     r1,r1,#0x54
        0x000026d0:    1b08        ..      SUBS     r0,r1,r4
        0x000026d2:    f7fffb5f    .._.    BL       clear_asc_bit ; 0x1d94
        0x000026d6:    1c64        d.      ADDS     r4,r4,#1
        0x000026d8:    2c04        .,      CMP      r4,#4
        0x000026da:    ddeb        ..      BLE      0x26b4 ; set_IF_comparator_trim_Q + 54
        0x000026dc:    bd70        p.      POP      {r4-r6,pc}
    set_IF_gain_ASC
        0x000026de:    b570        p.      PUSH     {r4-r6,lr}
        0x000026e0:    4605        .F      MOV      r5,r0
        0x000026e2:    460e        .F      MOV      r6,r1
        0x000026e4:    2400        .$      MOVS     r4,#0
        0x000026e6:    e011        ..      B        0x270c ; set_IF_gain_ASC + 46
        0x000026e8:    4628        (F      MOV      r0,r5
        0x000026ea:    40e0        .@      LSRS     r0,r0,r4
        0x000026ec:    07c0        ..      LSLS     r0,r0,#31
        0x000026ee:    0fc0        ..      LSRS     r0,r0,#31
        0x000026f0:    2800        .(      CMP      r0,#0
        0x000026f2:    d005        ..      BEQ      0x2700 ; set_IF_gain_ASC + 34
        0x000026f4:    4620         F      MOV      r0,r4
        0x000026f6:    30ff        .0      ADDS     r0,r0,#0xff
        0x000026f8:    30e6        .0      ADDS     r0,r0,#0xe6
        0x000026fa:    f7fffb5b    ..[.    BL       set_asc_bit ; 0x1db4
        0x000026fe:    e004        ..      B        0x270a ; set_IF_gain_ASC + 44
        0x00002700:    4620         F      MOV      r0,r4
        0x00002702:    30ff        .0      ADDS     r0,r0,#0xff
        0x00002704:    30e6        .0      ADDS     r0,r0,#0xe6
        0x00002706:    f7fffb45    ..E.    BL       clear_asc_bit ; 0x1d94
        0x0000270a:    1c64        d.      ADDS     r4,r4,#1
        0x0000270c:    2c04        .,      CMP      r4,#4
        0x0000270e:    ddeb        ..      BLE      0x26e8 ; set_IF_gain_ASC + 10
        0x00002710:    2400        .$      MOVS     r4,#0
        0x00002712:    e011        ..      B        0x2738 ; set_IF_gain_ASC + 90
        0x00002714:    4630        0F      MOV      r0,r6
        0x00002716:    40e0        .@      LSRS     r0,r0,r4
        0x00002718:    07c0        ..      LSLS     r0,r0,#31
        0x0000271a:    0fc0        ..      LSRS     r0,r0,#31
        0x0000271c:    2800        .(      CMP      r0,#0
        0x0000271e:    d005        ..      BEQ      0x272c ; set_IF_gain_ASC + 78
        0x00002720:    21ff        .!      MOVS     r1,#0xff
        0x00002722:    3116        .1      ADDS     r1,r1,#0x16
        0x00002724:    1b08        ..      SUBS     r0,r1,r4
        0x00002726:    f7fffb45    ..E.    BL       set_asc_bit ; 0x1db4
        0x0000272a:    e004        ..      B        0x2736 ; set_IF_gain_ASC + 88
        0x0000272c:    21ff        .!      MOVS     r1,#0xff
        0x0000272e:    3116        .1      ADDS     r1,r1,#0x16
        0x00002730:    1b08        ..      SUBS     r0,r1,r4
        0x00002732:    f7fffb2f    ../.    BL       clear_asc_bit ; 0x1d94
        0x00002736:    1c64        d.      ADDS     r4,r4,#1
        0x00002738:    2c05        .,      CMP      r4,#5
        0x0000273a:    ddeb        ..      BLE      0x2714 ; set_IF_gain_ASC + 54
        0x0000273c:    bd70        p.      POP      {r4-r6,pc}
    radio_init_rx_MF
        0x0000273e:    b5f8        ..      PUSH     {r3-r7,lr}
        0x00002740:    4cf9        .L      LDR      r4,[pc,#996] ; [0x2b28] = 0xfffc0000
        0x00002742:    0d65        e.      LSRS     r5,r4,#21
        0x00002744:    48f9        .H      LDR      r0,[pc,#996] ; [0x2b2c] = 0x200005c0
        0x00002746:    6a00        .j      LDR      r0,[r0,#0x20]
        0x00002748:    4020         @      ANDS     r0,r0,r4
        0x0000274a:    49f8        .I      LDR      r1,[pc,#992] ; [0x2b2c] = 0x200005c0
        0x0000274c:    6208        .b      STR      r0,[r1,#0x20]
        0x0000274e:    4608        .F      MOV      r0,r1
        0x00002750:    6bc0        .k      LDR      r0,[r0,#0x3c]
        0x00002752:    4028        (@      ANDS     r0,r0,r5
        0x00002754:    63c8        .c      STR      r0,[r1,#0x3c]
        0x00002756:    4608        .F      MOV      r0,r1
        0x00002758:    6a00        .j      LDR      r0,[r0,#0x20]
        0x0000275a:    49f5        .I      LDR      r1,[pc,#980] ; [0x2b30] = 0x4050ffe0
        0x0000275c:    43a1        .C      BICS     r1,r1,r4
        0x0000275e:    4308        .C      ORRS     r0,r0,r1
        0x00002760:    49f2        .I      LDR      r1,[pc,#968] ; [0x2b2c] = 0x200005c0
        0x00002762:    6208        .b      STR      r0,[r1,#0x20]
        0x00002764:    48f3        .H      LDR      r0,[pc,#972] ; [0x2b34] = 0x422188
        0x00002766:    6248        Hb      STR      r0,[r1,#0x24]
        0x00002768:    48f3        .H      LDR      r0,[pc,#972] ; [0x2b38] = 0x88040031
        0x0000276a:    6288        .b      STR      r0,[r1,#0x28]
        0x0000276c:    48f3        .H      LDR      r0,[pc,#972] ; [0x2b3c] = 0x113b4081
        0x0000276e:    62c8        .b      STR      r0,[r1,#0x2c]
        0x00002770:    48f3        .H      LDR      r0,[pc,#972] ; [0x2b40] = 0x27e8102
        0x00002772:    6308        .c      STR      r0,[r1,#0x30]
        0x00002774:    48f3        .H      LDR      r0,[pc,#972] ; [0x2b44] = 0x3ed4844
        0x00002776:    6348        Hc      STR      r0,[r1,#0x34]
        0x00002778:    48f3        .H      LDR      r0,[pc,#972] ; [0x2b48] = 0x60010000
        0x0000277a:    6388        .c      STR      r0,[r1,#0x38]
        0x0000277c:    4608        .F      MOV      r0,r1
        0x0000277e:    6bc0        .k      LDR      r0,[r0,#0x3c]
        0x00002780:    49f2        .I      LDR      r1,[pc,#968] ; [0x2b4c] = 0xffe02e03
        0x00002782:    43a9        .C      BICS     r1,r1,r5
        0x00002784:    4308        .C      ORRS     r0,r0,r1
        0x00002786:    49e9        .I      LDR      r1,[pc,#932] ; [0x2b2c] = 0x200005c0
        0x00002788:    63c8        .c      STR      r0,[r1,#0x3c]
        0x0000278a:    20ff        .       MOVS     r0,#0xff
        0x0000278c:    30a9        .0      ADDS     r0,r0,#0xa9
        0x0000278e:    f7fffb01    ....    BL       clear_asc_bit ; 0x1d94
        0x00002792:    20ff        .       MOVS     r0,#0xff
        0x00002794:    30aa        .0      ADDS     r0,r0,#0xaa
        0x00002796:    f7fffb0d    ....    BL       set_asc_bit ; 0x1db4
        0x0000279a:    213f        ?!      MOVS     r1,#0x3f
        0x0000279c:    4608        .F      MOV      r0,r1
        0x0000279e:    f7ffff9e    ....    BL       set_IF_gain_ASC ; 0x26de
        0x000027a2:    2107        .!      MOVS     r1,#7
        0x000027a4:    4608        .F      MOV      r0,r1
        0x000027a6:    f7fffe5f    .._.    BL       set_IF_stg3gm_ASC ; 0x2468
        0x000027aa:    2100        .!      MOVS     r1,#0
        0x000027ac:    4608        .F      MOV      r0,r1
        0x000027ae:    f7ffff36    ..6.    BL       set_IF_comparator_trim_I ; 0x261e
        0x000027b2:    2100        .!      MOVS     r1,#0
        0x000027b4:    4608        .F      MOV      r0,r1
        0x000027b6:    f7ffff62    ..b.    BL       set_IF_comparator_trim_Q ; 0x267e
        0x000027ba:    2000        .       MOVS     r0,#0
        0x000027bc:    f7fffaea    ....    BL       clear_asc_bit ; 0x1d94
        0x000027c0:    2001        .       MOVS     r0,#1
        0x000027c2:    f7fffae7    ....    BL       clear_asc_bit ; 0x1d94
        0x000027c6:    2060        `       MOVS     r0,#0x60
        0x000027c8:    f7fffae4    ....    BL       clear_asc_bit ; 0x1d94
        0x000027cc:    20ff        .       MOVS     r0,#0xff
        0x000027ce:    3010        .0      ADDS     r0,r0,#0x10
        0x000027d0:    f7fffae0    ....    BL       clear_asc_bit ; 0x1d94
        0x000027d4:    20ff        .       MOVS     r0,#0xff
        0x000027d6:    30ec        .0      ADDS     r0,r0,#0xec
        0x000027d8:    f7fffadc    ....    BL       clear_asc_bit ; 0x1d94
        0x000027dc:    2064        d       MOVS     r0,#0x64
        0x000027de:    f7fffad9    ....    BL       clear_asc_bit ; 0x1d94
        0x000027e2:    2065        e       MOVS     r0,#0x65
        0x000027e4:    f7fffad6    ....    BL       clear_asc_bit ; 0x1d94
        0x000027e8:    2066        f       MOVS     r0,#0x66
        0x000027ea:    f7fffad3    ....    BL       clear_asc_bit ; 0x1d94
        0x000027ee:    2061        a       MOVS     r0,#0x61
        0x000027f0:    f7fffae0    ....    BL       set_asc_bit ; 0x1db4
        0x000027f4:    2000        .       MOVS     r0,#0
        0x000027f6:    49d6        .I      LDR      r1,[pc,#856] ; [0x2b50] = 0x52380000
        0x000027f8:    6008        .`      STR      r0,[r1,#0]
        0x000027fa:    48d6        .H      LDR      r0,[pc,#856] ; [0x2b54] = 0xa00f
        0x000027fc:    49d6        .I      LDR      r1,[pc,#856] ; [0x2b58] = 0x523c0000
        0x000027fe:    6008        .`      STR      r0,[r1,#0]
        0x00002800:    2067        g       MOVS     r0,#0x67
        0x00002802:    f7fffad7    ....    BL       set_asc_bit ; 0x1db4
        0x00002806:    260b        .&      MOVS     r6,#0xb
        0x00002808:    2702        .'      MOVS     r7,#2
        0x0000280a:    02f0        ..      LSLS     r0,r6,#11
        0x0000280c:    01f9        ..      LSLS     r1,r7,#7
        0x0000280e:    4308        .C      ORRS     r0,r0,r1
        0x00002810:    49d2        .I      LDR      r1,[pc,#840] ; [0x2b5c] = 0x520c0000
        0x00002812:    6008        .`      STR      r0,[r1,#0]
        0x00002814:    2005        .       MOVS     r0,#5
        0x00002816:    9000        ..      STR      r0,[sp,#0]
        0x00002818:    49d1        .I      LDR      r1,[pc,#836] ; [0x2b60] = 0x52240000
        0x0000281a:    9800        ..      LDR      r0,[sp,#0]
        0x0000281c:    6008        .`      STR      r0,[r1,#0]
        0x0000281e:    20ff        .       MOVS     r0,#0xff
        0x00002820:    300e        .0      ADDS     r0,r0,#0xe
        0x00002822:    f7fffab7    ....    BL       clear_asc_bit ; 0x1d94
        0x00002826:    20ff        .       MOVS     r0,#0xff
        0x00002828:    300f        .0      ADDS     r0,r0,#0xf
        0x0000282a:    f7fffab3    ....    BL       clear_asc_bit ; 0x1d94
        0x0000282e:    2000        .       MOVS     r0,#0
        0x00002830:    f7fffd2b    ..+.    BL       set_IF_LDO_voltage ; 0x228a
        0x00002834:    20f0        .       MOVS     r0,#0xf0
        0x00002836:    f7fffabd    ....    BL       set_asc_bit ; 0x1db4
        0x0000283a:    205d        ]       MOVS     r0,#0x5d
        0x0000283c:    00c0        ..      LSLS     r0,r0,#3
        0x0000283e:    f7fffab9    ....    BL       set_asc_bit ; 0x1db4
        0x00002842:    48c8        .H      LDR      r0,[pc,#800] ; [0x2b64] = 0x2e9
        0x00002844:    f7fffab6    ....    BL       set_asc_bit ; 0x1db4
        0x00002848:    48c6        .H      LDR      r0,[pc,#792] ; [0x2b64] = 0x2e9
        0x0000284a:    1c40        @.      ADDS     r0,r0,#1
        0x0000284c:    f7fffab2    ....    BL       set_asc_bit ; 0x1db4
        0x00002850:    2001        .       MOVS     r0,#1
        0x00002852:    49c5        .I      LDR      r1,[pc,#788] ; [0x2b68] = 0x52400000
        0x00002854:    6008        .`      STR      r0,[r1,#0]
        0x00002856:    bdf8        ..      POP      {r3-r7,pc}
    radio_init_rx_ZCC
        0x00002858:    b570        p.      PUSH     {r4-r6,lr}
        0x0000285a:    4cc4        .L      LDR      r4,[pc,#784] ; [0x2b6c] = 0xfffe0000
        0x0000285c:    0d65        e.      LSRS     r5,r4,#21
        0x0000285e:    48b3        .H      LDR      r0,[pc,#716] ; [0x2b2c] = 0x200005c0
        0x00002860:    6a00        .j      LDR      r0,[r0,#0x20]
        0x00002862:    4020         @      ANDS     r0,r0,r4
        0x00002864:    49b1        .I      LDR      r1,[pc,#708] ; [0x2b2c] = 0x200005c0
        0x00002866:    6208        .b      STR      r0,[r1,#0x20]
        0x00002868:    4608        .F      MOV      r0,r1
        0x0000286a:    6bc0        .k      LDR      r0,[r0,#0x3c]
        0x0000286c:    4028        (@      ANDS     r0,r0,r5
        0x0000286e:    63c8        .c      STR      r0,[r1,#0x3c]
        0x00002870:    4608        .F      MOV      r0,r1
        0x00002872:    6a00        .j      LDR      r0,[r0,#0x20]
        0x00002874:    49be        .I      LDR      r1,[pc,#760] ; [0x2b70] = 0xfff0
        0x00002876:    43a1        .C      BICS     r1,r1,r4
        0x00002878:    4308        .C      ORRS     r0,r0,r1
        0x0000287a:    49ac        .I      LDR      r1,[pc,#688] ; [0x2b2c] = 0x200005c0
        0x0000287c:    6208        .b      STR      r0,[r1,#0x20]
        0x0000287e:    48ad        .H      LDR      r0,[pc,#692] ; [0x2b34] = 0x422188
        0x00002880:    6248        Hb      STR      r0,[r1,#0x24]
        0x00002882:    48ad        .H      LDR      r0,[pc,#692] ; [0x2b38] = 0x88040031
        0x00002884:    3040        @0      ADDS     r0,r0,#0x40
        0x00002886:    6288        .b      STR      r0,[r1,#0x28]
        0x00002888:    48ba        .H      LDR      r0,[pc,#744] ; [0x2b74] = 0x100c4081
        0x0000288a:    62c8        .b      STR      r0,[r1,#0x2c]
        0x0000288c:    48ba        .H      LDR      r0,[pc,#744] ; [0x2b78] = 0x188102
        0x0000288e:    6308        .c      STR      r0,[r1,#0x30]
        0x00002890:    48ba        .H      LDR      r0,[pc,#744] ; [0x2b7c] = 0x17fc844
        0x00002892:    6348        Hc      STR      r0,[r1,#0x34]
        0x00002894:    48ba        .H      LDR      r0,[pc,#744] ; [0x2b80] = 0x70010001
        0x00002896:    6388        .c      STR      r0,[r1,#0x38]
        0x00002898:    4608        .F      MOV      r0,r1
        0x0000289a:    6bc0        .k      LDR      r0,[r0,#0x3c]
        0x0000289c:    49b9        .I      LDR      r1,[pc,#740] ; [0x2b84] = 0xffe00800
        0x0000289e:    43a9        .C      BICS     r1,r1,r5
        0x000028a0:    4308        .C      ORRS     r0,r0,r1
        0x000028a2:    49a2        .I      LDR      r1,[pc,#648] ; [0x2b2c] = 0x200005c0
        0x000028a4:    63c8        .c      STR      r0,[r1,#0x3c]
        0x000028a6:    2000        .       MOVS     r0,#0
        0x000028a8:    f7fffa84    ....    BL       set_asc_bit ; 0x1db4
        0x000028ac:    2001        .       MOVS     r0,#1
        0x000028ae:    f7fffa81    ....    BL       set_asc_bit ; 0x1db4
        0x000028b2:    200d        .       MOVS     r0,#0xd
        0x000028b4:    f7fffd93    ....    BL       set_zcc_demod_threshold ; 0x23de
        0x000028b8:    2026        &       MOVS     r0,#0x26
        0x000028ba:    f7fffda7    ....    BL       set_IF_ZCC_clkdiv ; 0x240c
        0x000028be:    2050        P       MOVS     r0,#0x50
        0x000028c0:    f7fffdbb    ....    BL       set_IF_ZCC_early ; 0x243a
        0x000028c4:    20ee        .       MOVS     r0,#0xee
        0x000028c6:    f7fffa75    ..u.    BL       set_asc_bit ; 0x1db4
        0x000028ca:    20ef        .       MOVS     r0,#0xef
        0x000028cc:    f7fffa72    ..r.    BL       set_asc_bit ; 0x1db4
        0x000028d0:    20ff        .       MOVS     r0,#0xff
        0x000028d2:    300e        .0      ADDS     r0,r0,#0xe
        0x000028d4:    f7fffa5e    ..^.    BL       clear_asc_bit ; 0x1d94
        0x000028d8:    20ff        .       MOVS     r0,#0xff
        0x000028da:    300f        .0      ADDS     r0,r0,#0xf
        0x000028dc:    f7fffa5a    ..Z.    BL       clear_asc_bit ; 0x1d94
        0x000028e0:    2084        .       MOVS     r0,#0x84
        0x000028e2:    f7fffa67    ..g.    BL       set_asc_bit ; 0x1db4
        0x000028e6:    2605        .&      MOVS     r6,#5
        0x000028e8:    489d        .H      LDR      r0,[pc,#628] ; [0x2b60] = 0x52240000
        0x000028ea:    6006        .`      STR      r6,[r0,#0]
        0x000028ec:    210a        .!      MOVS     r1,#0xa
        0x000028ee:    2000        .       MOVS     r0,#0
        0x000028f0:    f7fffe95    ....    BL       set_IF_comparator_trim_I ; 0x261e
        0x000028f4:    2000        .       MOVS     r0,#0
        0x000028f6:    f7fffcc8    ....    BL       set_IF_LDO_voltage ; 0x228a
        0x000028fa:    20f0        .       MOVS     r0,#0xf0
        0x000028fc:    f7fffa5a    ..Z.    BL       set_asc_bit ; 0x1db4
        0x00002900:    2001        .       MOVS     r0,#1
        0x00002902:    0340        @.      LSLS     r0,r0,#13
        0x00002904:    49a0        .I      LDR      r1,[pc,#640] ; [0x2b88] = 0x52100000
        0x00002906:    6008        .`      STR      r0,[r1,#0]
        0x00002908:    02f0        ..      LSLS     r0,r6,#11
        0x0000290a:    6008        .`      STR      r0,[r1,#0]
        0x0000290c:    bd70        p.      POP      {r4-r6,pc}
    set_LO_supply
        0x0000290e:    b510        ..      PUSH     {r4,lr}
        0x00002910:    460a        .F      MOV      r2,r1
        0x00002912:    237f        .#      MOVS     r3,#0x7f
        0x00002914:    4383        .C      BICS     r3,r3,r0
        0x00002916:    0159        Y.      LSLS     r1,r3,#5
        0x00002918:    4b84        .K      LDR      r3,[pc,#528] ; [0x2b2c] = 0x200005c0
        0x0000291a:    6f9b        .o      LDR      r3,[r3,#0x78]
        0x0000291c:    4c9b        .L      LDR      r4,[pc,#620] ; [0x2b8c] = 0xfffff017
        0x0000291e:    4023        #@      ANDS     r3,r3,r4
        0x00002920:    4c82        .L      LDR      r4,[pc,#520] ; [0x2b2c] = 0x200005c0
        0x00002922:    67a3        .g      STR      r3,[r4,#0x78]
        0x00002924:    4623        #F      MOV      r3,r4
        0x00002926:    6f9b        .o      LDR      r3,[r3,#0x78]
        0x00002928:    430b        .C      ORRS     r3,r3,r1
        0x0000292a:    67a3        .g      STR      r3,[r4,#0x78]
        0x0000292c:    bd10        ..      POP      {r4,pc}
    set_PA_supply
        0x0000292e:    227f        ."      MOVS     r2,#0x7f
        0x00002930:    4382        .C      BICS     r2,r2,r0
        0x00002932:    0351        Q.      LSLS     r1,r2,#13
        0x00002934:    4a7d        }J      LDR      r2,[pc,#500] ; [0x2b2c] = 0x200005c0
        0x00002936:    6f92        .o      LDR      r2,[r2,#0x78]
        0x00002938:    237f        .#      MOVS     r3,#0x7f
        0x0000293a:    035b        [.      LSLS     r3,r3,#13
        0x0000293c:    439a        .C      BICS     r2,r2,r3
        0x0000293e:    4b7b        {K      LDR      r3,[pc,#492] ; [0x2b2c] = 0x200005c0
        0x00002940:    679a        .g      STR      r2,[r3,#0x78]
        0x00002942:    461a        .F      MOV      r2,r3
        0x00002944:    6f92        .o      LDR      r2,[r2,#0x78]
        0x00002946:    430a        .C      ORRS     r2,r2,r1
        0x00002948:    679a        .g      STR      r2,[r3,#0x78]
        0x0000294a:    4770        pG      BX       lr
    set_LC_current
        0x0000294c:    b510        ..      PUSH     {r4,lr}
        0x0000294e:    23f0        .#      MOVS     r3,#0xf0
        0x00002950:    4003        .@      ANDS     r3,r3,r0
        0x00002952:    0919        ..      LSRS     r1,r3,#4
        0x00002954:    0702        ..      LSLS     r2,r0,#28
        0x00002956:    4b75        uK      LDR      r3,[pc,#468] ; [0x2b2c] = 0x200005c0
        0x00002958:    6f9b        .o      LDR      r3,[r3,#0x78]
        0x0000295a:    091b        ..      LSRS     r3,r3,#4
        0x0000295c:    011b        ..      LSLS     r3,r3,#4
        0x0000295e:    4c73        sL      LDR      r4,[pc,#460] ; [0x2b2c] = 0x200005c0
        0x00002960:    67a3        .g      STR      r3,[r4,#0x78]
        0x00002962:    4623        #F      MOV      r3,r4
        0x00002964:    6f9b        .o      LDR      r3,[r3,#0x78]
        0x00002966:    430b        .C      ORRS     r3,r3,r1
        0x00002968:    67a3        .g      STR      r3,[r4,#0x78]
        0x0000296a:    4623        #F      MOV      r3,r4
        0x0000296c:    6fdb        .o      LDR      r3,[r3,#0x7c]
        0x0000296e:    011b        ..      LSLS     r3,r3,#4
        0x00002970:    091b        ..      LSRS     r3,r3,#4
        0x00002972:    67e3        .g      STR      r3,[r4,#0x7c]
        0x00002974:    4623        #F      MOV      r3,r4
        0x00002976:    6fdb        .o      LDR      r3,[r3,#0x7c]
        0x00002978:    4313        .C      ORRS     r3,r3,r2
        0x0000297a:    67e3        .g      STR      r3,[r4,#0x7c]
        0x0000297c:    bd10        ..      POP      {r4,pc}
    radio_init_tx
        0x0000297e:    b500        ..      PUSH     {lr}
        0x00002980:    207d        }       MOVS     r0,#0x7d
        0x00002982:    00c0        ..      LSLS     r0,r0,#3
        0x00002984:    f7fffa16    ....    BL       set_asc_bit ; 0x1db4
        0x00002988:    4881        .H      LDR      r0,[pc,#516] ; [0x2b90] = 0x3e9
        0x0000298a:    f7fffa13    ....    BL       set_asc_bit ; 0x1db4
        0x0000298e:    4880        .H      LDR      r0,[pc,#512] ; [0x2b90] = 0x3e9
        0x00002990:    1c40        @.      ADDS     r0,r0,#1
        0x00002992:    f7fffa0f    ....    BL       set_asc_bit ; 0x1db4
        0x00002996:    487e        ~H      LDR      r0,[pc,#504] ; [0x2b90] = 0x3e9
        0x00002998:    1c80        ..      ADDS     r0,r0,#2
        0x0000299a:    f7fffa0b    ....    BL       set_asc_bit ; 0x1db4
        0x0000299e:    2080        .       MOVS     r0,#0x80
        0x000029a0:    497c        |I      LDR      r1,[pc,#496] ; [0x2b94] = 0x522c0000
        0x000029a2:    6008        .`      STR      r0,[r1,#0]
        0x000029a4:    207f        .       MOVS     r0,#0x7f
        0x000029a6:    f7ffffd1    ....    BL       set_LC_current ; 0x294c
        0x000029aa:    203f        ?       MOVS     r0,#0x3f
        0x000029ac:    f7ffffbf    ....    BL       set_PA_supply ; 0x292e
        0x000029b0:    2100        .!      MOVS     r1,#0
        0x000029b2:    207f        .       MOVS     r0,#0x7f
        0x000029b4:    f7ffffab    ....    BL       set_LO_supply ; 0x290e
        0x000029b8:    bd00        ..      POP      {pc}
    divProgram
        0x000029ba:    b570        p.      PUSH     {r4-r6,lr}
        0x000029bc:    4603        .F      MOV      r3,r0
        0x000029be:    2400        .$      MOVS     r4,#0
        0x000029c0:    2000        .       MOVS     r0,#0
        0x000029c2:    2503        .%      MOVS     r5,#3
        0x000029c4:    02ad        ..      LSLS     r5,r5,#10
        0x000029c6:    401d        .@      ANDS     r5,r5,r3
        0x000029c8:    012c        ,.      LSLS     r4,r5,#4
        0x000029ca:    250f        .%      MOVS     r5,#0xf
        0x000029cc:    032d        -.      LSLS     r5,r5,#12
        0x000029ce:    401d        .@      ANDS     r5,r5,r3
        0x000029d0:    0b2d        -.      LSRS     r5,r5,#12
        0x000029d2:    4328        (C      ORRS     r0,r0,r5
        0x000029d4:    253f        ?%      MOVS     r5,#0x3f
        0x000029d6:    012d        -.      LSLS     r5,r5,#4
        0x000029d8:    401d        .@      ANDS     r5,r5,r3
        0x000029da:    4328        (C      ORRS     r0,r0,r5
        0x000029dc:    0295        ..      LSLS     r5,r2,#10
        0x000029de:    4328        (C      ORRS     r0,r0,r5
        0x000029e0:    02cd        ..      LSLS     r5,r1,#11
        0x000029e2:    4328        (C      ORRS     r0,r0,r5
        0x000029e4:    071d        ..      LSLS     r5,r3,#28
        0x000029e6:    0c2d        -.      LSRS     r5,r5,#16
        0x000029e8:    4328        (C      ORRS     r0,r0,r5
        0x000029ea:    43e5        .C      MVNS     r5,r4
        0x000029ec:    4e6a        jN      LDR      r6,[pc,#424] ; [0x2b98] = 0x52140000
        0x000029ee:    6035        5`      STR      r5,[r6,#0]
        0x000029f0:    43c5        .C      MVNS     r5,r0
        0x000029f2:    4e6a        jN      LDR      r6,[pc,#424] ; [0x2b9c] = 0x52180000
        0x000029f4:    6035        5`      STR      r5,[r6,#0]
        0x000029f6:    bd70        p.      POP      {r4-r6,pc}
    prescaler
        0x000029f8:    2800        .(      CMP      r0,#0
        0x000029fa:    d124        $.      BNE      0x2a46 ; prescaler + 78
        0x000029fc:    494b        KI      LDR      r1,[pc,#300] ; [0x2b2c] = 0x200005c0
        0x000029fe:    6fc9        .o      LDR      r1,[r1,#0x7c]
        0x00002a00:    2204        ."      MOVS     r2,#4
        0x00002a02:    4311        .C      ORRS     r1,r1,r2
        0x00002a04:    4a49        IJ      LDR      r2,[pc,#292] ; [0x2b2c] = 0x200005c0
        0x00002a06:    67d1        .g      STR      r1,[r2,#0x7c]
        0x00002a08:    4611        .F      MOV      r1,r2
        0x00002a0a:    6fc9        .o      LDR      r1,[r1,#0x7c]
        0x00002a0c:    2202        ."      MOVS     r2,#2
        0x00002a0e:    4391        .C      BICS     r1,r1,r2
        0x00002a10:    4a46        FJ      LDR      r2,[pc,#280] ; [0x2b2c] = 0x200005c0
        0x00002a12:    67d1        .g      STR      r1,[r2,#0x7c]
        0x00002a14:    4611        .F      MOV      r1,r2
        0x00002a16:    3180        .1      ADDS     r1,r1,#0x80
        0x00002a18:    6809        .h      LDR      r1,[r1,#0]
        0x00002a1a:    2201        ."      MOVS     r2,#1
        0x00002a1c:    07d2        ..      LSLS     r2,r2,#31
        0x00002a1e:    4311        .C      ORRS     r1,r1,r2
        0x00002a20:    4a42        BJ      LDR      r2,[pc,#264] ; [0x2b2c] = 0x200005c0
        0x00002a22:    3280        .2      ADDS     r2,r2,#0x80
        0x00002a24:    6011        .`      STR      r1,[r2,#0]
        0x00002a26:    4941        AI      LDR      r1,[pc,#260] ; [0x2b2c] = 0x200005c0
        0x00002a28:    6fc9        .o      LDR      r1,[r1,#0x7c]
        0x00002a2a:    0849        I.      LSRS     r1,r1,#1
        0x00002a2c:    0049        I.      LSLS     r1,r1,#1
        0x00002a2e:    3a80        .:      SUBS     r2,r2,#0x80
        0x00002a30:    67d1        .g      STR      r1,[r2,#0x7c]
        0x00002a32:    4611        .F      MOV      r1,r2
        0x00002a34:    3180        .1      ADDS     r1,r1,#0x80
        0x00002a36:    6809        .h      LDR      r1,[r1,#0]
        0x00002a38:    2207        ."      MOVS     r2,#7
        0x00002a3a:    0712        ..      LSLS     r2,r2,#28
        0x00002a3c:    4311        .C      ORRS     r1,r1,r2
        0x00002a3e:    4a3b        ;J      LDR      r2,[pc,#236] ; [0x2b2c] = 0x200005c0
        0x00002a40:    3280        .2      ADDS     r2,r2,#0x80
        0x00002a42:    6011        .`      STR      r1,[r2,#0]
        0x00002a44:    e0f6        ..      B        0x2c34 ; prescaler + 572
        0x00002a46:    2801        .(      CMP      r0,#1
        0x00002a48:    d122        ".      BNE      0x2a90 ; prescaler + 152
        0x00002a4a:    4938        8I      LDR      r1,[pc,#224] ; [0x2b2c] = 0x200005c0
        0x00002a4c:    6fc9        .o      LDR      r1,[r1,#0x7c]
        0x00002a4e:    2202        ."      MOVS     r2,#2
        0x00002a50:    4311        .C      ORRS     r1,r1,r2
        0x00002a52:    4a36        6J      LDR      r2,[pc,#216] ; [0x2b2c] = 0x200005c0
        0x00002a54:    67d1        .g      STR      r1,[r2,#0x7c]
        0x00002a56:    4611        .F      MOV      r1,r2
        0x00002a58:    6fc9        .o      LDR      r1,[r1,#0x7c]
        0x00002a5a:    2204        ."      MOVS     r2,#4
        0x00002a5c:    4391        .C      BICS     r1,r1,r2
        0x00002a5e:    4a33        3J      LDR      r2,[pc,#204] ; [0x2b2c] = 0x200005c0
        0x00002a60:    67d1        .g      STR      r1,[r2,#0x7c]
        0x00002a62:    4611        .F      MOV      r1,r2
        0x00002a64:    3180        .1      ADDS     r1,r1,#0x80
        0x00002a66:    6809        .h      LDR      r1,[r1,#0]
        0x00002a68:    07c2        ..      LSLS     r2,r0,#31
        0x00002a6a:    4311        .C      ORRS     r1,r1,r2
        0x00002a6c:    4a2f        /J      LDR      r2,[pc,#188] ; [0x2b2c] = 0x200005c0
        0x00002a6e:    3280        .2      ADDS     r2,r2,#0x80
        0x00002a70:    6011        .`      STR      r1,[r2,#0]
        0x00002a72:    492e        .I      LDR      r1,[pc,#184] ; [0x2b2c] = 0x200005c0
        0x00002a74:    6fc9        .o      LDR      r1,[r1,#0x7c]
        0x00002a76:    4381        .C      BICS     r1,r1,r0
        0x00002a78:    3a80        .:      SUBS     r2,r2,#0x80
        0x00002a7a:    67d1        .g      STR      r1,[r2,#0x7c]
        0x00002a7c:    4611        .F      MOV      r1,r2
        0x00002a7e:    3180        .1      ADDS     r1,r1,#0x80
        0x00002a80:    6809        .h      LDR      r1,[r1,#0]
        0x00002a82:    2207        ."      MOVS     r2,#7
        0x00002a84:    0712        ..      LSLS     r2,r2,#28
        0x00002a86:    4311        .C      ORRS     r1,r1,r2
        0x00002a88:    4a28        (J      LDR      r2,[pc,#160] ; [0x2b2c] = 0x200005c0
        0x00002a8a:    3280        .2      ADDS     r2,r2,#0x80
        0x00002a8c:    6011        .`      STR      r1,[r2,#0]
        0x00002a8e:    e0d1        ..      B        0x2c34 ; prescaler + 572
        0x00002a90:    2802        .(      CMP      r0,#2
        0x00002a92:    d123        #.      BNE      0x2adc ; prescaler + 228
        0x00002a94:    4925        %I      LDR      r1,[pc,#148] ; [0x2b2c] = 0x200005c0
        0x00002a96:    6fc9        .o      LDR      r1,[r1,#0x7c]
        0x00002a98:    2204        ."      MOVS     r2,#4
        0x00002a9a:    4311        .C      ORRS     r1,r1,r2
        0x00002a9c:    4a23        #J      LDR      r2,[pc,#140] ; [0x2b2c] = 0x200005c0
        0x00002a9e:    67d1        .g      STR      r1,[r2,#0x7c]
        0x00002aa0:    4611        .F      MOV      r1,r2
        0x00002aa2:    6fc9        .o      LDR      r1,[r1,#0x7c]
        0x00002aa4:    2202        ."      MOVS     r2,#2
        0x00002aa6:    4391        .C      BICS     r1,r1,r2
        0x00002aa8:    4a20         J      LDR      r2,[pc,#128] ; [0x2b2c] = 0x200005c0
        0x00002aaa:    67d1        .g      STR      r1,[r2,#0x7c]
        0x00002aac:    4611        .F      MOV      r1,r2
        0x00002aae:    3180        .1      ADDS     r1,r1,#0x80
        0x00002ab0:    6809        .h      LDR      r1,[r1,#0]
        0x00002ab2:    004a        J.      LSLS     r2,r1,#1
        0x00002ab4:    0852        R.      LSRS     r2,r2,#1
        0x00002ab6:    491d        .I      LDR      r1,[pc,#116] ; [0x2b2c] = 0x200005c0
        0x00002ab8:    3180        .1      ADDS     r1,r1,#0x80
        0x00002aba:    600a        .`      STR      r2,[r1,#0]
        0x00002abc:    3980        .9      SUBS     r1,r1,#0x80
        0x00002abe:    6fc9        .o      LDR      r1,[r1,#0x7c]
        0x00002ac0:    2201        ."      MOVS     r2,#1
        0x00002ac2:    4311        .C      ORRS     r1,r1,r2
        0x00002ac4:    4a19        .J      LDR      r2,[pc,#100] ; [0x2b2c] = 0x200005c0
        0x00002ac6:    67d1        .g      STR      r1,[r2,#0x7c]
        0x00002ac8:    4611        .F      MOV      r1,r2
        0x00002aca:    3180        .1      ADDS     r1,r1,#0x80
        0x00002acc:    6809        .h      LDR      r1,[r1,#0]
        0x00002ace:    2207        ."      MOVS     r2,#7
        0x00002ad0:    0712        ..      LSLS     r2,r2,#28
        0x00002ad2:    4311        .C      ORRS     r1,r1,r2
        0x00002ad4:    4a15        .J      LDR      r2,[pc,#84] ; [0x2b2c] = 0x200005c0
        0x00002ad6:    3280        .2      ADDS     r2,r2,#0x80
        0x00002ad8:    6011        .`      STR      r1,[r2,#0]
        0x00002ada:    e0ab        ..      B        0x2c34 ; prescaler + 572
        0x00002adc:    2803        .(      CMP      r0,#3
        0x00002ade:    d15f        _.      BNE      0x2ba0 ; prescaler + 424
        0x00002ae0:    4912        .I      LDR      r1,[pc,#72] ; [0x2b2c] = 0x200005c0
        0x00002ae2:    6fc9        .o      LDR      r1,[r1,#0x7c]
        0x00002ae4:    2204        ."      MOVS     r2,#4
        0x00002ae6:    4311        .C      ORRS     r1,r1,r2
        0x00002ae8:    4a10        .J      LDR      r2,[pc,#64] ; [0x2b2c] = 0x200005c0
        0x00002aea:    67d1        .g      STR      r1,[r2,#0x7c]
        0x00002aec:    4611        .F      MOV      r1,r2
        0x00002aee:    6fc9        .o      LDR      r1,[r1,#0x7c]
        0x00002af0:    2202        ."      MOVS     r2,#2
        0x00002af2:    4391        .C      BICS     r1,r1,r2
        0x00002af4:    4a0d        .J      LDR      r2,[pc,#52] ; [0x2b2c] = 0x200005c0
        0x00002af6:    67d1        .g      STR      r1,[r2,#0x7c]
        0x00002af8:    4611        .F      MOV      r1,r2
        0x00002afa:    3180        .1      ADDS     r1,r1,#0x80
        0x00002afc:    6809        .h      LDR      r1,[r1,#0]
        0x00002afe:    07c2        ..      LSLS     r2,r0,#31
        0x00002b00:    4311        .C      ORRS     r1,r1,r2
        0x00002b02:    4a0a        .J      LDR      r2,[pc,#40] ; [0x2b2c] = 0x200005c0
        0x00002b04:    3280        .2      ADDS     r2,r2,#0x80
        0x00002b06:    6011        .`      STR      r1,[r2,#0]
        0x00002b08:    4908        .I      LDR      r1,[pc,#32] ; [0x2b2c] = 0x200005c0
        0x00002b0a:    6fc9        .o      LDR      r1,[r1,#0x7c]
        0x00002b0c:    0849        I.      LSRS     r1,r1,#1
        0x00002b0e:    0049        I.      LSLS     r1,r1,#1
        0x00002b10:    3a80        .:      SUBS     r2,r2,#0x80
        0x00002b12:    67d1        .g      STR      r1,[r2,#0x7c]
        0x00002b14:    4611        .F      MOV      r1,r2
        0x00002b16:    3180        .1      ADDS     r1,r1,#0x80
        0x00002b18:    6809        .h      LDR      r1,[r1,#0]
        0x00002b1a:    2201        ."      MOVS     r2,#1
        0x00002b1c:    0792        ..      LSLS     r2,r2,#30
        0x00002b1e:    4391        .C      BICS     r1,r1,r2
        0x00002b20:    4a02        .J      LDR      r2,[pc,#8] ; [0x2b2c] = 0x200005c0
        0x00002b22:    3280        .2      ADDS     r2,r2,#0x80
        0x00002b24:    6011        .`      STR      r1,[r2,#0]
        0x00002b26:    e085        ..      B        0x2c34 ; prescaler + 572
    $d
        0x00002b28:    fffc0000    ....    DCD    4294705152
        0x00002b2c:    200005c0    ...     DCD    536872384
        0x00002b30:    4050ffe0    ..P@    DCD    1079050208
        0x00002b34:    00422188    .!B.    DCD    4333960
        0x00002b38:    88040031    1...    DCD    2281963569
        0x00002b3c:    113b4081    .@;.    DCD    289095809
        0x00002b40:    027e8102    ..~.    DCD    41844994
        0x00002b44:    03ed4844    DH..    DCD    65882180
        0x00002b48:    60010000    ...`    DCD    1610678272
        0x00002b4c:    ffe02e03    ....    DCD    4292881923
        0x00002b50:    52380000    ..8R    DCD    1379401728
        0x00002b54:    0000a00f    ....    DCD    40975
        0x00002b58:    523c0000    ..<R    DCD    1379663872
        0x00002b5c:    520c0000    ...R    DCD    1376518144
        0x00002b60:    52240000    ..$R    DCD    1378091008
        0x00002b64:    000002e9    ....    DCD    745
        0x00002b68:    52400000    ..@R    DCD    1379926016
        0x00002b6c:    fffe0000    ....    DCD    4294836224
        0x00002b70:    0000fff0    ....    DCD    65520
        0x00002b74:    100c4081    .@..    DCD    269238401
        0x00002b78:    00188102    ....    DCD    1605890
        0x00002b7c:    017fc844    D...    DCD    25151556
        0x00002b80:    70010001    ...p    DCD    1879113729
        0x00002b84:    ffe00800    ....    DCD    4292872192
        0x00002b88:    52100000    ...R    DCD    1376780288
        0x00002b8c:    fffff017    ....    DCD    4294963223
        0x00002b90:    000003e9    ....    DCD    1001
        0x00002b94:    522c0000    ..,R    DCD    1378615296
        0x00002b98:    52140000    ...R    DCD    1377042432
        0x00002b9c:    52180000    ...R    DCD    1377304576
    $t
        0x00002ba0:    2804        .(      CMP      r0,#4
        0x00002ba2:    d122        ".      BNE      0x2bea ; prescaler + 498
        0x00002ba4:    49fb        .I      LDR      r1,[pc,#1004] ; [0x2f94] = 0x200005c0
        0x00002ba6:    6fc9        .o      LDR      r1,[r1,#0x7c]
        0x00002ba8:    2204        ."      MOVS     r2,#4
        0x00002baa:    4311        .C      ORRS     r1,r1,r2
        0x00002bac:    4af9        .J      LDR      r2,[pc,#996] ; [0x2f94] = 0x200005c0
        0x00002bae:    67d1        .g      STR      r1,[r2,#0x7c]
        0x00002bb0:    4611        .F      MOV      r1,r2
        0x00002bb2:    6fc9        .o      LDR      r1,[r1,#0x7c]
        0x00002bb4:    2202        ."      MOVS     r2,#2
        0x00002bb6:    4391        .C      BICS     r1,r1,r2
        0x00002bb8:    4af6        .J      LDR      r2,[pc,#984] ; [0x2f94] = 0x200005c0
        0x00002bba:    67d1        .g      STR      r1,[r2,#0x7c]
        0x00002bbc:    4611        .F      MOV      r1,r2
        0x00002bbe:    3180        .1      ADDS     r1,r1,#0x80
        0x00002bc0:    6809        .h      LDR      r1,[r1,#0]
        0x00002bc2:    0742        B.      LSLS     r2,r0,#29
        0x00002bc4:    4311        .C      ORRS     r1,r1,r2
        0x00002bc6:    4af3        .J      LDR      r2,[pc,#972] ; [0x2f94] = 0x200005c0
        0x00002bc8:    3280        .2      ADDS     r2,r2,#0x80
        0x00002bca:    6011        .`      STR      r1,[r2,#0]
        0x00002bcc:    49f1        .I      LDR      r1,[pc,#964] ; [0x2f94] = 0x200005c0
        0x00002bce:    6fc9        .o      LDR      r1,[r1,#0x7c]
        0x00002bd0:    0849        I.      LSRS     r1,r1,#1
        0x00002bd2:    0049        I.      LSLS     r1,r1,#1
        0x00002bd4:    3a80        .:      SUBS     r2,r2,#0x80
        0x00002bd6:    67d1        .g      STR      r1,[r2,#0x7c]
        0x00002bd8:    4611        .F      MOV      r1,r2
        0x00002bda:    3180        .1      ADDS     r1,r1,#0x80
        0x00002bdc:    6809        .h      LDR      r1,[r1,#0]
        0x00002bde:    06c2        ..      LSLS     r2,r0,#27
        0x00002be0:    4391        .C      BICS     r1,r1,r2
        0x00002be2:    4aec        .J      LDR      r2,[pc,#944] ; [0x2f94] = 0x200005c0
        0x00002be4:    3280        .2      ADDS     r2,r2,#0x80
        0x00002be6:    6011        .`      STR      r1,[r2,#0]
        0x00002be8:    e024        $.      B        0x2c34 ; prescaler + 572
        0x00002bea:    2805        .(      CMP      r0,#5
        0x00002bec:    d122        ".      BNE      0x2c34 ; prescaler + 572
        0x00002bee:    49e9        .I      LDR      r1,[pc,#932] ; [0x2f94] = 0x200005c0
        0x00002bf0:    6fc9        .o      LDR      r1,[r1,#0x7c]
        0x00002bf2:    2204        ."      MOVS     r2,#4
        0x00002bf4:    4311        .C      ORRS     r1,r1,r2
        0x00002bf6:    4ae7        .J      LDR      r2,[pc,#924] ; [0x2f94] = 0x200005c0
        0x00002bf8:    67d1        .g      STR      r1,[r2,#0x7c]
        0x00002bfa:    4611        .F      MOV      r1,r2
        0x00002bfc:    6fc9        .o      LDR      r1,[r1,#0x7c]
        0x00002bfe:    2202        ."      MOVS     r2,#2
        0x00002c00:    4391        .C      BICS     r1,r1,r2
        0x00002c02:    4ae4        .J      LDR      r2,[pc,#912] ; [0x2f94] = 0x200005c0
        0x00002c04:    67d1        .g      STR      r1,[r2,#0x7c]
        0x00002c06:    4611        .F      MOV      r1,r2
        0x00002c08:    3180        .1      ADDS     r1,r1,#0x80
        0x00002c0a:    6809        .h      LDR      r1,[r1,#0]
        0x00002c0c:    07c2        ..      LSLS     r2,r0,#31
        0x00002c0e:    4311        .C      ORRS     r1,r1,r2
        0x00002c10:    4ae0        .J      LDR      r2,[pc,#896] ; [0x2f94] = 0x200005c0
        0x00002c12:    3280        .2      ADDS     r2,r2,#0x80
        0x00002c14:    6011        .`      STR      r1,[r2,#0]
        0x00002c16:    49df        .I      LDR      r1,[pc,#892] ; [0x2f94] = 0x200005c0
        0x00002c18:    6fc9        .o      LDR      r1,[r1,#0x7c]
        0x00002c1a:    0849        I.      LSRS     r1,r1,#1
        0x00002c1c:    0049        I.      LSLS     r1,r1,#1
        0x00002c1e:    3a80        .:      SUBS     r2,r2,#0x80
        0x00002c20:    67d1        .g      STR      r1,[r2,#0x7c]
        0x00002c22:    4611        .F      MOV      r1,r2
        0x00002c24:    3180        .1      ADDS     r1,r1,#0x80
        0x00002c26:    6809        .h      LDR      r1,[r1,#0]
        0x00002c28:    2203        ."      MOVS     r2,#3
        0x00002c2a:    0752        R.      LSLS     r2,r2,#29
        0x00002c2c:    4391        .C      BICS     r1,r1,r2
        0x00002c2e:    4ad9        .J      LDR      r2,[pc,#868] ; [0x2f94] = 0x200005c0
        0x00002c30:    3280        .2      ADDS     r2,r2,#0x80
        0x00002c32:    6011        .`      STR      r1,[r2,#0]
        0x00002c34:    4770        pG      BX       lr
    set_DIV_supply
        0x00002c36:    b510        ..      PUSH     {r4,lr}
        0x00002c38:    460a        .F      MOV      r2,r1
        0x00002c3a:    237f        .#      MOVS     r3,#0x7f
        0x00002c3c:    4383        .C      BICS     r3,r3,r0
        0x00002c3e:    0159        Y.      LSLS     r1,r3,#5
        0x00002c40:    4bd4        .K      LDR      r3,[pc,#848] ; [0x2f94] = 0x200005c0
        0x00002c42:    6f9b        .o      LDR      r3,[r3,#0x78]
        0x00002c44:    247f        .$      MOVS     r4,#0x7f
        0x00002c46:    0364        d.      LSLS     r4,r4,#13
        0x00002c48:    43a3        .C      BICS     r3,r3,r4
        0x00002c4a:    4cd2        .L      LDR      r4,[pc,#840] ; [0x2f94] = 0x200005c0
        0x00002c4c:    67a3        .g      STR      r3,[r4,#0x78]
        0x00002c4e:    4623        #F      MOV      r3,r4
        0x00002c50:    6f9b        .o      LDR      r3,[r3,#0x78]
        0x00002c52:    430b        .C      ORRS     r3,r3,r1
        0x00002c54:    67a3        .g      STR      r3,[r4,#0x78]
        0x00002c56:    bd10        ..      POP      {r4,pc}
    radio_init_divider
        0x00002c58:    b510        ..      PUSH     {r4,lr}
        0x00002c5a:    4604        .F      MOV      r4,r0
        0x00002c5c:    2100        .!      MOVS     r1,#0
        0x00002c5e:    203f        ?       MOVS     r0,#0x3f
        0x00002c60:    f7ffffe9    ....    BL       set_DIV_supply ; 0x2c36
        0x00002c64:    2004        .       MOVS     r0,#4
        0x00002c66:    f7fffec7    ....    BL       prescaler ; 0x29f8
        0x00002c6a:    2201        ."      MOVS     r2,#1
        0x00002c6c:    4611        .F      MOV      r1,r2
        0x00002c6e:    20ff        .       MOVS     r0,#0xff
        0x00002c70:    30e1        .0      ADDS     r0,r0,#0xe1
        0x00002c72:    f7fffea2    ....    BL       divProgram ; 0x29ba
        0x00002c76:    20fd        .       MOVS     r0,#0xfd
        0x00002c78:    0080        ..      LSLS     r0,r0,#2
        0x00002c7a:    f7fff89b    ....    BL       set_asc_bit ; 0x1db4
        0x00002c7e:    bd10        ..      POP      {r4,pc}
    read_counters_3B
        0x00002c80:    b570        p.      PUSH     {r4-r6,lr}
        0x00002c82:    4603        .F      MOV      r3,r0
        0x00002c84:    460c        .F      MOV      r4,r1
        0x00002c86:    257f        .%      MOVS     r5,#0x7f
        0x00002c88:    2629        )&      MOVS     r6,#0x29
        0x00002c8a:    0676        v.      LSLS     r6,r6,#25
        0x00002c8c:    6035        5`      STR      r5,[r6,#0]
        0x00002c8e:    4dc2        .M      LDR      r5,[pc,#776] ; [0x2f98] = 0x52180000
        0x00002c90:    6828        (h      LDR      r0,[r5,#0]
        0x00002c92:    4dc2        .M      LDR      r5,[pc,#776] ; [0x2f9c] = 0x521c0000
        0x00002c94:    6829        )h      LDR      r1,[r5,#0]
        0x00002c96:    040d        ..      LSLS     r5,r1,#16
        0x00002c98:    182d        -.      ADDS     r5,r5,r0
        0x00002c9a:    601d        .`      STR      r5,[r3,#0]
        0x00002c9c:    4dc0        .M      LDR      r5,[pc,#768] ; [0x2fa0] = 0x52280000
        0x00002c9e:    6828        (h      LDR      r0,[r5,#0]
        0x00002ca0:    4dc0        .M      LDR      r5,[pc,#768] ; [0x2fa4] = 0x522c0000
        0x00002ca2:    6829        )h      LDR      r1,[r5,#0]
        0x00002ca4:    040d        ..      LSLS     r5,r1,#16
        0x00002ca6:    182d        -.      ADDS     r5,r5,r0
        0x00002ca8:    6025        %`      STR      r5,[r4,#0]
        0x00002caa:    4dbf        .M      LDR      r5,[pc,#764] ; [0x2fa8] = 0x52300000
        0x00002cac:    6828        (h      LDR      r0,[r5,#0]
        0x00002cae:    4dbf        .M      LDR      r5,[pc,#764] ; [0x2fac] = 0x52340000
        0x00002cb0:    6829        )h      LDR      r1,[r5,#0]
        0x00002cb2:    040d        ..      LSLS     r5,r1,#16
        0x00002cb4:    182d        -.      ADDS     r5,r5,r0
        0x00002cb6:    6015        .`      STR      r5,[r2,#0]
        0x00002cb8:    2500        .%      MOVS     r5,#0
        0x00002cba:    6035        5`      STR      r5,[r6,#0]
        0x00002cbc:    4dbc        .M      LDR      r5,[pc,#752] ; [0x2fb0] = 0x3fff
        0x00002cbe:    6035        5`      STR      r5,[r6,#0]
        0x00002cc0:    bd70        p.      POP      {r4-r6,pc}
    read_IF_estimate
        0x00002cc2:    48bc        .H      LDR      r0,[pc,#752] ; [0x2fb4] = 0x52400000
        0x00002cc4:    6800        .h      LDR      r0,[r0,#0]
        0x00002cc6:    2101        .!      MOVS     r1,#1
        0x00002cc8:    0289        ..      LSLS     r1,r1,#10
        0x00002cca:    4008        .@      ANDS     r0,r0,r1
        0x00002ccc:    2800        .(      CMP      r0,#0
        0x00002cce:    d004        ..      BEQ      0x2cda ; read_IF_estimate + 24
        0x00002cd0:    48b8        .H      LDR      r0,[pc,#736] ; [0x2fb4] = 0x52400000
        0x00002cd2:    8800        ..      LDRH     r0,[r0,#0]
        0x00002cd4:    0580        ..      LSLS     r0,r0,#22
        0x00002cd6:    0d80        ..      LSRS     r0,r0,#22
        0x00002cd8:    4770        pG      BX       lr
        0x00002cda:    2000        .       MOVS     r0,#0
        0x00002cdc:    e7fc        ..      B        0x2cd8 ; read_IF_estimate + 22
    read_LQI
        0x00002cde:    48b6        .H      LDR      r0,[pc,#728] ; [0x2fb8] = 0x52540000
        0x00002ce0:    7800        .x      LDRB     r0,[r0,#0]
        0x00002ce2:    4770        pG      BX       lr
    read_RSSI
        0x00002ce4:    48b5        .H      LDR      r0,[pc,#724] ; [0x2fbc] = 0x523c0000
        0x00002ce6:    7800        .x      LDRB     r0,[r0,#0]
        0x00002ce8:    0700        ..      LSLS     r0,r0,#28
        0x00002cea:    0f00        ..      LSRS     r0,r0,#28
        0x00002cec:    4770        pG      BX       lr
    set_IF_clock_frequency
        0x00002cee:    b5f0        ..      PUSH     {r4-r7,lr}
        0x00002cf0:    4605        .F      MOV      r5,r0
        0x00002cf2:    460e        .F      MOV      r6,r1
        0x00002cf4:    4617        .F      MOV      r7,r2
        0x00002cf6:    2400        .$      MOVS     r4,#0
        0x00002cf8:    e011        ..      B        0x2d1e ; set_IF_clock_frequency + 48
        0x00002cfa:    4628        (F      MOV      r0,r5
        0x00002cfc:    4120         A      ASRS     r0,r0,r4
        0x00002cfe:    07c0        ..      LSLS     r0,r0,#31
        0x00002d00:    0fc0        ..      LSRS     r0,r0,#31
        0x00002d02:    2800        .(      CMP      r0,#0
        0x00002d04:    d005        ..      BEQ      0x2d12 ; set_IF_clock_frequency + 36
        0x00002d06:    21ff        .!      MOVS     r1,#0xff
        0x00002d08:    31b0        .1      ADDS     r1,r1,#0xb0
        0x00002d0a:    1b08        ..      SUBS     r0,r1,r4
        0x00002d0c:    f7fff852    ..R.    BL       set_asc_bit ; 0x1db4
        0x00002d10:    e004        ..      B        0x2d1c ; set_IF_clock_frequency + 46
        0x00002d12:    21ff        .!      MOVS     r1,#0xff
        0x00002d14:    31b0        .1      ADDS     r1,r1,#0xb0
        0x00002d16:    1b08        ..      SUBS     r0,r1,r4
        0x00002d18:    f7fff83c    ..<.    BL       clear_asc_bit ; 0x1d94
        0x00002d1c:    1c64        d.      ADDS     r4,r4,#1
        0x00002d1e:    2c04        .,      CMP      r4,#4
        0x00002d20:    d9eb        ..      BLS      0x2cfa ; set_IF_clock_frequency + 12
        0x00002d22:    2400        .$      MOVS     r4,#0
        0x00002d24:    e011        ..      B        0x2d4a ; set_IF_clock_frequency + 92
        0x00002d26:    4630        0F      MOV      r0,r6
        0x00002d28:    4120         A      ASRS     r0,r0,r4
        0x00002d2a:    07c0        ..      LSLS     r0,r0,#31
        0x00002d2c:    0fc0        ..      LSRS     r0,r0,#31
        0x00002d2e:    2800        .(      CMP      r0,#0
        0x00002d30:    d005        ..      BEQ      0x2d3e ; set_IF_clock_frequency + 80
        0x00002d32:    21ff        .!      MOVS     r1,#0xff
        0x00002d34:    31b6        .1      ADDS     r1,r1,#0xb6
        0x00002d36:    1b08        ..      SUBS     r0,r1,r4
        0x00002d38:    f7fff83c    ..<.    BL       set_asc_bit ; 0x1db4
        0x00002d3c:    e004        ..      B        0x2d48 ; set_IF_clock_frequency + 90
        0x00002d3e:    21ff        .!      MOVS     r1,#0xff
        0x00002d40:    31b6        .1      ADDS     r1,r1,#0xb6
        0x00002d42:    1b08        ..      SUBS     r0,r1,r4
        0x00002d44:    f7fff826    ..&.    BL       clear_asc_bit ; 0x1d94
        0x00002d48:    1c64        d.      ADDS     r4,r4,#1
        0x00002d4a:    2c04        .,      CMP      r4,#4
        0x00002d4c:    d9eb        ..      BLS      0x2d26 ; set_IF_clock_frequency + 56
        0x00002d4e:    2f01        ./      CMP      r7,#1
        0x00002d50:    d103        ..      BNE      0x2d5a ; set_IF_clock_frequency + 108
        0x00002d52:    489b        .H      LDR      r0,[pc,#620] ; [0x2fc0] = 0x2d6
        0x00002d54:    f7fff82e    ....    BL       set_asc_bit ; 0x1db4
        0x00002d58:    e002        ..      B        0x2d60 ; set_IF_clock_frequency + 114
        0x00002d5a:    4899        .H      LDR      r0,[pc,#612] ; [0x2fc0] = 0x2d6
        0x00002d5c:    f7fff81a    ....    BL       clear_asc_bit ; 0x1d94
        0x00002d60:    bdf0        ..      POP      {r4-r7,pc}
    set_sys_clk_secondary_freq
        0x00002d62:    b570        p.      PUSH     {r4-r6,lr}
        0x00002d64:    4605        .F      MOV      r5,r0
        0x00002d66:    460e        .F      MOV      r6,r1
        0x00002d68:    2400        .$      MOVS     r4,#0
        0x00002d6a:    e011        ..      B        0x2d90 ; set_sys_clk_secondary_freq + 46
        0x00002d6c:    4630        0F      MOV      r0,r6
        0x00002d6e:    40e0        .@      LSRS     r0,r0,r4
        0x00002d70:    07c0        ..      LSLS     r0,r0,#31
        0x00002d72:    0fc0        ..      LSRS     r0,r0,#31
        0x00002d74:    2800        .(      CMP      r0,#0
        0x00002d76:    d005        ..      BEQ      0x2d84 ; set_sys_clk_secondary_freq + 34
        0x00002d78:    4991        .I      LDR      r1,[pc,#580] ; [0x2fc0] = 0x2d6
        0x00002d7a:    3190        .1      ADDS     r1,r1,#0x90
        0x00002d7c:    1860        `.      ADDS     r0,r4,r1
        0x00002d7e:    f7fff819    ....    BL       set_asc_bit ; 0x1db4
        0x00002d82:    e004        ..      B        0x2d8e ; set_sys_clk_secondary_freq + 44
        0x00002d84:    498e        .I      LDR      r1,[pc,#568] ; [0x2fc0] = 0x2d6
        0x00002d86:    3190        .1      ADDS     r1,r1,#0x90
        0x00002d88:    1860        `.      ADDS     r0,r4,r1
        0x00002d8a:    f7fff803    ....    BL       clear_asc_bit ; 0x1d94
        0x00002d8e:    1c64        d.      ADDS     r4,r4,#1
        0x00002d90:    2c03        .,      CMP      r4,#3
        0x00002d92:    ddeb        ..      BLE      0x2d6c ; set_sys_clk_secondary_freq + 10
        0x00002d94:    06f0        ..      LSLS     r0,r6,#27
        0x00002d96:    0fc0        ..      LSRS     r0,r0,#31
        0x00002d98:    2800        .(      CMP      r0,#0
        0x00002d9a:    d004        ..      BEQ      0x2da6 ; set_sys_clk_secondary_freq + 68
        0x00002d9c:    4888        .H      LDR      r0,[pc,#544] ; [0x2fc0] = 0x2d6
        0x00002d9e:    3094        .0      ADDS     r0,r0,#0x94
        0x00002da0:    f7fefff8    ....    BL       clear_asc_bit ; 0x1d94
        0x00002da4:    e003        ..      B        0x2dae ; set_sys_clk_secondary_freq + 76
        0x00002da6:    4886        .H      LDR      r0,[pc,#536] ; [0x2fc0] = 0x2d6
        0x00002da8:    3094        .0      ADDS     r0,r0,#0x94
        0x00002daa:    f7fff803    ....    BL       set_asc_bit ; 0x1db4
        0x00002dae:    2400        .$      MOVS     r4,#0
        0x00002db0:    e011        ..      B        0x2dd6 ; set_sys_clk_secondary_freq + 116
        0x00002db2:    4628        (F      MOV      r0,r5
        0x00002db4:    40e0        .@      LSRS     r0,r0,r4
        0x00002db6:    07c0        ..      LSLS     r0,r0,#31
        0x00002db8:    0fc0        ..      LSRS     r0,r0,#31
        0x00002dba:    2800        .(      CMP      r0,#0
        0x00002dbc:    d005        ..      BEQ      0x2dca ; set_sys_clk_secondary_freq + 104
        0x00002dbe:    21d7        .!      MOVS     r1,#0xd7
        0x00002dc0:    0089        ..      LSLS     r1,r1,#2
        0x00002dc2:    1860        `.      ADDS     r0,r4,r1
        0x00002dc4:    f7fefff6    ....    BL       set_asc_bit ; 0x1db4
        0x00002dc8:    e004        ..      B        0x2dd4 ; set_sys_clk_secondary_freq + 114
        0x00002dca:    21d7        .!      MOVS     r1,#0xd7
        0x00002dcc:    0089        ..      LSLS     r1,r1,#2
        0x00002dce:    1860        `.      ADDS     r0,r4,r1
        0x00002dd0:    f7feffe0    ....    BL       clear_asc_bit ; 0x1d94
        0x00002dd4:    1c64        d.      ADDS     r4,r4,#1
        0x00002dd6:    2c01        .,      CMP      r4,#1
        0x00002dd8:    ddeb        ..      BLE      0x2db2 ; set_sys_clk_secondary_freq + 80
        0x00002dda:    2402        .$      MOVS     r4,#2
        0x00002ddc:    e011        ..      B        0x2e02 ; set_sys_clk_secondary_freq + 160
        0x00002dde:    4628        (F      MOV      r0,r5
        0x00002de0:    40e0        .@      LSRS     r0,r0,r4
        0x00002de2:    07c0        ..      LSLS     r0,r0,#31
        0x00002de4:    0fc0        ..      LSRS     r0,r0,#31
        0x00002de6:    2800        .(      CMP      r0,#0
        0x00002de8:    d005        ..      BEQ      0x2df6 ; set_sys_clk_secondary_freq + 148
        0x00002dea:    4975        uI      LDR      r1,[pc,#468] ; [0x2fc0] = 0x2d6
        0x00002dec:    3193        .1      ADDS     r1,r1,#0x93
        0x00002dee:    1860        `.      ADDS     r0,r4,r1
        0x00002df0:    f7feffd0    ....    BL       clear_asc_bit ; 0x1d94
        0x00002df4:    e004        ..      B        0x2e00 ; set_sys_clk_secondary_freq + 158
        0x00002df6:    4972        rI      LDR      r1,[pc,#456] ; [0x2fc0] = 0x2d6
        0x00002df8:    3193        .1      ADDS     r1,r1,#0x93
        0x00002dfa:    1860        `.      ADDS     r0,r4,r1
        0x00002dfc:    f7feffda    ....    BL       set_asc_bit ; 0x1db4
        0x00002e00:    1c64        d.      ADDS     r4,r4,#1
        0x00002e02:    2c04        .,      CMP      r4,#4
        0x00002e04:    ddeb        ..      BLE      0x2dde ; set_sys_clk_secondary_freq + 124
        0x00002e06:    bd70        p.      POP      {r4-r6,pc}
    analog_scan_chain_load
        0x00002e08:    2028        (       MOVS     r0,#0x28
        0x00002e0a:    496e        nI      LDR      r1,[pc,#440] ; [0x2fc4] = 0x52580000
        0x00002e0c:    6008        .`      STR      r0,[r1,#0]
        0x00002e0e:    2020                MOVS     r0,#0x20
        0x00002e10:    6008        .`      STR      r0,[r1,#0]
        0x00002e12:    4770        pG      BX       lr
    analog_scan_chain_write
        0x00002e14:    b510        ..      PUSH     {r4,lr}
        0x00002e16:    2100        .!      MOVS     r1,#0
        0x00002e18:    2200        ."      MOVS     r2,#0
        0x00002e1a:    2125        %!      MOVS     r1,#0x25
        0x00002e1c:    e026        &.      B        0x2e6c ; analog_scan_chain_write + 88
        0x00002e1e:    2200        ."      MOVS     r2,#0
        0x00002e20:    e021        !.      B        0x2e66 ; analog_scan_chain_write + 82
        0x00002e22:    008b        ..      LSLS     r3,r1,#2
        0x00002e24:    4c5b        [L      LDR      r4,[pc,#364] ; [0x2f94] = 0x200005c0
        0x00002e26:    58e3        .X      LDR      r3,[r4,r3]
        0x00002e28:    2401        .$      MOVS     r4,#1
        0x00002e2a:    4094        .@      LSLS     r4,r4,r2
        0x00002e2c:    4023        #@      ANDS     r3,r3,r4
        0x00002e2e:    2b00        .+      CMP      r3,#0
        0x00002e30:    d101        ..      BNE      0x2e36 ; analog_scan_chain_write + 34
        0x00002e32:    2021        !       MOVS     r0,#0x21
        0x00002e34:    e000        ..      B        0x2e38 ; analog_scan_chain_write + 36
        0x00002e36:    2020                MOVS     r0,#0x20
        0x00002e38:    4b62        bK      LDR      r3,[pc,#392] ; [0x2fc4] = 0x52580000
        0x00002e3a:    6018        .`      STR      r0,[r3,#0]
        0x00002e3c:    2402        .$      MOVS     r4,#2
        0x00002e3e:    4603        .F      MOV      r3,r0
        0x00002e40:    43a3        .C      BICS     r3,r3,r4
        0x00002e42:    4618        .F      MOV      r0,r3
        0x00002e44:    4b5f        _K      LDR      r3,[pc,#380] ; [0x2fc4] = 0x52580000
        0x00002e46:    6018        .`      STR      r0,[r3,#0]
        0x00002e48:    2304        .#      MOVS     r3,#4
        0x00002e4a:    4318        .C      ORRS     r0,r0,r3
        0x00002e4c:    4b5d        ]K      LDR      r3,[pc,#372] ; [0x2fc4] = 0x52580000
        0x00002e4e:    6018        .`      STR      r0,[r3,#0]
        0x00002e50:    2404        .$      MOVS     r4,#4
        0x00002e52:    4603        .F      MOV      r3,r0
        0x00002e54:    43a3        .C      BICS     r3,r3,r4
        0x00002e56:    4618        .F      MOV      r0,r3
        0x00002e58:    4b5a        ZK      LDR      r3,[pc,#360] ; [0x2fc4] = 0x52580000
        0x00002e5a:    6018        .`      STR      r0,[r3,#0]
        0x00002e5c:    2302        .#      MOVS     r3,#2
        0x00002e5e:    4318        .C      ORRS     r0,r0,r3
        0x00002e60:    4b58        XK      LDR      r3,[pc,#352] ; [0x2fc4] = 0x52580000
        0x00002e62:    6018        .`      STR      r0,[r3,#0]
        0x00002e64:    1c52        R.      ADDS     r2,r2,#1
        0x00002e66:    2a20         *      CMP      r2,#0x20
        0x00002e68:    dbdb        ..      BLT      0x2e22 ; analog_scan_chain_write + 14
        0x00002e6a:    1e49        I.      SUBS     r1,r1,#1
        0x00002e6c:    2900        .)      CMP      r1,#0
        0x00002e6e:    dad6        ..      BGE      0x2e1e ; analog_scan_chain_write + 10
        0x00002e70:    bd10        ..      POP      {r4,pc}
    LC_FREQCHANGE
        0x00002e72:    b5f7        ..      PUSH     {r0-r2,r4-r7,lr}
        0x00002e74:    b084        ..      SUB      sp,sp,#0x10
        0x00002e76:    4605        .F      MOV      r5,r0
        0x00002e78:    06e8        ..      LSLS     r0,r5,#27
        0x00002e7a:    0ec0        ..      LSRS     r0,r0,#27
        0x00002e7c:    9003        ..      STR      r0,[sp,#0xc]
        0x00002e7e:    bf00        ..      NOP      
        0x00002e80:    9805        ..      LDR      r0,[sp,#0x14]
        0x00002e82:    06c0        ..      LSLS     r0,r0,#27
        0x00002e84:    0ec0        ..      LSRS     r0,r0,#27
        0x00002e86:    9002        ..      STR      r0,[sp,#8]
        0x00002e88:    bf00        ..      NOP      
        0x00002e8a:    9806        ..      LDR      r0,[sp,#0x18]
        0x00002e8c:    06c0        ..      LSLS     r0,r0,#27
        0x00002e8e:    0ec0        ..      LSRS     r0,r0,#27
        0x00002e90:    9001        ..      STR      r0,[sp,#4]
        0x00002e92:    bf00        ..      NOP      
        0x00002e94:    9803        ..      LDR      r0,[sp,#0xc]
        0x00002e96:    f7feff65    ..e.    BL       flipChar ; 0x1d64
        0x00002e9a:    9000        ..      STR      r0,[sp,#0]
        0x00002e9c:    bf00        ..      NOP      
        0x00002e9e:    9802        ..      LDR      r0,[sp,#8]
        0x00002ea0:    f7feff60    ..`.    BL       flipChar ; 0x1d64
        0x00002ea4:    4606        .F      MOV      r6,r0
        0x00002ea6:    bf00        ..      NOP      
        0x00002ea8:    9801        ..      LDR      r0,[sp,#4]
        0x00002eaa:    f7feff5b    ..[.    BL       flipChar ; 0x1d64
        0x00002eae:    4604        .F      MOV      r4,r0
        0x00002eb0:    bf00        ..      NOP      
        0x00002eb2:    2300        .#      MOVS     r3,#0
        0x00002eb4:    2700        .'      MOVS     r7,#0
        0x00002eb6:    bf00        ..      NOP      
        0x00002eb8:    bf00        ..      NOP      
        0x00002eba:    9800        ..      LDR      r0,[sp,#0]
        0x00002ebc:    9000        ..      STR      r0,[sp,#0]
        0x00002ebe:    2078        x       MOVS     r0,#0x78
        0x00002ec0:    4020         @      ANDS     r0,r0,r4
        0x00002ec2:    0240        @.      LSLS     r0,r0,#9
        0x00002ec4:    4303        .C      ORRS     r3,r3,r0
        0x00002ec6:    00f0        ..      LSLS     r0,r6,#3
        0x00002ec8:    4303        .C      ORRS     r3,r3,r0
        0x00002eca:    9800        ..      LDR      r0,[sp,#0]
        0x00002ecc:    08c0        ..      LSRS     r0,r0,#3
        0x00002ece:    4303        .C      ORRS     r3,r3,r0
        0x00002ed0:    2080        .       MOVS     r0,#0x80
        0x00002ed2:    4020         @      ANDS     r0,r0,r4
        0x00002ed4:    09c0        ..      LSRS     r0,r0,#7
        0x00002ed6:    4307        .C      ORRS     r7,r7,r0
        0x00002ed8:    4830        0H      LDR      r0,[pc,#192] ; [0x2f9c] = 0x521c0000
        0x00002eda:    6003        .`      STR      r3,[r0,#0]
        0x00002edc:    483a        :H      LDR      r0,[pc,#232] ; [0x2fc8] = 0x52200000
        0x00002ede:    6007        .`      STR      r7,[r0,#0]
        0x00002ee0:    b007        ..      ADD      sp,sp,#0x1c
        0x00002ee2:    bdf0        ..      POP      {r4-r7,pc}
    LC_monotonic
        0x00002ee4:    b5f0        ..      PUSH     {r4-r7,lr}
        0x00002ee6:    b085        ..      SUB      sp,sp,#0x14
        0x00002ee8:    4605        .F      MOV      r5,r0
        0x00002eea:    2600        .&      MOVS     r6,#0
        0x00002eec:    2700        .'      MOVS     r7,#0
        0x00002eee:    2017        .       MOVS     r0,#0x17
        0x00002ef0:    9003        ..      STR      r0,[sp,#0xc]
        0x00002ef2:    208c        .       MOVS     r0,#0x8c
        0x00002ef4:    9002        ..      STR      r0,[sp,#8]
        0x00002ef6:    4628        (F      MOV      r0,r5
        0x00002ef8:    9902        ..      LDR      r1,[sp,#8]
        0x00002efa:    f002fb1f    ....    BL       __aeabi_idiv ; 0x553c
        0x00002efe:    3013        .0      ADDS     r0,r0,#0x13
        0x00002f00:    b2c0        ..      UXTB     r0,r0
        0x00002f02:    9000        ..      STR      r0,[sp,#0]
        0x00002f04:    4628        (F      MOV      r0,r5
        0x00002f06:    9902        ..      LDR      r1,[sp,#8]
        0x00002f08:    f002fb18    ....    BL       __aeabi_idiv ; 0x553c
        0x00002f0c:    460d        .F      MOV      r5,r1
        0x00002f0e:    4628        (F      MOV      r0,r5
        0x00002f10:    9903        ..      LDR      r1,[sp,#0xc]
        0x00002f12:    f002fb13    ....    BL       __aeabi_idiv ; 0x553c
        0x00002f16:    0041        A.      LSLS     r1,r0,#1
        0x00002f18:    1840        @.      ADDS     r0,r0,r1
        0x00002f1a:    19c0        ..      ADDS     r0,r0,r7
        0x00002f1c:    b2c0        ..      UXTB     r0,r0
        0x00002f1e:    9001        ..      STR      r0,[sp,#4]
        0x00002f20:    4628        (F      MOV      r0,r5
        0x00002f22:    9903        ..      LDR      r1,[sp,#0xc]
        0x00002f24:    f002fb0a    ....    BL       __aeabi_idiv ; 0x553c
        0x00002f28:    2802        .(      CMP      r0,#2
        0x00002f2a:    db00        ..      BLT      0x2f2e ; LC_monotonic + 74
        0x00002f2c:    bf00        ..      NOP      
        0x00002f2e:    4628        (F      MOV      r0,r5
        0x00002f30:    9903        ..      LDR      r1,[sp,#0xc]
        0x00002f32:    f002fb03    ....    BL       __aeabi_idiv ; 0x553c
        0x00002f36:    1988        ..      ADDS     r0,r1,r6
        0x00002f38:    b2c4        ..      UXTB     r4,r0
        0x00002f3a:    2c0f        .,      CMP      r4,#0xf
        0x00002f3c:    dd00        ..      BLE      0x2f40 ; LC_monotonic + 92
        0x00002f3e:    1c64        d.      ADDS     r4,r4,#1
        0x00002f40:    4622        "F      MOV      r2,r4
        0x00002f42:    9901        ..      LDR      r1,[sp,#4]
        0x00002f44:    9800        ..      LDR      r0,[sp,#0]
        0x00002f46:    f7ffff94    ....    BL       LC_FREQCHANGE ; 0x2e72
        0x00002f4a:    b005        ..      ADD      sp,sp,#0x14
        0x00002f4c:    bdf0        ..      POP      {r4-r7,pc}
    flip_lsb8
        0x00002f4e:    4601        .F      MOV      r1,r0
        0x00002f50:    2000        .       MOVS     r0,#0
        0x00002f52:    07ca        ..      LSLS     r2,r1,#31
        0x00002f54:    0e12        ..      LSRS     r2,r2,#24
        0x00002f56:    4310        .C      ORRS     r0,r0,r2
        0x00002f58:    2202        ."      MOVS     r2,#2
        0x00002f5a:    400a        .@      ANDS     r2,r2,r1
        0x00002f5c:    0152        R.      LSLS     r2,r2,#5
        0x00002f5e:    4310        .C      ORRS     r0,r0,r2
        0x00002f60:    2204        ."      MOVS     r2,#4
        0x00002f62:    400a        .@      ANDS     r2,r2,r1
        0x00002f64:    00d2        ..      LSLS     r2,r2,#3
        0x00002f66:    4310        .C      ORRS     r0,r0,r2
        0x00002f68:    2208        ."      MOVS     r2,#8
        0x00002f6a:    400a        .@      ANDS     r2,r2,r1
        0x00002f6c:    0052        R.      LSLS     r2,r2,#1
        0x00002f6e:    4310        .C      ORRS     r0,r0,r2
        0x00002f70:    2210        ."      MOVS     r2,#0x10
        0x00002f72:    400a        .@      ANDS     r2,r2,r1
        0x00002f74:    0852        R.      LSRS     r2,r2,#1
        0x00002f76:    4310        .C      ORRS     r0,r0,r2
        0x00002f78:    2220         "      MOVS     r2,#0x20
        0x00002f7a:    400a        .@      ANDS     r2,r2,r1
        0x00002f7c:    08d2        ..      LSRS     r2,r2,#3
        0x00002f7e:    4310        .C      ORRS     r0,r0,r2
        0x00002f80:    2240        @"      MOVS     r2,#0x40
        0x00002f82:    400a        .@      ANDS     r2,r2,r1
        0x00002f84:    0952        R.      LSRS     r2,r2,#5
        0x00002f86:    4310        .C      ORRS     r0,r0,r2
        0x00002f88:    2280        ."      MOVS     r2,#0x80
        0x00002f8a:    400a        .@      ANDS     r2,r2,r1
        0x00002f8c:    09d2        ..      LSRS     r2,r2,#7
        0x00002f8e:    4310        .C      ORRS     r0,r0,r2
        0x00002f90:    4770        pG      BX       lr
    $d
        0x00002f92:    0000        ..      DCW    0
        0x00002f94:    200005c0    ...     DCD    536872384
        0x00002f98:    52180000    ...R    DCD    1377304576
        0x00002f9c:    521c0000    ...R    DCD    1377566720
        0x00002fa0:    52280000    ..(R    DCD    1378353152
        0x00002fa4:    522c0000    ..,R    DCD    1378615296
        0x00002fa8:    52300000    ..0R    DCD    1378877440
        0x00002fac:    52340000    ..4R    DCD    1379139584
        0x00002fb0:    00003fff    .?..    DCD    16383
        0x00002fb4:    52400000    ..@R    DCD    1379926016
        0x00002fb8:    52540000    ..TR    DCD    1381236736
        0x00002fbc:    523c0000    ..<R    DCD    1379663872
        0x00002fc0:    000002d6    ....    DCD    726
        0x00002fc4:    52580000    ..XR    DCD    1381498880
        0x00002fc8:    52200000    .. R    DCD    1377828864
    $t
    set_2M_RC_frequency
        0x00002fcc:    b5f0        ..      PUSH     {r4-r7,lr}
        0x00002fce:    b085        ..      SUB      sp,sp,#0x14
        0x00002fd0:    4606        .F      MOV      r6,r0
        0x00002fd2:    460c        .F      MOV      r4,r1
        0x00002fd4:    4615        .F      MOV      r5,r2
        0x00002fd6:    461f        .F      MOV      r7,r3
        0x00002fd8:    48b5        .H      LDR      r0,[pc,#724] ; [0x32b0] = 0x20000640
        0x00002fda:    6186        .a      STR      r6,[r0,#0x18]
        0x00002fdc:    3018        .0      ADDS     r0,r0,#0x18
        0x00002fde:    6044        D`      STR      r4,[r0,#4]
        0x00002fe0:    6085        .`      STR      r5,[r0,#8]
        0x00002fe2:    60c7        .`      STR      r7,[r0,#0xc]
        0x00002fe4:    49b2        .I      LDR      r1,[pc,#712] ; [0x32b0] = 0x20000640
        0x00002fe6:    3118        .1      ADDS     r1,r1,#0x18
        0x00002fe8:    980a        ..      LDR      r0,[sp,#0x28]
        0x00002fea:    6108        .a      STR      r0,[r1,#0x10]
        0x00002fec:    48b0        .H      LDR      r0,[pc,#704] ; [0x32b0] = 0x20000640
        0x00002fee:    6880        .h      LDR      r0,[r0,#8]
        0x00002ff0:    49b0        .I      LDR      r1,[pc,#704] ; [0x32b4] = 0x8000001f
        0x00002ff2:    4008        .@      ANDS     r0,r0,r1
        0x00002ff4:    4603        .F      MOV      r3,r0
        0x00002ff6:    4630        0F      MOV      r0,r6
        0x00002ff8:    f7ffffa9    ....    BL       flip_lsb8 ; 0x2f4e
        0x00002ffc:    0600        ..      LSLS     r0,r0,#24
        0x00002ffe:    0ec0        ..      LSRS     r0,r0,#27
        0x00003000:    9004        ..      STR      r0,[sp,#0x10]
        0x00003002:    4620         F      MOV      r0,r4
        0x00003004:    f7ffffa3    ....    BL       flip_lsb8 ; 0x2f4e
        0x00003008:    0600        ..      LSLS     r0,r0,#24
        0x0000300a:    0ec0        ..      LSRS     r0,r0,#27
        0x0000300c:    9003        ..      STR      r0,[sp,#0xc]
        0x0000300e:    4628        (F      MOV      r0,r5
        0x00003010:    f7ffff9d    ....    BL       flip_lsb8 ; 0x2f4e
        0x00003014:    0600        ..      LSLS     r0,r0,#24
        0x00003016:    0ec0        ..      LSRS     r0,r0,#27
        0x00003018:    9002        ..      STR      r0,[sp,#8]
        0x0000301a:    4638        8F      MOV      r0,r7
        0x0000301c:    f7ffff97    ....    BL       flip_lsb8 ; 0x2f4e
        0x00003020:    0600        ..      LSLS     r0,r0,#24
        0x00003022:    0ec0        ..      LSRS     r0,r0,#27
        0x00003024:    9001        ..      STR      r0,[sp,#4]
        0x00003026:    980a        ..      LDR      r0,[sp,#0x28]
        0x00003028:    f7ffff91    ....    BL       flip_lsb8 ; 0x2f4e
        0x0000302c:    0600        ..      LSLS     r0,r0,#24
        0x0000302e:    0ec0        ..      LSRS     r0,r0,#27
        0x00003030:    9000        ..      STR      r0,[sp,#0]
        0x00003032:    9804        ..      LDR      r0,[sp,#0x10]
        0x00003034:    0680        ..      LSLS     r0,r0,#26
        0x00003036:    4303        .C      ORRS     r3,r3,r0
        0x00003038:    9803        ..      LDR      r0,[sp,#0xc]
        0x0000303a:    0540        @.      LSLS     r0,r0,#21
        0x0000303c:    4303        .C      ORRS     r3,r3,r0
        0x0000303e:    9802        ..      LDR      r0,[sp,#8]
        0x00003040:    0400        ..      LSLS     r0,r0,#16
        0x00003042:    4303        .C      ORRS     r3,r3,r0
        0x00003044:    9801        ..      LDR      r0,[sp,#4]
        0x00003046:    02c0        ..      LSLS     r0,r0,#11
        0x00003048:    4303        .C      ORRS     r3,r3,r0
        0x0000304a:    9800        ..      LDR      r0,[sp,#0]
        0x0000304c:    0180        ..      LSLS     r0,r0,#6
        0x0000304e:    4303        .C      ORRS     r3,r3,r0
        0x00003050:    2020                MOVS     r0,#0x20
        0x00003052:    4303        .C      ORRS     r3,r3,r0
        0x00003054:    4896        .H      LDR      r0,[pc,#600] ; [0x32b0] = 0x20000640
        0x00003056:    6083        .`      STR      r3,[r0,#8]
        0x00003058:    b005        ..      ADD      sp,sp,#0x14
        0x0000305a:    bdf0        ..      POP      {r4-r7,pc}
    initialize_mote
        0x0000305c:    b538        8.      PUSH     {r3-r5,lr}
        0x0000305e:    f7fefdb9    ....    BL       scm3c_hw_interface_init ; 0x1bd4
        0x00003062:    f7fdf9dd    ....    BL       optical_init ; 0x420
        0x00003066:    f7fdfdc0    ....    BL       radio_init ; 0xbea
        0x0000306a:    f7fefccb    ....    BL       rftimer_init ; 0x1a04
        0x0000306e:    f7fefff7    ....    BL       init_ldo_control ; 0x2060
        0x00003072:    2300        .#      MOVS     r3,#0
        0x00003074:    2201        ."      MOVS     r2,#1
        0x00003076:    4619        .F      MOV      r1,r3
        0x00003078:    4618        .F      MOV      r0,r3
        0x0000307a:    f7feff00    ....    BL       GPI_control ; 0x1e7e
        0x0000307e:    2306        .#      MOVS     r3,#6
        0x00003080:    2200        ."      MOVS     r2,#0
        0x00003082:    4619        .F      MOV      r1,r3
        0x00003084:    4618        .F      MOV      r0,r3
        0x00003086:    f7fefea5    ....    BL       GPO_control ; 0x1dd4
        0x0000308a:    20ff        .       MOVS     r0,#0xff
        0x0000308c:    3001        .0      ADDS     r0,#1
        0x0000308e:    f7feff71    ..q.    BL       GPI_enables ; 0x1f74
        0x00003092:    4889        .H      LDR      r0,[pc,#548] ; [0x32b8] = 0xffff
        0x00003094:    f7feff4e    ..N.    BL       GPO_enables ; 0x1f34
        0x00003098:    4888        .H      LDR      r0,[pc,#544] ; [0x32bc] = 0x47b
        0x0000309a:    f7fefe8b    ....    BL       set_asc_bit ; 0x1db4
        0x0000309e:    4a84        .J      LDR      r2,[pc,#528] ; [0x32b0] = 0x20000640
        0x000030a0:    6ad1        .j      LDR      r1,[r2,#0x2c]
        0x000030a2:    6b10        .k      LDR      r0,[r2,#0x30]
        0x000030a4:    f7fffe5d    ..].    BL       set_sys_clk_secondary_freq ; 0x2d62
        0x000030a8:    4884        .H      LDR      r0,[pc,#528] ; [0x32bc] = 0x47b
        0x000030aa:    1d00        ..      ADDS     r0,r0,#4
        0x000030ac:    f7fefe82    ....    BL       set_asc_bit ; 0x1db4
        0x000030b0:    4883        .H      LDR      r0,[pc,#524] ; [0x32c0] = 0x229
        0x000030b2:    f7fefe7f    ....    BL       set_asc_bit ; 0x1db4
        0x000030b6:    2031        1       MOVS     r0,#0x31
        0x000030b8:    f7fefe7c    ..|.    BL       set_asc_bit ; 0x1db4
        0x000030bc:    2030        0       MOVS     r0,#0x30
        0x000030be:    f7fefe79    ..y.    BL       set_asc_bit ; 0x1db4
        0x000030c2:    202f        /       MOVS     r0,#0x2f
        0x000030c4:    f7fefe66    ..f.    BL       clear_asc_bit ; 0x1d94
        0x000030c8:    202e        .       MOVS     r0,#0x2e
        0x000030ca:    f7fefe73    ..s.    BL       set_asc_bit ; 0x1db4
        0x000030ce:    202d        -       MOVS     r0,#0x2d
        0x000030d0:    f7fefe60    ..`.    BL       clear_asc_bit ; 0x1d94
        0x000030d4:    202c        ,       MOVS     r0,#0x2c
        0x000030d6:    f7fefe6d    ..m.    BL       set_asc_bit ; 0x1db4
        0x000030da:    202b        +       MOVS     r0,#0x2b
        0x000030dc:    f7fefe6a    ..j.    BL       set_asc_bit ; 0x1db4
        0x000030e0:    202a        *       MOVS     r0,#0x2a
        0x000030e2:    f7fefe67    ..g.    BL       set_asc_bit ; 0x1db4
        0x000030e6:    4875        uH      LDR      r0,[pc,#468] ; [0x32bc] = 0x47b
        0x000030e8:    3009        .0      ADDS     r0,r0,#9
        0x000030ea:    f7fefe63    ..c.    BL       set_asc_bit ; 0x1db4
        0x000030ee:    4874        tH      LDR      r0,[pc,#464] ; [0x32c0] = 0x229
        0x000030f0:    3046        F0      ADDS     r0,r0,#0x46
        0x000030f2:    f7fefe5f    .._.    BL       set_asc_bit ; 0x1db4
        0x000030f6:    2029        )       MOVS     r0,#0x29
        0x000030f8:    f7fefe5c    ..\.    BL       set_asc_bit ; 0x1db4
        0x000030fc:    2402        .$      MOVS     r4,#2
        0x000030fe:    e003        ..      B        0x3108 ; initialize_mote + 172
        0x00003100:    4620         F      MOV      r0,r4
        0x00003102:    f7fefe57    ..W.    BL       set_asc_bit ; 0x1db4
        0x00003106:    1c64        d.      ADDS     r4,r4,#1
        0x00003108:    2c09        .,      CMP      r4,#9
        0x0000310a:    dbf9        ..      BLT      0x3100 ; initialize_mote + 164
        0x0000310c:    f7fffb17    ....    BL       radio_init_rx_MF ; 0x273e
        0x00003110:    f7fffc35    ..5.    BL       radio_init_tx ; 0x297e
        0x00003114:    4a66        fJ      LDR      r2,[pc,#408] ; [0x32b0] = 0x20000640
        0x00003116:    6c91        .l      LDR      r1,[r2,#0x48]
        0x00003118:    6c50        Pl      LDR      r0,[r2,#0x44]
        0x0000311a:    2200        ."      MOVS     r2,#0
        0x0000311c:    f7fffde7    ....    BL       set_IF_clock_frequency ; 0x2cee
        0x00003120:    4863        cH      LDR      r0,[pc,#396] ; [0x32b0] = 0x20000640
        0x00003122:    6bc0        .k      LDR      r0,[r0,#0x3c]
        0x00003124:    9000        ..      STR      r0,[sp,#0]
        0x00003126:    4862        bH      LDR      r0,[pc,#392] ; [0x32b0] = 0x20000640
        0x00003128:    6b83        .k      LDR      r3,[r0,#0x38]
        0x0000312a:    211f        .!      MOVS     r1,#0x1f
        0x0000312c:    6b42        Bk      LDR      r2,[r0,#0x34]
        0x0000312e:    4608        .F      MOV      r0,r1
        0x00003130:    f7ffff4c    ..L.    BL       set_2M_RC_frequency ; 0x2fcc
        0x00003134:    4861        aH      LDR      r0,[pc,#388] ; [0x32bc] = 0x47b
        0x00003136:    3821        !8      SUBS     r0,r0,#0x21
        0x00003138:    f7fefe3c    ..<.    BL       set_asc_bit ; 0x1db4
        0x0000313c:    4860        `H      LDR      r0,[pc,#384] ; [0x32c0] = 0x229
        0x0000313e:    3091        .0      ADDS     r0,r0,#0x91
        0x00003140:    f7fffed0    ....    BL       LC_monotonic ; 0x2ee4
        0x00003144:    207d        }       MOVS     r0,#0x7d
        0x00003146:    0100        ..      LSLS     r0,r0,#4
        0x00003148:    f7fffd86    ....    BL       radio_init_divider ; 0x2c58
        0x0000314c:    f7fffe62    ..b.    BL       analog_scan_chain_write ; 0x2e14
        0x00003150:    f7fffe5a    ..Z.    BL       analog_scan_chain_load ; 0x2e08
        0x00003154:    bd38        8.      POP      {r3-r5,pc}
    estimate_temperature_2M_32k
        0x00003156:    b5f8        ..      PUSH     {r3-r7,lr}
        0x00003158:    2000        .       MOVS     r0,#0
        0x0000315a:    2129        )!      MOVS     r1,#0x29
        0x0000315c:    0649        I.      LSLS     r1,r1,#25
        0x0000315e:    6008        .`      STR      r0,[r1,#0]
        0x00003160:    4858        XH      LDR      r0,[pc,#352] ; [0x32c4] = 0x3fff
        0x00003162:    6008        .`      STR      r0,[r1,#0]
        0x00003164:    2701        .'      MOVS     r7,#1
        0x00003166:    e000        ..      B        0x316a ; estimate_temperature_2M_32k + 20
        0x00003168:    1c7f        ..      ADDS     r7,r7,#1
        0x0000316a:    4857        WH      LDR      r0,[pc,#348] ; [0x32c8] = 0xc350
        0x0000316c:    4287        .B      CMP      r7,r0
        0x0000316e:    dbfb        ..      BLT      0x3168 ; estimate_temperature_2M_32k + 18
        0x00003170:    207f        .       MOVS     r0,#0x7f
        0x00003172:    2129        )!      MOVS     r1,#0x29
        0x00003174:    0649        I.      LSLS     r1,r1,#25
        0x00003176:    6008        .`      STR      r0,[r1,#0]
        0x00003178:    4854        TH      LDR      r0,[pc,#336] ; [0x32cc] = 0x52180000
        0x0000317a:    6804        .h      LDR      r4,[r0,#0]
        0x0000317c:    4854        TH      LDR      r0,[pc,#336] ; [0x32d0] = 0x521c0000
        0x0000317e:    6805        .h      LDR      r5,[r0,#0]
        0x00003180:    0428        (.      LSLS     r0,r5,#16
        0x00003182:    1906        ..      ADDS     r6,r0,r4
        0x00003184:    4608        .F      MOV      r0,r1
        0x00003186:    6804        .h      LDR      r4,[r0,#0]
        0x00003188:    4852        RH      LDR      r0,[pc,#328] ; [0x32d4] = 0x52040000
        0x0000318a:    6805        .h      LDR      r5,[r0,#0]
        0x0000318c:    0428        (.      LSLS     r0,r5,#16
        0x0000318e:    1900        ..      ADDS     r0,r0,r4
        0x00003190:    9000        ..      STR      r0,[sp,#0]
        0x00003192:    0370        p.      LSLS     r0,r6,#13
        0x00003194:    9900        ..      LDR      r1,[sp,#0]
        0x00003196:    f002f9c7    ....    BL       __aeabi_uidiv ; 0x5528
        0x0000319a:    bdf8        ..      POP      {r3-r7,pc}
    initialize_2M_DAC
        0x0000319c:    b518        ..      PUSH     {r3,r4,lr}
        0x0000319e:    4844        DH      LDR      r0,[pc,#272] ; [0x32b0] = 0x20000640
        0x000031a0:    3018        .0      ADDS     r0,r0,#0x18
        0x000031a2:    6900        .i      LDR      r0,[r0,#0x10]
        0x000031a4:    4c42        BL      LDR      r4,[pc,#264] ; [0x32b0] = 0x20000640
        0x000031a6:    3418        .4      ADDS     r4,r4,#0x18
        0x000031a8:    9000        ..      STR      r0,[sp,#0]
        0x000031aa:    68e3        .h      LDR      r3,[r4,#0xc]
        0x000031ac:    68a2        .h      LDR      r2,[r4,#8]
        0x000031ae:    6861        ah      LDR      r1,[r4,#4]
        0x000031b0:    3c18        .<      SUBS     r4,r4,#0x18
        0x000031b2:    69a0        .i      LDR      r0,[r4,#0x18]
        0x000031b4:    f7ffff0a    ....    BL       set_2M_RC_frequency ; 0x2fcc
        0x000031b8:    bd18        ..      POP      {r3,r4,pc}
    read_counters
        0x000031ba:    b570        p.      PUSH     {r4-r6,lr}
        0x000031bc:    4603        .F      MOV      r3,r0
        0x000031be:    460c        .F      MOV      r4,r1
        0x000031c0:    257f        .%      MOVS     r5,#0x7f
        0x000031c2:    2629        )&      MOVS     r6,#0x29
        0x000031c4:    0676        v.      LSLS     r6,r6,#25
        0x000031c6:    6035        5`      STR      r5,[r6,#0]
        0x000031c8:    4d40        @M      LDR      r5,[pc,#256] ; [0x32cc] = 0x52180000
        0x000031ca:    6828        (h      LDR      r0,[r5,#0]
        0x000031cc:    4d40        @M      LDR      r5,[pc,#256] ; [0x32d0] = 0x521c0000
        0x000031ce:    6829        )h      LDR      r1,[r5,#0]
        0x000031d0:    040d        ..      LSLS     r5,r1,#16
        0x000031d2:    182d        -.      ADDS     r5,r5,r0
        0x000031d4:    601d        .`      STR      r5,[r3,#0]
        0x000031d6:    4d40        @M      LDR      r5,[pc,#256] ; [0x32d8] = 0x52200000
        0x000031d8:    6828        (h      LDR      r0,[r5,#0]
        0x000031da:    4d40        @M      LDR      r5,[pc,#256] ; [0x32dc] = 0x52240000
        0x000031dc:    6829        )h      LDR      r1,[r5,#0]
        0x000031de:    040d        ..      LSLS     r5,r1,#16
        0x000031e0:    182d        -.      ADDS     r5,r5,r0
        0x000031e2:    6025        %`      STR      r5,[r4,#0]
        0x000031e4:    4635        5F      MOV      r5,r6
        0x000031e6:    6828        (h      LDR      r0,[r5,#0]
        0x000031e8:    4d3a        :M      LDR      r5,[pc,#232] ; [0x32d4] = 0x52040000
        0x000031ea:    6829        )h      LDR      r1,[r5,#0]
        0x000031ec:    040d        ..      LSLS     r5,r1,#16
        0x000031ee:    182d        -.      ADDS     r5,r5,r0
        0x000031f0:    6015        .`      STR      r5,[r2,#0]
        0x000031f2:    2500        .%      MOVS     r5,#0
        0x000031f4:    6035        5`      STR      r5,[r6,#0]
        0x000031f6:    4d33        3M      LDR      r5,[pc,#204] ; [0x32c4] = 0x3fff
        0x000031f8:    6035        5`      STR      r5,[r6,#0]
        0x000031fa:    bd70        p.      POP      {r4-r6,pc}
    update_PN31_byte
        0x000031fc:    b510        ..      PUSH     {r4,lr}
        0x000031fe:    2100        .!      MOVS     r1,#0
        0x00003200:    e00b        ..      B        0x321a ; update_PN31_byte + 30
        0x00003202:    6803        .h      LDR      r3,[r0,#0]
        0x00003204:    0f9b        ..      LSRS     r3,r3,#30
        0x00003206:    6804        .h      LDR      r4,[r0,#0]
        0x00003208:    0ee4        ..      LSRS     r4,r4,#27
        0x0000320a:    4063        c@      EORS     r3,r3,r4
        0x0000320c:    07da        ..      LSLS     r2,r3,#31
        0x0000320e:    0fd2        ..      LSRS     r2,r2,#31
        0x00003210:    6803        .h      LDR      r3,[r0,#0]
        0x00003212:    005b        [.      LSLS     r3,r3,#1
        0x00003214:    4313        .C      ORRS     r3,r3,r2
        0x00003216:    6003        .`      STR      r3,[r0,#0]
        0x00003218:    1c49        I.      ADDS     r1,r1,#1
        0x0000321a:    2908        .)      CMP      r1,#8
        0x0000321c:    dbf1        ..      BLT      0x3202 ; update_PN31_byte + 6
        0x0000321e:    bd10        ..      POP      {r4,pc}
    disable_polyphase_ASC
        0x00003220:    4823        #H      LDR      r0,[pc,#140] ; [0x32b0] = 0x20000640
        0x00003222:    3880        .8      SUBS     r0,r0,#0x80
        0x00003224:    6f80        .o      LDR      r0,[r0,#0x78]
        0x00003226:    2101        .!      MOVS     r1,#1
        0x00003228:    0509        ..      LSLS     r1,r1,#20
        0x0000322a:    4388        .C      BICS     r0,r0,r1
        0x0000322c:    4920         I      LDR      r1,[pc,#128] ; [0x32b0] = 0x20000640
        0x0000322e:    3980        .9      SUBS     r1,r1,#0x80
        0x00003230:    6788        .g      STR      r0,[r1,#0x78]
        0x00003232:    4770        pG      BX       lr
    enable_polyphase_ASC
        0x00003234:    481e        .H      LDR      r0,[pc,#120] ; [0x32b0] = 0x20000640
        0x00003236:    3880        .8      SUBS     r0,r0,#0x80
        0x00003238:    6f80        .o      LDR      r0,[r0,#0x78]
        0x0000323a:    2101        .!      MOVS     r1,#1
        0x0000323c:    0509        ..      LSLS     r1,r1,#20
        0x0000323e:    4308        .C      ORRS     r0,r0,r1
        0x00003240:    491b        .I      LDR      r1,[pc,#108] ; [0x32b0] = 0x20000640
        0x00003242:    3980        .9      SUBS     r1,r1,#0x80
        0x00003244:    6788        .g      STR      r0,[r1,#0x78]
        0x00003246:    4770        pG      BX       lr
    disable_div_power_ASC
        0x00003248:    4819        .H      LDR      r0,[pc,#100] ; [0x32b0] = 0x20000640
        0x0000324a:    3880        .8      SUBS     r0,r0,#0x80
        0x0000324c:    6c00        .l      LDR      r0,[r0,#0x40]
        0x0000324e:    2109        .!      MOVS     r1,#9
        0x00003250:    06c9        ..      LSLS     r1,r1,#27
        0x00003252:    4388        .C      BICS     r0,r0,r1
        0x00003254:    4916        .I      LDR      r1,[pc,#88] ; [0x32b0] = 0x20000640
        0x00003256:    3980        .9      SUBS     r1,r1,#0x80
        0x00003258:    6408        .d      STR      r0,[r1,#0x40]
        0x0000325a:    4770        pG      BX       lr
    enable_div_power_ASC
        0x0000325c:    4814        .H      LDR      r0,[pc,#80] ; [0x32b0] = 0x20000640
        0x0000325e:    3880        .8      SUBS     r0,r0,#0x80
        0x00003260:    6c00        .l      LDR      r0,[r0,#0x40]
        0x00003262:    2109        .!      MOVS     r1,#9
        0x00003264:    06c9        ..      LSLS     r1,r1,#27
        0x00003266:    4308        .C      ORRS     r0,r0,r1
        0x00003268:    4911        .I      LDR      r1,[pc,#68] ; [0x32b0] = 0x20000640
        0x0000326a:    3980        .9      SUBS     r1,r1,#0x80
        0x0000326c:    6408        .d      STR      r0,[r1,#0x40]
        0x0000326e:    4770        pG      BX       lr
    ext_clk_ble_ASC
        0x00003270:    480f        .H      LDR      r0,[pc,#60] ; [0x32b0] = 0x20000640
        0x00003272:    6800        .h      LDR      r0,[r0,#0]
        0x00003274:    2101        .!      MOVS     r1,#1
        0x00003276:    04c9        ..      LSLS     r1,r1,#19
        0x00003278:    4308        .C      ORRS     r0,r0,r1
        0x0000327a:    490d        .I      LDR      r1,[pc,#52] ; [0x32b0] = 0x20000640
        0x0000327c:    6008        .`      STR      r0,[r1,#0]
        0x0000327e:    4770        pG      BX       lr
    int_clk_ble_ASC
        0x00003280:    480b        .H      LDR      r0,[pc,#44] ; [0x32b0] = 0x20000640
        0x00003282:    6800        .h      LDR      r0,[r0,#0]
        0x00003284:    2101        .!      MOVS     r1,#1
        0x00003286:    04c9        ..      LSLS     r1,r1,#19
        0x00003288:    4388        .C      BICS     r0,r0,r1
        0x0000328a:    4909        .I      LDR      r1,[pc,#36] ; [0x32b0] = 0x20000640
        0x0000328c:    6008        .`      STR      r0,[r1,#0]
        0x0000328e:    4770        pG      BX       lr
    enable_1mhz_ble_ASC
        0x00003290:    4807        .H      LDR      r0,[pc,#28] ; [0x32b0] = 0x20000640
        0x00003292:    6800        .h      LDR      r0,[r0,#0]
        0x00003294:    2103        .!      MOVS     r1,#3
        0x00003296:    0449        I.      LSLS     r1,r1,#17
        0x00003298:    4388        .C      BICS     r0,r0,r1
        0x0000329a:    4905        .I      LDR      r1,[pc,#20] ; [0x32b0] = 0x20000640
        0x0000329c:    6008        .`      STR      r0,[r1,#0]
        0x0000329e:    4770        pG      BX       lr
    disable_1mhz_ble_ASC
        0x000032a0:    4803        .H      LDR      r0,[pc,#12] ; [0x32b0] = 0x20000640
        0x000032a2:    6800        .h      LDR      r0,[r0,#0]
        0x000032a4:    2103        .!      MOVS     r1,#3
        0x000032a6:    0449        I.      LSLS     r1,r1,#17
        0x000032a8:    4308        .C      ORRS     r0,r0,r1
        0x000032aa:    4901        .I      LDR      r1,[pc,#4] ; [0x32b0] = 0x20000640
        0x000032ac:    6008        .`      STR      r0,[r1,#0]
        0x000032ae:    4770        pG      BX       lr
    $d
        0x000032b0:    20000640    @..     DCD    536872512
        0x000032b4:    8000001f    ....    DCD    2147483679
        0x000032b8:    0000ffff    ....    DCD    65535
        0x000032bc:    0000047b    {...    DCD    1147
        0x000032c0:    00000229    )...    DCD    553
        0x000032c4:    00003fff    .?..    DCD    16383
        0x000032c8:    0000c350    P...    DCD    50000
        0x000032cc:    52180000    ...R    DCD    1377304576
        0x000032d0:    521c0000    ...R    DCD    1377566720
        0x000032d4:    52040000    ...R    DCD    1375993856
        0x000032d8:    52200000    .. R    DCD    1377828864
        0x000032dc:    52240000    ..$R    DCD    1378091008
    $t
    .text
    matrix_init
        0x000032e0:    b5f8        ..      PUSH     {r3-r7,lr}
        0x000032e2:    4604        .F      MOV      r4,r0
        0x000032e4:    460d        .F      MOV      r5,r1
        0x000032e6:    4616        .F      MOV      r6,r2
        0x000032e8:    461f        .F      MOV      r7,r3
        0x000032ea:    2d00        .-      CMP      r5,#0
        0x000032ec:    d001        ..      BEQ      0x32f2 ; matrix_init + 18
        0x000032ee:    2e00        ..      CMP      r6,#0
        0x000032f0:    d101        ..      BNE      0x32f6 ; matrix_init + 22
        0x000032f2:    2000        .       MOVS     r0,#0
        0x000032f4:    bdf8        ..      POP      {r3-r7,pc}
        0x000032f6:    6025        %`      STR      r5,[r4,#0]
        0x000032f8:    6066        f`      STR      r6,[r4,#4]
        0x000032fa:    60a7        .`      STR      r7,[r4,#8]
        0x000032fc:    462a        *F      MOV      r2,r5
        0x000032fe:    4372        rC      MULS     r2,r6,r2
        0x00003300:    00d1        ..      LSLS     r1,r2,#3
        0x00003302:    68a0        .h      LDR      r0,[r4,#8]
        0x00003304:    f002f90e    ....    BL       __aeabi_memclr4 ; 0x5524
        0x00003308:    2001        .       MOVS     r0,#1
        0x0000330a:    e7f3        ..      B        0x32f4 ; matrix_init + 20
    matrix_num_rows
        0x0000330c:    4601        .F      MOV      r1,r0
        0x0000330e:    6808        .h      LDR      r0,[r1,#0]
        0x00003310:    4770        pG      BX       lr
    matrix_num_columns
        0x00003312:    4601        .F      MOV      r1,r0
        0x00003314:    6848        Hh      LDR      r0,[r1,#4]
        0x00003316:    4770        pG      BX       lr
    matrix_get
        0x00003318:    b5f8        ..      PUSH     {r3-r7,lr}
        0x0000331a:    4604        .F      MOV      r4,r0
        0x0000331c:    460e        .F      MOV      r6,r1
        0x0000331e:    4617        .F      MOV      r7,r2
        0x00003320:    461d        .F      MOV      r5,r3
        0x00003322:    463a        :F      MOV      r2,r7
        0x00003324:    4631        1F      MOV      r1,r6
        0x00003326:    4620         F      MOV      r0,r4
        0x00003328:    f000f99f    ....    BL       matrix_validate ; 0x366a
        0x0000332c:    2800        .(      CMP      r0,#0
        0x0000332e:    d100        ..      BNE      0x3332 ; matrix_get + 26
        0x00003330:    bdf8        ..      POP      {r3-r7,pc}
        0x00003332:    463a        :F      MOV      r2,r7
        0x00003334:    4631        1F      MOV      r1,r6
        0x00003336:    4620         F      MOV      r0,r4
        0x00003338:    f000f9a2    ....    BL       matrix_index ; 0x3680
        0x0000333c:    00c0        ..      LSLS     r0,r0,#3
        0x0000333e:    68a1        .h      LDR      r1,[r4,#8]
        0x00003340:    1808        ..      ADDS     r0,r1,r0
        0x00003342:    c803        ..      LDM      r0,{r0,r1}
        0x00003344:    6069        i`      STR      r1,[r5,#4]
        0x00003346:    6028        (`      STR      r0,[r5,#0]
        0x00003348:    2001        .       MOVS     r0,#1
        0x0000334a:    e7f1        ..      B        0x3330 ; matrix_get + 24
    matrix_set
        0x0000334c:    b5ff        ..      PUSH     {r0-r7,lr}
        0x0000334e:    b081        ..      SUB      sp,sp,#4
        0x00003350:    4604        .F      MOV      r4,r0
        0x00003352:    460f        .F      MOV      r7,r1
        0x00003354:    9e0b        ..      LDR      r6,[sp,#0x2c]
        0x00003356:    9d0a        ..      LDR      r5,[sp,#0x28]
        0x00003358:    4639        9F      MOV      r1,r7
        0x0000335a:    4620         F      MOV      r0,r4
        0x0000335c:    9a03        ..      LDR      r2,[sp,#0xc]
        0x0000335e:    f000f984    ....    BL       matrix_validate ; 0x366a
        0x00003362:    2800        .(      CMP      r0,#0
        0x00003364:    d101        ..      BNE      0x336a ; matrix_set + 30
        0x00003366:    b005        ..      ADD      sp,sp,#0x14
        0x00003368:    bdf0        ..      POP      {r4-r7,pc}
        0x0000336a:    4639        9F      MOV      r1,r7
        0x0000336c:    4620         F      MOV      r0,r4
        0x0000336e:    9a03        ..      LDR      r2,[sp,#0xc]
        0x00003370:    f000f986    ....    BL       matrix_index ; 0x3680
        0x00003374:    00c0        ..      LSLS     r0,r0,#3
        0x00003376:    68a1        .h      LDR      r1,[r4,#8]
        0x00003378:    1808        ..      ADDS     r0,r1,r0
        0x0000337a:    c060        `.      STM      r0!,{r5,r6}
        0x0000337c:    2001        .       MOVS     r0,#1
        0x0000337e:    e7f2        ..      B        0x3366 ; matrix_set + 26
    matrix_add
        0x00003380:    b5ff        ..      PUSH     {r0-r7,lr}
        0x00003382:    b087        ..      SUB      sp,sp,#0x1c
        0x00003384:    4605        .F      MOV      r5,r0
        0x00003386:    460e        .F      MOV      r6,r1
        0x00003388:    4617        .F      MOV      r7,r2
        0x0000338a:    6828        (h      LDR      r0,[r5,#0]
        0x0000338c:    9005        ..      STR      r0,[sp,#0x14]
        0x0000338e:    6868        hh      LDR      r0,[r5,#4]
        0x00003390:    9004        ..      STR      r0,[sp,#0x10]
        0x00003392:    6831        1h      LDR      r1,[r6,#0]
        0x00003394:    9805        ..      LDR      r0,[sp,#0x14]
        0x00003396:    4281        .B      CMP      r1,r0
        0x00003398:    d103        ..      BNE      0x33a2 ; matrix_add + 34
        0x0000339a:    6871        qh      LDR      r1,[r6,#4]
        0x0000339c:    9804        ..      LDR      r0,[sp,#0x10]
        0x0000339e:    4281        .B      CMP      r1,r0
        0x000033a0:    d002        ..      BEQ      0x33a8 ; matrix_add + 40
        0x000033a2:    2000        .       MOVS     r0,#0
        0x000033a4:    b00b        ..      ADD      sp,sp,#0x2c
        0x000033a6:    bdf0        ..      POP      {r4-r7,pc}
        0x000033a8:    4638        8F      MOV      r0,r7
        0x000033aa:    9b0a        ..      LDR      r3,[sp,#0x28]
        0x000033ac:    9a04        ..      LDR      r2,[sp,#0x10]
        0x000033ae:    9905        ..      LDR      r1,[sp,#0x14]
        0x000033b0:    f7ffff96    ....    BL       matrix_init ; 0x32e0
        0x000033b4:    2800        .(      CMP      r0,#0
        0x000033b6:    d100        ..      BNE      0x33ba ; matrix_add + 58
        0x000033b8:    e7f4        ..      B        0x33a4 ; matrix_add + 36
        0x000033ba:    2400        .$      MOVS     r4,#0
        0x000033bc:    e014        ..      B        0x33e8 ; matrix_add + 104
        0x000033be:    00e1        ..      LSLS     r1,r4,#3
        0x000033c0:    68b0        .h      LDR      r0,[r6,#8]
        0x000033c2:    1840        @.      ADDS     r0,r0,r1
        0x000033c4:    c803        ..      LDM      r0,{r0,r1}
        0x000033c6:    9103        ..      STR      r1,[sp,#0xc]
        0x000033c8:    9002        ..      STR      r0,[sp,#8]
        0x000033ca:    00e1        ..      LSLS     r1,r4,#3
        0x000033cc:    68a8        .h      LDR      r0,[r5,#8]
        0x000033ce:    1841        A.      ADDS     r1,r0,r1
        0x000033d0:    c903        ..      LDM      r1,{r0,r1}
        0x000033d2:    9101        ..      STR      r1,[sp,#4]
        0x000033d4:    9000        ..      STR      r0,[sp,#0]
        0x000033d6:    9b03        ..      LDR      r3,[sp,#0xc]
        0x000033d8:    9a02        ..      LDR      r2,[sp,#8]
        0x000033da:    f000f8cf    ....    BL       fixed_point_add ; 0x357c
        0x000033de:    00e3        ..      LSLS     r3,r4,#3
        0x000033e0:    68ba        .h      LDR      r2,[r7,#8]
        0x000033e2:    18d2        ..      ADDS     r2,r2,r3
        0x000033e4:    c203        ..      STM      r2!,{r0,r1}
        0x000033e6:    1c64        d.      ADDS     r4,r4,#1
        0x000033e8:    9904        ..      LDR      r1,[sp,#0x10]
        0x000033ea:    9805        ..      LDR      r0,[sp,#0x14]
        0x000033ec:    4348        HC      MULS     r0,r1,r0
        0x000033ee:    42a0        .B      CMP      r0,r4
        0x000033f0:    d8e5        ..      BHI      0x33be ; matrix_add + 62
        0x000033f2:    2001        .       MOVS     r0,#1
        0x000033f4:    e7d6        ..      B        0x33a4 ; matrix_add + 36
    matrix_multiply
        0x000033f6:    b5ff        ..      PUSH     {r0-r7,lr}
        0x000033f8:    b08d        ..      SUB      sp,sp,#0x34
        0x000033fa:    4607        .F      MOV      r7,r0
        0x000033fc:    460c        .F      MOV      r4,r1
        0x000033fe:    6838        8h      LDR      r0,[r7,#0]
        0x00003400:    900b        ..      STR      r0,[sp,#0x2c]
        0x00003402:    6860        `h      LDR      r0,[r4,#4]
        0x00003404:    900a        ..      STR      r0,[sp,#0x28]
        0x00003406:    6878        xh      LDR      r0,[r7,#4]
        0x00003408:    9009        ..      STR      r0,[sp,#0x24]
        0x0000340a:    6821        !h      LDR      r1,[r4,#0]
        0x0000340c:    9809        ..      LDR      r0,[sp,#0x24]
        0x0000340e:    4281        .B      CMP      r1,r0
        0x00003410:    d002        ..      BEQ      0x3418 ; matrix_multiply + 34
        0x00003412:    2000        .       MOVS     r0,#0
        0x00003414:    b011        ..      ADD      sp,sp,#0x44
        0x00003416:    bdf0        ..      POP      {r4-r7,pc}
        0x00003418:    9b10        ..      LDR      r3,[sp,#0x40]
        0x0000341a:    9a0a        ..      LDR      r2,[sp,#0x28]
        0x0000341c:    990b        ..      LDR      r1,[sp,#0x2c]
        0x0000341e:    980f        ..      LDR      r0,[sp,#0x3c]
        0x00003420:    f7ffff5e    ..^.    BL       matrix_init ; 0x32e0
        0x00003424:    2800        .(      CMP      r0,#0
        0x00003426:    d104        ..      BNE      0x3432 ; matrix_multiply + 60
        0x00003428:    a098        ..      ADR      r0,{pc}+0x264 ; 0x368c
        0x0000342a:    f001ff15    ....    BL       __2printf ; 0x5258
        0x0000342e:    2000        .       MOVS     r0,#0
        0x00003430:    e7f0        ..      B        0x3414 ; matrix_multiply + 30
        0x00003432:    2000        .       MOVS     r0,#0
        0x00003434:    9008        ..      STR      r0,[sp,#0x20]
        0x00003436:    e04c        L.      B        0x34d2 ; matrix_multiply + 220
        0x00003438:    2000        .       MOVS     r0,#0
        0x0000343a:    9007        ..      STR      r0,[sp,#0x1c]
        0x0000343c:    e042        B.      B        0x34c4 ; matrix_multiply + 206
        0x0000343e:    2000        .       MOVS     r0,#0
        0x00003440:    9006        ..      STR      r0,[sp,#0x18]
        0x00003442:    e038        8.      B        0x34b6 ; matrix_multiply + 192
        0x00003444:    4620         F      MOV      r0,r4
        0x00003446:    9a07        ..      LDR      r2,[sp,#0x1c]
        0x00003448:    9906        ..      LDR      r1,[sp,#0x18]
        0x0000344a:    f000f919    ....    BL       matrix_index ; 0x3680
        0x0000344e:    00c0        ..      LSLS     r0,r0,#3
        0x00003450:    68a1        .h      LDR      r1,[r4,#8]
        0x00003452:    1808        ..      ADDS     r0,r1,r0
        0x00003454:    c860        `.      LDM      r0!,{r5,r6}
        0x00003456:    4638        8F      MOV      r0,r7
        0x00003458:    9a06        ..      LDR      r2,[sp,#0x18]
        0x0000345a:    9908        ..      LDR      r1,[sp,#0x20]
        0x0000345c:    f000f910    ....    BL       matrix_index ; 0x3680
        0x00003460:    00c0        ..      LSLS     r0,r0,#3
        0x00003462:    68b9        .h      LDR      r1,[r7,#8]
        0x00003464:    1808        ..      ADDS     r0,r1,r0
        0x00003466:    c803        ..      LDM      r0,{r0,r1}
        0x00003468:    462a        *F      MOV      r2,r5
        0x0000346a:    4633        3F      MOV      r3,r6
        0x0000346c:    9101        ..      STR      r1,[sp,#4]
        0x0000346e:    9000        ..      STR      r0,[sp,#0]
        0x00003470:    f000f88b    ....    BL       fixed_point_multiply ; 0x358a
        0x00003474:    9105        ..      STR      r1,[sp,#0x14]
        0x00003476:    9004        ..      STR      r0,[sp,#0x10]
        0x00003478:    9a07        ..      LDR      r2,[sp,#0x1c]
        0x0000347a:    9908        ..      LDR      r1,[sp,#0x20]
        0x0000347c:    980f        ..      LDR      r0,[sp,#0x3c]
        0x0000347e:    f000f8ff    ....    BL       matrix_index ; 0x3680
        0x00003482:    00c1        ..      LSLS     r1,r0,#3
        0x00003484:    980f        ..      LDR      r0,[sp,#0x3c]
        0x00003486:    6880        .h      LDR      r0,[r0,#8]
        0x00003488:    1840        @.      ADDS     r0,r0,r1
        0x0000348a:    c803        ..      LDM      r0,{r0,r1}
        0x0000348c:    9103        ..      STR      r1,[sp,#0xc]
        0x0000348e:    9002        ..      STR      r0,[sp,#8]
        0x00003490:    9b05        ..      LDR      r3,[sp,#0x14]
        0x00003492:    9a04        ..      LDR      r2,[sp,#0x10]
        0x00003494:    f000f872    ..r.    BL       fixed_point_add ; 0x357c
        0x00003498:    4605        .F      MOV      r5,r0
        0x0000349a:    460e        .F      MOV      r6,r1
        0x0000349c:    9a07        ..      LDR      r2,[sp,#0x1c]
        0x0000349e:    9908        ..      LDR      r1,[sp,#0x20]
        0x000034a0:    980f        ..      LDR      r0,[sp,#0x3c]
        0x000034a2:    f000f8ed    ....    BL       matrix_index ; 0x3680
        0x000034a6:    00c1        ..      LSLS     r1,r0,#3
        0x000034a8:    980f        ..      LDR      r0,[sp,#0x3c]
        0x000034aa:    6880        .h      LDR      r0,[r0,#8]
        0x000034ac:    1840        @.      ADDS     r0,r0,r1
        0x000034ae:    c060        `.      STM      r0!,{r5,r6}
        0x000034b0:    9806        ..      LDR      r0,[sp,#0x18]
        0x000034b2:    1c40        @.      ADDS     r0,r0,#1
        0x000034b4:    9006        ..      STR      r0,[sp,#0x18]
        0x000034b6:    9909        ..      LDR      r1,[sp,#0x24]
        0x000034b8:    9806        ..      LDR      r0,[sp,#0x18]
        0x000034ba:    4288        .B      CMP      r0,r1
        0x000034bc:    d3c2        ..      BCC      0x3444 ; matrix_multiply + 78
        0x000034be:    9807        ..      LDR      r0,[sp,#0x1c]
        0x000034c0:    1c40        @.      ADDS     r0,r0,#1
        0x000034c2:    9007        ..      STR      r0,[sp,#0x1c]
        0x000034c4:    990a        ..      LDR      r1,[sp,#0x28]
        0x000034c6:    9807        ..      LDR      r0,[sp,#0x1c]
        0x000034c8:    4288        .B      CMP      r0,r1
        0x000034ca:    d3b8        ..      BCC      0x343e ; matrix_multiply + 72
        0x000034cc:    9808        ..      LDR      r0,[sp,#0x20]
        0x000034ce:    1c40        @.      ADDS     r0,r0,#1
        0x000034d0:    9008        ..      STR      r0,[sp,#0x20]
        0x000034d2:    990b        ..      LDR      r1,[sp,#0x2c]
        0x000034d4:    9808        ..      LDR      r0,[sp,#0x20]
        0x000034d6:    4288        .B      CMP      r0,r1
        0x000034d8:    d3ae        ..      BCC      0x3438 ; matrix_multiply + 66
        0x000034da:    2001        .       MOVS     r0,#1
        0x000034dc:    e79a        ..      B        0x3414 ; matrix_multiply + 30
    matrix_copy
        0x000034de:    b5fe        ..      PUSH     {r1-r7,lr}
        0x000034e0:    4604        .F      MOV      r4,r0
        0x000034e2:    460d        .F      MOV      r5,r1
        0x000034e4:    4616        .F      MOV      r6,r2
        0x000034e6:    6827        'h      LDR      r7,[r4,#0]
        0x000034e8:    6860        `h      LDR      r0,[r4,#4]
        0x000034ea:    9001        ..      STR      r0,[sp,#4]
        0x000034ec:    9801        ..      LDR      r0,[sp,#4]
        0x000034ee:    4378        xC      MULS     r0,r7,r0
        0x000034f0:    9000        ..      STR      r0,[sp,#0]
        0x000034f2:    4633        3F      MOV      r3,r6
        0x000034f4:    4639        9F      MOV      r1,r7
        0x000034f6:    4628        (F      MOV      r0,r5
        0x000034f8:    9a01        ..      LDR      r2,[sp,#4]
        0x000034fa:    f7fffef1    ....    BL       matrix_init ; 0x32e0
        0x000034fe:    2800        .(      CMP      r0,#0
        0x00003500:    d100        ..      BNE      0x3504 ; matrix_copy + 38
        0x00003502:    bdfe        ..      POP      {r1-r7,pc}
        0x00003504:    9b00        ..      LDR      r3,[sp,#0]
        0x00003506:    00da        ..      LSLS     r2,r3,#3
        0x00003508:    68a1        .h      LDR      r1,[r4,#8]
        0x0000350a:    68a8        .h      LDR      r0,[r5,#8]
        0x0000350c:    f7fcfe26    ..&.    BL       __aeabi_memcpy4 ; 0x15c
        0x00003510:    2001        .       MOVS     r0,#1
        0x00003512:    e7f6        ..      B        0x3502 ; matrix_copy + 36
    matrix_transpose
        0x00003514:    b5f7        ..      PUSH     {r0-r2,r4-r7,lr}
        0x00003516:    b086        ..      SUB      sp,sp,#0x18
        0x00003518:    4606        .F      MOV      r6,r0
        0x0000351a:    460f        .F      MOV      r7,r1
        0x0000351c:    6830        0h      LDR      r0,[r6,#0]
        0x0000351e:    9005        ..      STR      r0,[sp,#0x14]
        0x00003520:    6870        ph      LDR      r0,[r6,#4]
        0x00003522:    9004        ..      STR      r0,[sp,#0x10]
        0x00003524:    4638        8F      MOV      r0,r7
        0x00003526:    9b08        ..      LDR      r3,[sp,#0x20]
        0x00003528:    9a05        ..      LDR      r2,[sp,#0x14]
        0x0000352a:    9904        ..      LDR      r1,[sp,#0x10]
        0x0000352c:    f7fffed8    ....    BL       matrix_init ; 0x32e0
        0x00003530:    2800        .(      CMP      r0,#0
        0x00003532:    d101        ..      BNE      0x3538 ; matrix_transpose + 36
        0x00003534:    b009        ..      ADD      sp,sp,#0x24
        0x00003536:    bdf0        ..      POP      {r4-r7,pc}
        0x00003538:    2000        .       MOVS     r0,#0
        0x0000353a:    0501        ..      LSLS     r1,r0,#20
        0x0000353c:    17ca        ..      ASRS     r2,r1,#31
        0x0000353e:    9203        ..      STR      r2,[sp,#0xc]
        0x00003540:    9102        ..      STR      r1,[sp,#8]
        0x00003542:    2400        .$      MOVS     r4,#0
        0x00003544:    e015        ..      B        0x3572 ; matrix_transpose + 94
        0x00003546:    2500        .%      MOVS     r5,#0
        0x00003548:    e00f        ..      B        0x356a ; matrix_transpose + 86
        0x0000354a:    ab02        ..      ADD      r3,sp,#8
        0x0000354c:    462a        *F      MOV      r2,r5
        0x0000354e:    4621        !F      MOV      r1,r4
        0x00003550:    4630        0F      MOV      r0,r6
        0x00003552:    f7fffee1    ....    BL       matrix_get ; 0x3318
        0x00003556:    9903        ..      LDR      r1,[sp,#0xc]
        0x00003558:    9802        ..      LDR      r0,[sp,#8]
        0x0000355a:    4622        "F      MOV      r2,r4
        0x0000355c:    9101        ..      STR      r1,[sp,#4]
        0x0000355e:    9000        ..      STR      r0,[sp,#0]
        0x00003560:    4629        )F      MOV      r1,r5
        0x00003562:    4638        8F      MOV      r0,r7
        0x00003564:    f7fffef2    ....    BL       matrix_set ; 0x334c
        0x00003568:    1c6d        m.      ADDS     r5,r5,#1
        0x0000356a:    9804        ..      LDR      r0,[sp,#0x10]
        0x0000356c:    4285        .B      CMP      r5,r0
        0x0000356e:    d3ec        ..      BCC      0x354a ; matrix_transpose + 54
        0x00003570:    1c64        d.      ADDS     r4,r4,#1
        0x00003572:    9805        ..      LDR      r0,[sp,#0x14]
        0x00003574:    4284        .B      CMP      r4,r0
        0x00003576:    d3e6        ..      BCC      0x3546 ; matrix_transpose + 50
        0x00003578:    2001        .       MOVS     r0,#1
        0x0000357a:    e7db        ..      B        0x3534 ; matrix_transpose + 32
    fixed_point_add
        0x0000357c:    b530        0.      PUSH     {r4,r5,lr}
        0x0000357e:    4604        .F      MOV      r4,r0
        0x00003580:    460d        .F      MOV      r5,r1
        0x00003582:    18a0        ..      ADDS     r0,r4,r2
        0x00003584:    4629        )F      MOV      r1,r5
        0x00003586:    4159        YA      ADCS     r1,r1,r3
        0x00003588:    bd30        0.      POP      {r4,r5,pc}
    fixed_point_multiply
        0x0000358a:    b5f0        ..      PUSH     {r4-r7,lr}
        0x0000358c:    b41f        ..      PUSH     {r0-r4}
        0x0000358e:    b08c        ..      SUB      sp,sp,#0x30
        0x00003590:    4604        .F      MOV      r4,r0
        0x00003592:    460d        .F      MOV      r5,r1
        0x00003594:    2000        .       MOVS     r0,#0
        0x00003596:    4601        .F      MOV      r1,r0
        0x00003598:    1b00        ..      SUBS     r0,r0,r4
        0x0000359a:    41a9        .A      SBCS     r1,r1,r5
        0x0000359c:    da02        ..      BGE      0x35a4 ; fixed_point_multiply + 26
        0x0000359e:    4620         F      MOV      r0,r4
        0x000035a0:    4629        )F      MOV      r1,r5
        0x000035a2:    e002        ..      B        0x35aa ; fixed_point_multiply + 32
        0x000035a4:    2100        .!      MOVS     r1,#0
        0x000035a6:    4260        `B      RSBS     r0,r4,#0
        0x000035a8:    41a9        .A      SBCS     r1,r1,r5
        0x000035aa:    9107        ..      STR      r1,[sp,#0x1c]
        0x000035ac:    9006        ..      STR      r0,[sp,#0x18]
        0x000035ae:    2200        ."      MOVS     r2,#0
        0x000035b0:    4613        .F      MOV      r3,r2
        0x000035b2:    990e        ..      LDR      r1,[sp,#0x38]
        0x000035b4:    980f        ..      LDR      r0,[sp,#0x3c]
        0x000035b6:    1a51        Q.      SUBS     r1,r2,r1
        0x000035b8:    4183        .A      SBCS     r3,r3,r0
        0x000035ba:    da02        ..      BGE      0x35c2 ; fixed_point_multiply + 56
        0x000035bc:    990f        ..      LDR      r1,[sp,#0x3c]
        0x000035be:    980e        ..      LDR      r0,[sp,#0x38]
        0x000035c0:    e005        ..      B        0x35ce ; fixed_point_multiply + 68
        0x000035c2:    2100        .!      MOVS     r1,#0
        0x000035c4:    9a0e        ..      LDR      r2,[sp,#0x38]
        0x000035c6:    980f        ..      LDR      r0,[sp,#0x3c]
        0x000035c8:    4252        RB      RSBS     r2,r2,#0
        0x000035ca:    4181        .A      SBCS     r1,r1,r0
        0x000035cc:    4610        .F      MOV      r0,r2
        0x000035ce:    9105        ..      STR      r1,[sp,#0x14]
        0x000035d0:    9004        ..      STR      r0,[sp,#0x10]
        0x000035d2:    2100        .!      MOVS     r1,#0
        0x000035d4:    9102        ..      STR      r1,[sp,#8]
        0x000035d6:    9103        ..      STR      r1,[sp,#0xc]
        0x000035d8:    2700        .'      MOVS     r7,#0
        0x000035da:    e01c        ..      B        0x3616 ; fixed_point_multiply + 140
        0x000035dc:    463a        :F      MOV      r2,r7
        0x000035de:    9e04        ..      LDR      r6,[sp,#0x10]
        0x000035e0:    9805        ..      LDR      r0,[sp,#0x14]
        0x000035e2:    9009        ..      STR      r0,[sp,#0x24]
        0x000035e4:    4630        0F      MOV      r0,r6
        0x000035e6:    9909        ..      LDR      r1,[sp,#0x24]
        0x000035e8:    f001fdeb    ....    BL       __aeabi_lasr ; 0x51c2
        0x000035ec:    2301        .#      MOVS     r3,#1
        0x000035ee:    4018        .@      ANDS     r0,r0,r3
        0x000035f0:    2100        .!      MOVS     r1,#0
        0x000035f2:    4048        H@      EORS     r0,r0,r1
        0x000035f4:    4049        I@      EORS     r1,r1,r1
        0x000035f6:    4308        .C      ORRS     r0,r0,r1
        0x000035f8:    d00c        ..      BEQ      0x3614 ; fixed_point_multiply + 138
        0x000035fa:    463a        :F      MOV      r2,r7
        0x000035fc:    9907        ..      LDR      r1,[sp,#0x1c]
        0x000035fe:    9806        ..      LDR      r0,[sp,#0x18]
        0x00003600:    910a        ..      STR      r1,[sp,#0x28]
        0x00003602:    900b        ..      STR      r0,[sp,#0x2c]
        0x00003604:    f001fdcd    ....    BL       __aeabi_llsl ; 0x51a2
        0x00003608:    9b03        ..      LDR      r3,[sp,#0xc]
        0x0000360a:    9a02        ..      LDR      r2,[sp,#8]
        0x0000360c:    1880        ..      ADDS     r0,r0,r2
        0x0000360e:    4159        YA      ADCS     r1,r1,r3
        0x00003610:    9103        ..      STR      r1,[sp,#0xc]
        0x00003612:    9002        ..      STR      r0,[sp,#8]
        0x00003614:    1c7f        ..      ADDS     r7,r7,#1
        0x00003616:    2f40        @/      CMP      r7,#0x40
        0x00003618:    d3e0        ..      BCC      0x35dc ; fixed_point_multiply + 82
        0x0000361a:    9903        ..      LDR      r1,[sp,#0xc]
        0x0000361c:    030a        ..      LSLS     r2,r1,#12
        0x0000361e:    9802        ..      LDR      r0,[sp,#8]
        0x00003620:    0d00        ..      LSRS     r0,r0,#20
        0x00003622:    4310        .C      ORRS     r0,r0,r2
        0x00003624:    1509        ..      ASRS     r1,r1,#20
        0x00003626:    9101        ..      STR      r1,[sp,#4]
        0x00003628:    9000        ..      STR      r0,[sp,#0]
        0x0000362a:    2100        .!      MOVS     r1,#0
        0x0000362c:    4608        .F      MOV      r0,r1
        0x0000362e:    462a        *F      MOV      r2,r5
        0x00003630:    1a61        a.      SUBS     r1,r4,r1
        0x00003632:    4182        .A      SBCS     r2,r2,r0
        0x00003634:    da01        ..      BGE      0x363a ; fixed_point_multiply + 176
        0x00003636:    2201        ."      MOVS     r2,#1
        0x00003638:    e000        ..      B        0x363c ; fixed_point_multiply + 178
        0x0000363a:    2200        ."      MOVS     r2,#0
        0x0000363c:    2700        .'      MOVS     r7,#0
        0x0000363e:    990f        ..      LDR      r1,[sp,#0x3c]
        0x00003640:    980e        ..      LDR      r0,[sp,#0x38]
        0x00003642:    1bc0        ..      SUBS     r0,r0,r7
        0x00003644:    41b9        .A      SBCS     r1,r1,r7
        0x00003646:    da01        ..      BGE      0x364c ; fixed_point_multiply + 194
        0x00003648:    2001        .       MOVS     r0,#1
        0x0000364a:    e000        ..      B        0x364e ; fixed_point_multiply + 196
        0x0000364c:    2000        .       MOVS     r0,#0
        0x0000364e:    4042        B@      EORS     r2,r2,r0
        0x00003650:    2a00        .*      CMP      r2,#0
        0x00003652:    d007        ..      BEQ      0x3664 ; fixed_point_multiply + 218
        0x00003654:    2200        ."      MOVS     r2,#0
        0x00003656:    9901        ..      LDR      r1,[sp,#4]
        0x00003658:    9800        ..      LDR      r0,[sp,#0]
        0x0000365a:    4240        @B      RSBS     r0,r0,#0
        0x0000365c:    418a        .A      SBCS     r2,r2,r1
        0x0000365e:    4611        .F      MOV      r1,r2
        0x00003660:    b011        ..      ADD      sp,sp,#0x44
        0x00003662:    bdf0        ..      POP      {r4-r7,pc}
        0x00003664:    9901        ..      LDR      r1,[sp,#4]
        0x00003666:    9800        ..      LDR      r0,[sp,#0]
        0x00003668:    e7fa        ..      B        0x3660 ; fixed_point_multiply + 214
    matrix_validate
        0x0000366a:    4603        .F      MOV      r3,r0
        0x0000366c:    6818        .h      LDR      r0,[r3,#0]
        0x0000366e:    4288        .B      CMP      r0,r1
        0x00003670:    d904        ..      BLS      0x367c ; matrix_validate + 18
        0x00003672:    6858        Xh      LDR      r0,[r3,#4]
        0x00003674:    4290        .B      CMP      r0,r2
        0x00003676:    d901        ..      BLS      0x367c ; matrix_validate + 18
        0x00003678:    2001        .       MOVS     r0,#1
        0x0000367a:    4770        pG      BX       lr
        0x0000367c:    2000        .       MOVS     r0,#0
        0x0000367e:    e7fc        ..      B        0x367a ; matrix_validate + 16
    matrix_index
        0x00003680:    4603        .F      MOV      r3,r0
        0x00003682:    6858        Xh      LDR      r0,[r3,#4]
        0x00003684:    4348        HC      MULS     r0,r1,r0
        0x00003686:    1880        ..      ADDS     r0,r0,r2
        0x00003688:    4770        pG      BX       lr
    $d
        0x0000368a:    0000        ..      DCW    0
        0x0000368c:    7274616d    matr    DCD    1920229741
        0x00003690:    6d207869    ix m    DCD    1830844521
        0x00003694:    69746c75    ulti    DCD    1769237621
        0x00003698:    0a796c70    ply.    DCD    175729776
        0x0000369c:    00000000    ....    DCD    0
    $t
    .text
    fixed_point_multiply
        0x000036a0:    b5f0        ..      PUSH     {r4-r7,lr}
        0x000036a2:    b41f        ..      PUSH     {r0-r4}
        0x000036a4:    b08c        ..      SUB      sp,sp,#0x30
        0x000036a6:    4604        .F      MOV      r4,r0
        0x000036a8:    460d        .F      MOV      r5,r1
        0x000036aa:    2000        .       MOVS     r0,#0
        0x000036ac:    4601        .F      MOV      r1,r0
        0x000036ae:    1b00        ..      SUBS     r0,r0,r4
        0x000036b0:    41a9        .A      SBCS     r1,r1,r5
        0x000036b2:    da02        ..      BGE      0x36ba ; fixed_point_multiply + 26
        0x000036b4:    4620         F      MOV      r0,r4
        0x000036b6:    4629        )F      MOV      r1,r5
        0x000036b8:    e002        ..      B        0x36c0 ; fixed_point_multiply + 32
        0x000036ba:    2100        .!      MOVS     r1,#0
        0x000036bc:    4260        `B      RSBS     r0,r4,#0
        0x000036be:    41a9        .A      SBCS     r1,r1,r5
        0x000036c0:    9107        ..      STR      r1,[sp,#0x1c]
        0x000036c2:    9006        ..      STR      r0,[sp,#0x18]
        0x000036c4:    2200        ."      MOVS     r2,#0
        0x000036c6:    4613        .F      MOV      r3,r2
        0x000036c8:    990e        ..      LDR      r1,[sp,#0x38]
        0x000036ca:    980f        ..      LDR      r0,[sp,#0x3c]
        0x000036cc:    1a51        Q.      SUBS     r1,r2,r1
        0x000036ce:    4183        .A      SBCS     r3,r3,r0
        0x000036d0:    da02        ..      BGE      0x36d8 ; fixed_point_multiply + 56
        0x000036d2:    990f        ..      LDR      r1,[sp,#0x3c]
        0x000036d4:    980e        ..      LDR      r0,[sp,#0x38]
        0x000036d6:    e005        ..      B        0x36e4 ; fixed_point_multiply + 68
        0x000036d8:    2100        .!      MOVS     r1,#0
        0x000036da:    9a0e        ..      LDR      r2,[sp,#0x38]
        0x000036dc:    980f        ..      LDR      r0,[sp,#0x3c]
        0x000036de:    4252        RB      RSBS     r2,r2,#0
        0x000036e0:    4181        .A      SBCS     r1,r1,r0
        0x000036e2:    4610        .F      MOV      r0,r2
        0x000036e4:    9105        ..      STR      r1,[sp,#0x14]
        0x000036e6:    9004        ..      STR      r0,[sp,#0x10]
        0x000036e8:    2100        .!      MOVS     r1,#0
        0x000036ea:    9102        ..      STR      r1,[sp,#8]
        0x000036ec:    9103        ..      STR      r1,[sp,#0xc]
        0x000036ee:    2700        .'      MOVS     r7,#0
        0x000036f0:    e01c        ..      B        0x372c ; fixed_point_multiply + 140
        0x000036f2:    463a        :F      MOV      r2,r7
        0x000036f4:    9e04        ..      LDR      r6,[sp,#0x10]
        0x000036f6:    9805        ..      LDR      r0,[sp,#0x14]
        0x000036f8:    9009        ..      STR      r0,[sp,#0x24]
        0x000036fa:    4630        0F      MOV      r0,r6
        0x000036fc:    9909        ..      LDR      r1,[sp,#0x24]
        0x000036fe:    f001fd60    ..`.    BL       __aeabi_lasr ; 0x51c2
        0x00003702:    2301        .#      MOVS     r3,#1
        0x00003704:    4018        .@      ANDS     r0,r0,r3
        0x00003706:    2100        .!      MOVS     r1,#0
        0x00003708:    4048        H@      EORS     r0,r0,r1
        0x0000370a:    4049        I@      EORS     r1,r1,r1
        0x0000370c:    4308        .C      ORRS     r0,r0,r1
        0x0000370e:    d00c        ..      BEQ      0x372a ; fixed_point_multiply + 138
        0x00003710:    463a        :F      MOV      r2,r7
        0x00003712:    9907        ..      LDR      r1,[sp,#0x1c]
        0x00003714:    9806        ..      LDR      r0,[sp,#0x18]
        0x00003716:    910a        ..      STR      r1,[sp,#0x28]
        0x00003718:    900b        ..      STR      r0,[sp,#0x2c]
        0x0000371a:    f001fd42    ..B.    BL       __aeabi_llsl ; 0x51a2
        0x0000371e:    9b03        ..      LDR      r3,[sp,#0xc]
        0x00003720:    9a02        ..      LDR      r2,[sp,#8]
        0x00003722:    1880        ..      ADDS     r0,r0,r2
        0x00003724:    4159        YA      ADCS     r1,r1,r3
        0x00003726:    9103        ..      STR      r1,[sp,#0xc]
        0x00003728:    9002        ..      STR      r0,[sp,#8]
        0x0000372a:    1c7f        ..      ADDS     r7,r7,#1
        0x0000372c:    2f40        @/      CMP      r7,#0x40
        0x0000372e:    d3e0        ..      BCC      0x36f2 ; fixed_point_multiply + 82
        0x00003730:    9903        ..      LDR      r1,[sp,#0xc]
        0x00003732:    030a        ..      LSLS     r2,r1,#12
        0x00003734:    9802        ..      LDR      r0,[sp,#8]
        0x00003736:    0d00        ..      LSRS     r0,r0,#20
        0x00003738:    4310        .C      ORRS     r0,r0,r2
        0x0000373a:    1509        ..      ASRS     r1,r1,#20
        0x0000373c:    9101        ..      STR      r1,[sp,#4]
        0x0000373e:    9000        ..      STR      r0,[sp,#0]
        0x00003740:    2100        .!      MOVS     r1,#0
        0x00003742:    4608        .F      MOV      r0,r1
        0x00003744:    462a        *F      MOV      r2,r5
        0x00003746:    1a61        a.      SUBS     r1,r4,r1
        0x00003748:    4182        .A      SBCS     r2,r2,r0
        0x0000374a:    da01        ..      BGE      0x3750 ; fixed_point_multiply + 176
        0x0000374c:    2201        ."      MOVS     r2,#1
        0x0000374e:    e000        ..      B        0x3752 ; fixed_point_multiply + 178
        0x00003750:    2200        ."      MOVS     r2,#0
        0x00003752:    2700        .'      MOVS     r7,#0
        0x00003754:    990f        ..      LDR      r1,[sp,#0x3c]
        0x00003756:    980e        ..      LDR      r0,[sp,#0x38]
        0x00003758:    1bc0        ..      SUBS     r0,r0,r7
        0x0000375a:    41b9        .A      SBCS     r1,r1,r7
        0x0000375c:    da01        ..      BGE      0x3762 ; fixed_point_multiply + 194
        0x0000375e:    2001        .       MOVS     r0,#1
        0x00003760:    e000        ..      B        0x3764 ; fixed_point_multiply + 196
        0x00003762:    2000        .       MOVS     r0,#0
        0x00003764:    4042        B@      EORS     r2,r2,r0
        0x00003766:    2a00        .*      CMP      r2,#0
        0x00003768:    d007        ..      BEQ      0x377a ; fixed_point_multiply + 218
        0x0000376a:    2200        ."      MOVS     r2,#0
        0x0000376c:    9901        ..      LDR      r1,[sp,#4]
        0x0000376e:    9800        ..      LDR      r0,[sp,#0]
        0x00003770:    4240        @B      RSBS     r0,r0,#0
        0x00003772:    418a        .A      SBCS     r2,r2,r1
        0x00003774:    4611        .F      MOV      r1,r2
        0x00003776:    b011        ..      ADD      sp,sp,#0x44
        0x00003778:    bdf0        ..      POP      {r4-r7,pc}
        0x0000377a:    9901        ..      LDR      r1,[sp,#4]
        0x0000377c:    9800        ..      LDR      r0,[sp,#0]
        0x0000377e:    e7fa        ..      B        0x3776 ; fixed_point_multiply + 214
    svd_init
        0x00003780:    b510        ..      PUSH     {r4,lr}
        0x00003782:    4601        .F      MOV      r1,r0
        0x00003784:    48fb        .H      LDR      r0,[pc,#1004] ; [0x3b74] = 0x20000690
        0x00003786:    460a        .F      MOV      r2,r1
        0x00003788:    ca1c        ..      LDM      r2,{r2-r4}
        0x0000378a:    c01c        ..      STM      r0!,{r2-r4}
        0x0000378c:    2001        .       MOVS     r0,#1
        0x0000378e:    bd10        ..      POP      {r4,pc}
    cross_product
        0x00003790:    b5f0        ..      PUSH     {r4-r7,lr}
        0x00003792:    b091        ..      SUB      sp,sp,#0x44
        0x00003794:    4604        .F      MOV      r4,r0
        0x00003796:    460f        .F      MOV      r7,r1
        0x00003798:    6820         h      LDR      r0,[r4,#0]
        0x0000379a:    2803        .(      CMP      r0,#3
        0x0000379c:    d002        ..      BEQ      0x37a4 ; cross_product + 20
        0x0000379e:    2000        .       MOVS     r0,#0
        0x000037a0:    b011        ..      ADD      sp,sp,#0x44
        0x000037a2:    bdf0        ..      POP      {r4-r7,pc}
        0x000037a4:    2000        .       MOVS     r0,#0
        0x000037a6:    f000fb25    ..%.    BL       fixed_point_init ; 0x3df4
        0x000037aa:    910f        ..      STR      r1,[sp,#0x3c]
        0x000037ac:    900e        ..      STR      r0,[sp,#0x38]
        0x000037ae:    2000        .       MOVS     r0,#0
        0x000037b0:    f000fb20    .. .    BL       fixed_point_init ; 0x3df4
        0x000037b4:    910d        ..      STR      r1,[sp,#0x34]
        0x000037b6:    900c        ..      STR      r0,[sp,#0x30]
        0x000037b8:    2000        .       MOVS     r0,#0
        0x000037ba:    f000fb1b    ....    BL       fixed_point_init ; 0x3df4
        0x000037be:    910b        ..      STR      r1,[sp,#0x2c]
        0x000037c0:    900a        ..      STR      r0,[sp,#0x28]
        0x000037c2:    2000        .       MOVS     r0,#0
        0x000037c4:    f000fb16    ....    BL       fixed_point_init ; 0x3df4
        0x000037c8:    9109        ..      STR      r1,[sp,#0x24]
        0x000037ca:    9008        ..      STR      r0,[sp,#0x20]
        0x000037cc:    2000        .       MOVS     r0,#0
        0x000037ce:    f000fb11    ....    BL       fixed_point_init ; 0x3df4
        0x000037d2:    9107        ..      STR      r1,[sp,#0x1c]
        0x000037d4:    9006        ..      STR      r0,[sp,#0x18]
        0x000037d6:    2000        .       MOVS     r0,#0
        0x000037d8:    f000fb0c    ....    BL       fixed_point_init ; 0x3df4
        0x000037dc:    9105        ..      STR      r1,[sp,#0x14]
        0x000037de:    9004        ..      STR      r0,[sp,#0x10]
        0x000037e0:    ab0e        ..      ADD      r3,sp,#0x38
        0x000037e2:    2200        ."      MOVS     r2,#0
        0x000037e4:    4611        .F      MOV      r1,r2
        0x000037e6:    4620         F      MOV      r0,r4
        0x000037e8:    f7fffd96    ....    BL       matrix_get ; 0x3318
        0x000037ec:    ab0c        ..      ADD      r3,sp,#0x30
        0x000037ee:    2200        ."      MOVS     r2,#0
        0x000037f0:    2101        .!      MOVS     r1,#1
        0x000037f2:    4620         F      MOV      r0,r4
        0x000037f4:    f7fffd90    ....    BL       matrix_get ; 0x3318
        0x000037f8:    ab0a        ..      ADD      r3,sp,#0x28
        0x000037fa:    2200        ."      MOVS     r2,#0
        0x000037fc:    2102        .!      MOVS     r1,#2
        0x000037fe:    4620         F      MOV      r0,r4
        0x00003800:    f7fffd8a    ....    BL       matrix_get ; 0x3318
        0x00003804:    ab08        ..      ADD      r3,sp,#0x20
        0x00003806:    2201        ."      MOVS     r2,#1
        0x00003808:    2100        .!      MOVS     r1,#0
        0x0000380a:    4620         F      MOV      r0,r4
        0x0000380c:    f7fffd84    ....    BL       matrix_get ; 0x3318
        0x00003810:    ab06        ..      ADD      r3,sp,#0x18
        0x00003812:    2201        ."      MOVS     r2,#1
        0x00003814:    4611        .F      MOV      r1,r2
        0x00003816:    4620         F      MOV      r0,r4
        0x00003818:    f7fffd7e    ..~.    BL       matrix_get ; 0x3318
        0x0000381c:    ab04        ..      ADD      r3,sp,#0x10
        0x0000381e:    2201        ."      MOVS     r2,#1
        0x00003820:    2102        .!      MOVS     r1,#2
        0x00003822:    4620         F      MOV      r0,r4
        0x00003824:    f7fffd78    ..x.    BL       matrix_get ; 0x3318
        0x00003828:    9b07        ..      LDR      r3,[sp,#0x1c]
        0x0000382a:    9a06        ..      LDR      r2,[sp,#0x18]
        0x0000382c:    990b        ..      LDR      r1,[sp,#0x2c]
        0x0000382e:    980a        ..      LDR      r0,[sp,#0x28]
        0x00003830:    f7ffff36    ..6.    BL       fixed_point_multiply ; 0x36a0
        0x00003834:    4605        .F      MOV      r5,r0
        0x00003836:    460e        .F      MOV      r6,r1
        0x00003838:    9b05        ..      LDR      r3,[sp,#0x14]
        0x0000383a:    9a04        ..      LDR      r2,[sp,#0x10]
        0x0000383c:    990d        ..      LDR      r1,[sp,#0x34]
        0x0000383e:    980c        ..      LDR      r0,[sp,#0x30]
        0x00003840:    f7ffff2e    ....    BL       fixed_point_multiply ; 0x36a0
        0x00003844:    462a        *F      MOV      r2,r5
        0x00003846:    4633        3F      MOV      r3,r6
        0x00003848:    9101        ..      STR      r1,[sp,#4]
        0x0000384a:    9000        ..      STR      r0,[sp,#0]
        0x0000384c:    f000fadd    ....    BL       fixed_point_subtract ; 0x3e0a
        0x00003850:    9002        ..      STR      r0,[sp,#8]
        0x00003852:    9103        ..      STR      r1,[sp,#0xc]
        0x00003854:    2200        ."      MOVS     r2,#0
        0x00003856:    9101        ..      STR      r1,[sp,#4]
        0x00003858:    9000        ..      STR      r0,[sp,#0]
        0x0000385a:    4611        .F      MOV      r1,r2
        0x0000385c:    4638        8F      MOV      r0,r7
        0x0000385e:    f7fffd75    ..u.    BL       matrix_set ; 0x334c
        0x00003862:    9b05        ..      LDR      r3,[sp,#0x14]
        0x00003864:    9a04        ..      LDR      r2,[sp,#0x10]
        0x00003866:    990f        ..      LDR      r1,[sp,#0x3c]
        0x00003868:    980e        ..      LDR      r0,[sp,#0x38]
        0x0000386a:    f7ffff19    ....    BL       fixed_point_multiply ; 0x36a0
        0x0000386e:    9101        ..      STR      r1,[sp,#4]
        0x00003870:    9000        ..      STR      r0,[sp,#0]
        0x00003872:    9b09        ..      LDR      r3,[sp,#0x24]
        0x00003874:    9a08        ..      LDR      r2,[sp,#0x20]
        0x00003876:    990b        ..      LDR      r1,[sp,#0x2c]
        0x00003878:    980a        ..      LDR      r0,[sp,#0x28]
        0x0000387a:    f7ffff11    ....    BL       fixed_point_multiply ; 0x36a0
        0x0000387e:    4605        .F      MOV      r5,r0
        0x00003880:    9b01        ..      LDR      r3,[sp,#4]
        0x00003882:    9a00        ..      LDR      r2,[sp,#0]
        0x00003884:    f000fac1    ....    BL       fixed_point_subtract ; 0x3e0a
        0x00003888:    9002        ..      STR      r0,[sp,#8]
        0x0000388a:    9103        ..      STR      r1,[sp,#0xc]
        0x0000388c:    2200        ."      MOVS     r2,#0
        0x0000388e:    9101        ..      STR      r1,[sp,#4]
        0x00003890:    9000        ..      STR      r0,[sp,#0]
        0x00003892:    2101        .!      MOVS     r1,#1
        0x00003894:    4638        8F      MOV      r0,r7
        0x00003896:    f7fffd59    ..Y.    BL       matrix_set ; 0x334c
        0x0000389a:    9b09        ..      LDR      r3,[sp,#0x24]
        0x0000389c:    9a08        ..      LDR      r2,[sp,#0x20]
        0x0000389e:    990d        ..      LDR      r1,[sp,#0x34]
        0x000038a0:    980c        ..      LDR      r0,[sp,#0x30]
        0x000038a2:    f7fffefd    ....    BL       fixed_point_multiply ; 0x36a0
        0x000038a6:    4605        .F      MOV      r5,r0
        0x000038a8:    460e        .F      MOV      r6,r1
        0x000038aa:    9b07        ..      LDR      r3,[sp,#0x1c]
        0x000038ac:    9a06        ..      LDR      r2,[sp,#0x18]
        0x000038ae:    990f        ..      LDR      r1,[sp,#0x3c]
        0x000038b0:    980e        ..      LDR      r0,[sp,#0x38]
        0x000038b2:    f7fffef5    ....    BL       fixed_point_multiply ; 0x36a0
        0x000038b6:    462a        *F      MOV      r2,r5
        0x000038b8:    4633        3F      MOV      r3,r6
        0x000038ba:    9101        ..      STR      r1,[sp,#4]
        0x000038bc:    9000        ..      STR      r0,[sp,#0]
        0x000038be:    f000faa4    ....    BL       fixed_point_subtract ; 0x3e0a
        0x000038c2:    9002        ..      STR      r0,[sp,#8]
        0x000038c4:    9103        ..      STR      r1,[sp,#0xc]
        0x000038c6:    2200        ."      MOVS     r2,#0
        0x000038c8:    9101        ..      STR      r1,[sp,#4]
        0x000038ca:    9000        ..      STR      r0,[sp,#0]
        0x000038cc:    2102        .!      MOVS     r1,#2
        0x000038ce:    4638        8F      MOV      r0,r7
        0x000038d0:    f7fffd3c    ..<.    BL       matrix_set ; 0x334c
        0x000038d4:    2001        .       MOVS     r0,#1
        0x000038d6:    e763        c.      B        0x37a0 ; cross_product + 16
    identity_subtract_outer_product
        0x000038d8:    b5f0        ..      PUSH     {r4-r7,lr}
        0x000038da:    b08b        ..      SUB      sp,sp,#0x2c
        0x000038dc:    4607        .F      MOV      r7,r0
        0x000038de:    460c        .F      MOV      r4,r1
        0x000038e0:    6838        8h      LDR      r0,[r7,#0]
        0x000038e2:    2803        .(      CMP      r0,#3
        0x000038e4:    d108        ..      BNE      0x38f8 ; identity_subtract_outer_product + 32
        0x000038e6:    6878        xh      LDR      r0,[r7,#4]
        0x000038e8:    2801        .(      CMP      r0,#1
        0x000038ea:    d105        ..      BNE      0x38f8 ; identity_subtract_outer_product + 32
        0x000038ec:    6820         h      LDR      r0,[r4,#0]
        0x000038ee:    2803        .(      CMP      r0,#3
        0x000038f0:    d102        ..      BNE      0x38f8 ; identity_subtract_outer_product + 32
        0x000038f2:    6860        `h      LDR      r0,[r4,#4]
        0x000038f4:    2803        .(      CMP      r0,#3
        0x000038f6:    d002        ..      BEQ      0x38fe ; identity_subtract_outer_product + 38
        0x000038f8:    2000        .       MOVS     r0,#0
        0x000038fa:    b00b        ..      ADD      sp,sp,#0x2c
        0x000038fc:    bdf0        ..      POP      {r4-r7,pc}
        0x000038fe:    2000        .       MOVS     r0,#0
        0x00003900:    f000fa78    ..x.    BL       fixed_point_init ; 0x3df4
        0x00003904:    9109        ..      STR      r1,[sp,#0x24]
        0x00003906:    9008        ..      STR      r0,[sp,#0x20]
        0x00003908:    2000        .       MOVS     r0,#0
        0x0000390a:    f000fa73    ..s.    BL       fixed_point_init ; 0x3df4
        0x0000390e:    9107        ..      STR      r1,[sp,#0x1c]
        0x00003910:    9006        ..      STR      r0,[sp,#0x18]
        0x00003912:    2000        .       MOVS     r0,#0
        0x00003914:    f000fa6e    ..n.    BL       fixed_point_init ; 0x3df4
        0x00003918:    9105        ..      STR      r1,[sp,#0x14]
        0x0000391a:    9004        ..      STR      r0,[sp,#0x10]
        0x0000391c:    ab08        ..      ADD      r3,sp,#0x20
        0x0000391e:    2200        ."      MOVS     r2,#0
        0x00003920:    4611        .F      MOV      r1,r2
        0x00003922:    4638        8F      MOV      r0,r7
        0x00003924:    f7fffcf8    ....    BL       matrix_get ; 0x3318
        0x00003928:    ab06        ..      ADD      r3,sp,#0x18
        0x0000392a:    2200        ."      MOVS     r2,#0
        0x0000392c:    2101        .!      MOVS     r1,#1
        0x0000392e:    4638        8F      MOV      r0,r7
        0x00003930:    f7fffcf2    ....    BL       matrix_get ; 0x3318
        0x00003934:    ab04        ..      ADD      r3,sp,#0x10
        0x00003936:    2200        ."      MOVS     r2,#0
        0x00003938:    2102        .!      MOVS     r1,#2
        0x0000393a:    4638        8F      MOV      r0,r7
        0x0000393c:    f7fffcec    ....    BL       matrix_get ; 0x3318
        0x00003940:    9a08        ..      LDR      r2,[sp,#0x20]
        0x00003942:    4610        .F      MOV      r0,r2
        0x00003944:    9b09        ..      LDR      r3,[sp,#0x24]
        0x00003946:    4619        .F      MOV      r1,r3
        0x00003948:    f7fffeaa    ....    BL       fixed_point_multiply ; 0x36a0
        0x0000394c:    4605        .F      MOV      r5,r0
        0x0000394e:    460e        .F      MOV      r6,r1
        0x00003950:    2001        .       MOVS     r0,#1
        0x00003952:    f000fa4f    ..O.    BL       fixed_point_init ; 0x3df4
        0x00003956:    462a        *F      MOV      r2,r5
        0x00003958:    4633        3F      MOV      r3,r6
        0x0000395a:    9101        ..      STR      r1,[sp,#4]
        0x0000395c:    9000        ..      STR      r0,[sp,#0]
        0x0000395e:    f000fa54    ..T.    BL       fixed_point_subtract ; 0x3e0a
        0x00003962:    9002        ..      STR      r0,[sp,#8]
        0x00003964:    9103        ..      STR      r1,[sp,#0xc]
        0x00003966:    2200        ."      MOVS     r2,#0
        0x00003968:    9101        ..      STR      r1,[sp,#4]
        0x0000396a:    9000        ..      STR      r0,[sp,#0]
        0x0000396c:    4611        .F      MOV      r1,r2
        0x0000396e:    4620         F      MOV      r0,r4
        0x00003970:    f7fffcec    ....    BL       matrix_set ; 0x334c
        0x00003974:    9b07        ..      LDR      r3,[sp,#0x1c]
        0x00003976:    9a06        ..      LDR      r2,[sp,#0x18]
        0x00003978:    9909        ..      LDR      r1,[sp,#0x24]
        0x0000397a:    9808        ..      LDR      r0,[sp,#0x20]
        0x0000397c:    f7fffe90    ....    BL       fixed_point_multiply ; 0x36a0
        0x00003980:    460a        .F      MOV      r2,r1
        0x00003982:    2100        .!      MOVS     r1,#0
        0x00003984:    4240        @B      RSBS     r0,r0,#0
        0x00003986:    4191        .A      SBCS     r1,r1,r2
        0x00003988:    2201        ."      MOVS     r2,#1
        0x0000398a:    9101        ..      STR      r1,[sp,#4]
        0x0000398c:    9000        ..      STR      r0,[sp,#0]
        0x0000398e:    2100        .!      MOVS     r1,#0
        0x00003990:    4620         F      MOV      r0,r4
        0x00003992:    f7fffcdb    ....    BL       matrix_set ; 0x334c
        0x00003996:    9b05        ..      LDR      r3,[sp,#0x14]
        0x00003998:    9a04        ..      LDR      r2,[sp,#0x10]
        0x0000399a:    9909        ..      LDR      r1,[sp,#0x24]
        0x0000399c:    9808        ..      LDR      r0,[sp,#0x20]
        0x0000399e:    f7fffe7f    ....    BL       fixed_point_multiply ; 0x36a0
        0x000039a2:    2200        ."      MOVS     r2,#0
        0x000039a4:    4240        @B      RSBS     r0,r0,#0
        0x000039a6:    418a        .A      SBCS     r2,r2,r1
        0x000039a8:    9201        ..      STR      r2,[sp,#4]
        0x000039aa:    9000        ..      STR      r0,[sp,#0]
        0x000039ac:    2202        ."      MOVS     r2,#2
        0x000039ae:    2100        .!      MOVS     r1,#0
        0x000039b0:    4620         F      MOV      r0,r4
        0x000039b2:    f7fffccb    ....    BL       matrix_set ; 0x334c
        0x000039b6:    a806        ..      ADD      r0,sp,#0x18
        0x000039b8:    c80f        ..      LDM      r0,{r0-r3}
        0x000039ba:    f7fffe71    ..q.    BL       fixed_point_multiply ; 0x36a0
        0x000039be:    4602        .F      MOV      r2,r0
        0x000039c0:    2000        .       MOVS     r0,#0
        0x000039c2:    4255        UB      RSBS     r5,r2,#0
        0x000039c4:    4188        .A      SBCS     r0,r0,r1
        0x000039c6:    2200        ."      MOVS     r2,#0
        0x000039c8:    2101        .!      MOVS     r1,#1
        0x000039ca:    9500        ..      STR      r5,[sp,#0]
        0x000039cc:    9001        ..      STR      r0,[sp,#4]
        0x000039ce:    4620         F      MOV      r0,r4
        0x000039d0:    f7fffcbc    ....    BL       matrix_set ; 0x334c
        0x000039d4:    9a06        ..      LDR      r2,[sp,#0x18]
        0x000039d6:    4610        .F      MOV      r0,r2
        0x000039d8:    9b07        ..      LDR      r3,[sp,#0x1c]
        0x000039da:    4619        .F      MOV      r1,r3
        0x000039dc:    f7fffe60    ..`.    BL       fixed_point_multiply ; 0x36a0
        0x000039e0:    4605        .F      MOV      r5,r0
        0x000039e2:    460e        .F      MOV      r6,r1
        0x000039e4:    2001        .       MOVS     r0,#1
        0x000039e6:    f000fa05    ....    BL       fixed_point_init ; 0x3df4
        0x000039ea:    462a        *F      MOV      r2,r5
        0x000039ec:    4633        3F      MOV      r3,r6
        0x000039ee:    9101        ..      STR      r1,[sp,#4]
        0x000039f0:    9000        ..      STR      r0,[sp,#0]
        0x000039f2:    f000fa0a    ....    BL       fixed_point_subtract ; 0x3e0a
        0x000039f6:    9002        ..      STR      r0,[sp,#8]
        0x000039f8:    9103        ..      STR      r1,[sp,#0xc]
        0x000039fa:    2201        ."      MOVS     r2,#1
        0x000039fc:    9101        ..      STR      r1,[sp,#4]
        0x000039fe:    9000        ..      STR      r0,[sp,#0]
        0x00003a00:    4611        .F      MOV      r1,r2
        0x00003a02:    4620         F      MOV      r0,r4
        0x00003a04:    f7fffca2    ....    BL       matrix_set ; 0x334c
        0x00003a08:    9b05        ..      LDR      r3,[sp,#0x14]
        0x00003a0a:    9a04        ..      LDR      r2,[sp,#0x10]
        0x00003a0c:    9907        ..      LDR      r1,[sp,#0x1c]
        0x00003a0e:    9806        ..      LDR      r0,[sp,#0x18]
        0x00003a10:    f7fffe46    ..F.    BL       fixed_point_multiply ; 0x36a0
        0x00003a14:    460a        .F      MOV      r2,r1
        0x00003a16:    2100        .!      MOVS     r1,#0
        0x00003a18:    4240        @B      RSBS     r0,r0,#0
        0x00003a1a:    4191        .A      SBCS     r1,r1,r2
        0x00003a1c:    2202        ."      MOVS     r2,#2
        0x00003a1e:    9101        ..      STR      r1,[sp,#4]
        0x00003a20:    9000        ..      STR      r0,[sp,#0]
        0x00003a22:    2101        .!      MOVS     r1,#1
        0x00003a24:    4620         F      MOV      r0,r4
        0x00003a26:    f7fffc91    ....    BL       matrix_set ; 0x334c
        0x00003a2a:    9b09        ..      LDR      r3,[sp,#0x24]
        0x00003a2c:    9a08        ..      LDR      r2,[sp,#0x20]
        0x00003a2e:    9905        ..      LDR      r1,[sp,#0x14]
        0x00003a30:    9804        ..      LDR      r0,[sp,#0x10]
        0x00003a32:    f7fffe35    ..5.    BL       fixed_point_multiply ; 0x36a0
        0x00003a36:    4602        .F      MOV      r2,r0
        0x00003a38:    2000        .       MOVS     r0,#0
        0x00003a3a:    4255        UB      RSBS     r5,r2,#0
        0x00003a3c:    4188        .A      SBCS     r0,r0,r1
        0x00003a3e:    2200        ."      MOVS     r2,#0
        0x00003a40:    2102        .!      MOVS     r1,#2
        0x00003a42:    9500        ..      STR      r5,[sp,#0]
        0x00003a44:    9001        ..      STR      r0,[sp,#4]
        0x00003a46:    4620         F      MOV      r0,r4
        0x00003a48:    f7fffc80    ....    BL       matrix_set ; 0x334c
        0x00003a4c:    a804        ..      ADD      r0,sp,#0x10
        0x00003a4e:    c80f        ..      LDM      r0,{r0-r3}
        0x00003a50:    f7fffe26    ..&.    BL       fixed_point_multiply ; 0x36a0
        0x00003a54:    2200        ."      MOVS     r2,#0
        0x00003a56:    4240        @B      RSBS     r0,r0,#0
        0x00003a58:    418a        .A      SBCS     r2,r2,r1
        0x00003a5a:    9201        ..      STR      r2,[sp,#4]
        0x00003a5c:    9000        ..      STR      r0,[sp,#0]
        0x00003a5e:    2201        ."      MOVS     r2,#1
        0x00003a60:    2102        .!      MOVS     r1,#2
        0x00003a62:    4620         F      MOV      r0,r4
        0x00003a64:    f7fffc72    ..r.    BL       matrix_set ; 0x334c
        0x00003a68:    9a04        ..      LDR      r2,[sp,#0x10]
        0x00003a6a:    4610        .F      MOV      r0,r2
        0x00003a6c:    9b05        ..      LDR      r3,[sp,#0x14]
        0x00003a6e:    4619        .F      MOV      r1,r3
        0x00003a70:    f7fffe16    ....    BL       fixed_point_multiply ; 0x36a0
        0x00003a74:    4605        .F      MOV      r5,r0
        0x00003a76:    460e        .F      MOV      r6,r1
        0x00003a78:    2001        .       MOVS     r0,#1
        0x00003a7a:    f000f9bb    ....    BL       fixed_point_init ; 0x3df4
        0x00003a7e:    462a        *F      MOV      r2,r5
        0x00003a80:    4633        3F      MOV      r3,r6
        0x00003a82:    9101        ..      STR      r1,[sp,#4]
        0x00003a84:    9000        ..      STR      r0,[sp,#0]
        0x00003a86:    f000f9c0    ....    BL       fixed_point_subtract ; 0x3e0a
        0x00003a8a:    9002        ..      STR      r0,[sp,#8]
        0x00003a8c:    9103        ..      STR      r1,[sp,#0xc]
        0x00003a8e:    2202        ."      MOVS     r2,#2
        0x00003a90:    9101        ..      STR      r1,[sp,#4]
        0x00003a92:    9000        ..      STR      r0,[sp,#0]
        0x00003a94:    4611        .F      MOV      r1,r2
        0x00003a96:    4620         F      MOV      r0,r4
        0x00003a98:    f7fffc58    ..X.    BL       matrix_set ; 0x334c
        0x00003a9c:    2001        .       MOVS     r0,#1
        0x00003a9e:    e72c        ,.      B        0x38fa ; identity_subtract_outer_product + 34
    matrix_get_column
        0x00003aa0:    b5f0        ..      PUSH     {r4-r7,lr}
        0x00003aa2:    b085        ..      SUB      sp,sp,#0x14
        0x00003aa4:    4605        .F      MOV      r5,r0
        0x00003aa6:    460e        .F      MOV      r6,r1
        0x00003aa8:    4617        .F      MOV      r7,r2
        0x00003aaa:    2000        .       MOVS     r0,#0
        0x00003aac:    f000f9a2    ....    BL       fixed_point_init ; 0x3df4
        0x00003ab0:    9103        ..      STR      r1,[sp,#0xc]
        0x00003ab2:    9002        ..      STR      r0,[sp,#8]
        0x00003ab4:    2400        .$      MOVS     r4,#0
        0x00003ab6:    e010        ..      B        0x3ada ; matrix_get_column + 58
        0x00003ab8:    ab02        ..      ADD      r3,sp,#8
        0x00003aba:    4632        2F      MOV      r2,r6
        0x00003abc:    4621        !F      MOV      r1,r4
        0x00003abe:    4628        (F      MOV      r0,r5
        0x00003ac0:    f7fffc2a    ..*.    BL       matrix_get ; 0x3318
        0x00003ac4:    9903        ..      LDR      r1,[sp,#0xc]
        0x00003ac6:    9802        ..      LDR      r0,[sp,#8]
        0x00003ac8:    2200        ."      MOVS     r2,#0
        0x00003aca:    9101        ..      STR      r1,[sp,#4]
        0x00003acc:    9000        ..      STR      r0,[sp,#0]
        0x00003ace:    4621        !F      MOV      r1,r4
        0x00003ad0:    4638        8F      MOV      r0,r7
        0x00003ad2:    f7fffc3b    ..;.    BL       matrix_set ; 0x334c
        0x00003ad6:    1c60        `.      ADDS     r0,r4,#1
        0x00003ad8:    b244        D.      SXTB     r4,r0
        0x00003ada:    6828        (h      LDR      r0,[r5,#0]
        0x00003adc:    42a0        .B      CMP      r0,r4
        0x00003ade:    d8eb        ..      BHI      0x3ab8 ; matrix_get_column + 24
        0x00003ae0:    b005        ..      ADD      sp,sp,#0x14
        0x00003ae2:    bdf0        ..      POP      {r4-r7,pc}
    euclidean_norm
        0x00003ae4:    b5f0        ..      PUSH     {r4-r7,lr}
        0x00003ae6:    b087        ..      SUB      sp,sp,#0x1c
        0x00003ae8:    4607        .F      MOV      r7,r0
        0x00003aea:    2000        .       MOVS     r0,#0
        0x00003aec:    f000f982    ....    BL       fixed_point_init ; 0x3df4
        0x00003af0:    9105        ..      STR      r1,[sp,#0x14]
        0x00003af2:    9004        ..      STR      r0,[sp,#0x10]
        0x00003af4:    2000        .       MOVS     r0,#0
        0x00003af6:    f000f97d    ..}.    BL       fixed_point_init ; 0x3df4
        0x00003afa:    9103        ..      STR      r1,[sp,#0xc]
        0x00003afc:    9002        ..      STR      r0,[sp,#8]
        0x00003afe:    2600        .&      MOVS     r6,#0
        0x00003b00:    e019        ..      B        0x3b36 ; euclidean_norm + 82
        0x00003b02:    ab02        ..      ADD      r3,sp,#8
        0x00003b04:    2200        ."      MOVS     r2,#0
        0x00003b06:    4631        1F      MOV      r1,r6
        0x00003b08:    4638        8F      MOV      r0,r7
        0x00003b0a:    f7fffc05    ....    BL       matrix_get ; 0x3318
        0x00003b0e:    9d03        ..      LDR      r5,[sp,#0xc]
        0x00003b10:    9c02        ..      LDR      r4,[sp,#8]
        0x00003b12:    462b        +F      MOV      r3,r5
        0x00003b14:    4622        "F      MOV      r2,r4
        0x00003b16:    4620         F      MOV      r0,r4
        0x00003b18:    4629        )F      MOV      r1,r5
        0x00003b1a:    f7fffdc1    ....    BL       fixed_point_multiply ; 0x36a0
        0x00003b1e:    4602        .F      MOV      r2,r0
        0x00003b20:    460b        .F      MOV      r3,r1
        0x00003b22:    9101        ..      STR      r1,[sp,#4]
        0x00003b24:    9000        ..      STR      r0,[sp,#0]
        0x00003b26:    9905        ..      LDR      r1,[sp,#0x14]
        0x00003b28:    9804        ..      LDR      r0,[sp,#0x10]
        0x00003b2a:    f000f967    ..g.    BL       fixed_point_add ; 0x3dfc
        0x00003b2e:    9105        ..      STR      r1,[sp,#0x14]
        0x00003b30:    9004        ..      STR      r0,[sp,#0x10]
        0x00003b32:    1c70        p.      ADDS     r0,r6,#1
        0x00003b34:    b246        F.      SXTB     r6,r0
        0x00003b36:    6838        8h      LDR      r0,[r7,#0]
        0x00003b38:    42b0        .B      CMP      r0,r6
        0x00003b3a:    d8e2        ..      BHI      0x3b02 ; euclidean_norm + 30
        0x00003b3c:    9905        ..      LDR      r1,[sp,#0x14]
        0x00003b3e:    9804        ..      LDR      r0,[sp,#0x10]
        0x00003b40:    f000f97d    ..}.    BL       fixed_point_square_root ; 0x3e3e
        0x00003b44:    b007        ..      ADD      sp,sp,#0x1c
        0x00003b46:    bdf0        ..      POP      {r4-r7,pc}
    normalize
        0x00003b48:    b5f0        ..      PUSH     {r4-r7,lr}
        0x00003b4a:    b087        ..      SUB      sp,sp,#0x1c
        0x00003b4c:    4607        .F      MOV      r7,r0
        0x00003b4e:    2000        .       MOVS     r0,#0
        0x00003b50:    f000f950    ..P.    BL       fixed_point_init ; 0x3df4
        0x00003b54:    9105        ..      STR      r1,[sp,#0x14]
        0x00003b56:    9004        ..      STR      r0,[sp,#0x10]
        0x00003b58:    ab04        ..      ADD      r3,sp,#0x10
        0x00003b5a:    2200        ."      MOVS     r2,#0
        0x00003b5c:    4611        .F      MOV      r1,r2
        0x00003b5e:    4638        8F      MOV      r0,r7
        0x00003b60:    f7fffbda    ....    BL       matrix_get ; 0x3318
        0x00003b64:    4638        8F      MOV      r0,r7
        0x00003b66:    f7ffffbd    ....    BL       euclidean_norm ; 0x3ae4
        0x00003b6a:    9103        ..      STR      r1,[sp,#0xc]
        0x00003b6c:    9002        ..      STR      r0,[sp,#8]
        0x00003b6e:    2400        .$      MOVS     r4,#0
        0x00003b70:    e017        ..      B        0x3ba2 ; normalize + 90
    $d
        0x00003b72:    0000        ..      DCW    0
        0x00003b74:    20000690    ...     DCD    536872592
    $t
        0x00003b78:    ab04        ..      ADD      r3,sp,#0x10
        0x00003b7a:    2200        ."      MOVS     r2,#0
        0x00003b7c:    4621        !F      MOV      r1,r4
        0x00003b7e:    4638        8F      MOV      r0,r7
        0x00003b80:    f7fffbca    ....    BL       matrix_get ; 0x3318
        0x00003b84:    9b03        ..      LDR      r3,[sp,#0xc]
        0x00003b86:    9a02        ..      LDR      r2,[sp,#8]
        0x00003b88:    9905        ..      LDR      r1,[sp,#0x14]
        0x00003b8a:    9804        ..      LDR      r0,[sp,#0x10]
        0x00003b8c:    f000f944    ..D.    BL       fixed_point_divide ; 0x3e18
        0x00003b90:    2200        ."      MOVS     r2,#0
        0x00003b92:    9101        ..      STR      r1,[sp,#4]
        0x00003b94:    9000        ..      STR      r0,[sp,#0]
        0x00003b96:    4621        !F      MOV      r1,r4
        0x00003b98:    4638        8F      MOV      r0,r7
        0x00003b9a:    f7fffbd7    ....    BL       matrix_set ; 0x334c
        0x00003b9e:    1c60        `.      ADDS     r0,r4,#1
        0x00003ba0:    b244        D.      SXTB     r4,r0
        0x00003ba2:    6838        8h      LDR      r0,[r7,#0]
        0x00003ba4:    42a0        .B      CMP      r0,r4
        0x00003ba6:    d8e7        ..      BHI      0x3b78 ; normalize + 48
        0x00003ba8:    b007        ..      ADD      sp,sp,#0x1c
        0x00003baa:    bdf0        ..      POP      {r4-r7,pc}
    gradient_ascent
        0x00003bac:    b5f3        ..      PUSH     {r0,r1,r4-r7,lr}
        0x00003bae:    b091        ..      SUB      sp,sp,#0x44
        0x00003bb0:    2000        .       MOVS     r0,#0
        0x00003bb2:    f000f91f    ....    BL       fixed_point_init ; 0x3df4
        0x00003bb6:    910d        ..      STR      r1,[sp,#0x34]
        0x00003bb8:    900c        ..      STR      r0,[sp,#0x30]
        0x00003bba:    2000        .       MOVS     r0,#0
        0x00003bbc:    f000f91a    ....    BL       fixed_point_init ; 0x3df4
        0x00003bc0:    910b        ..      STR      r1,[sp,#0x2c]
        0x00003bc2:    900a        ..      STR      r0,[sp,#0x28]
        0x00003bc4:    2000        .       MOVS     r0,#0
        0x00003bc6:    f000f915    ....    BL       fixed_point_init ; 0x3df4
        0x00003bca:    9109        ..      STR      r1,[sp,#0x24]
        0x00003bcc:    9008        ..      STR      r0,[sp,#0x20]
        0x00003bce:    2000        .       MOVS     r0,#0
        0x00003bd0:    9007        ..      STR      r0,[sp,#0x1c]
        0x00003bd2:    e06b        k.      B        0x3cac ; gradient_ascent + 256
        0x00003bd4:    4bb7        .K      LDR      r3,[pc,#732] ; [0x3eb4] = 0x200007a8
        0x00003bd6:    aa0e        ..      ADD      r2,sp,#0x38
        0x00003bd8:    9912        ..      LDR      r1,[sp,#0x48]
        0x00003bda:    9811        ..      LDR      r0,[sp,#0x44]
        0x00003bdc:    f7fffc0b    ....    BL       matrix_multiply ; 0x33f6
        0x00003be0:    a80e        ..      ADD      r0,sp,#0x38
        0x00003be2:    f7ffff7f    ....    BL       euclidean_norm ; 0x3ae4
        0x00003be6:    9105        ..      STR      r1,[sp,#0x14]
        0x00003be8:    9004        ..      STR      r0,[sp,#0x10]
        0x00003bea:    9b09        ..      LDR      r3,[sp,#0x24]
        0x00003bec:    9a08        ..      LDR      r2,[sp,#0x20]
        0x00003bee:    9905        ..      LDR      r1,[sp,#0x14]
        0x00003bf0:    9804        ..      LDR      r0,[sp,#0x10]
        0x00003bf2:    f000f90a    ....    BL       fixed_point_subtract ; 0x3e0a
        0x00003bf6:    460d        .F      MOV      r5,r1
        0x00003bf8:    4604        .F      MOV      r4,r0
        0x00003bfa:    2000        .       MOVS     r0,#0
        0x00003bfc:    f000f8fa    ....    BL       fixed_point_init ; 0x3df4
        0x00003c00:    462a        *F      MOV      r2,r5
        0x00003c02:    1a20         .      SUBS     r0,r4,r0
        0x00003c04:    418a        .A      SBCS     r2,r2,r1
        0x00003c06:    da03        ..      BGE      0x3c10 ; gradient_ascent + 100
        0x00003c08:    2700        .'      MOVS     r7,#0
        0x00003c0a:    4266        fB      RSBS     r6,r4,#0
        0x00003c0c:    41af        .A      SBCS     r7,r7,r5
        0x00003c0e:    e001        ..      B        0x3c14 ; gradient_ascent + 104
        0x00003c10:    4626        &F      MOV      r6,r4
        0x00003c12:    462f        /F      MOV      r7,r5
        0x00003c14:    2064        d       MOVS     r0,#0x64
        0x00003c16:    f000f8ed    ....    BL       fixed_point_init ; 0x3df4
        0x00003c1a:    4604        .F      MOV      r4,r0
        0x00003c1c:    460d        .F      MOV      r5,r1
        0x00003c1e:    2001        .       MOVS     r0,#1
        0x00003c20:    f000f8e8    ....    BL       fixed_point_init ; 0x3df4
        0x00003c24:    4622        "F      MOV      r2,r4
        0x00003c26:    462b        +F      MOV      r3,r5
        0x00003c28:    9103        ..      STR      r1,[sp,#0xc]
        0x00003c2a:    9002        ..      STR      r0,[sp,#8]
        0x00003c2c:    f000f8f4    ....    BL       fixed_point_divide ; 0x3e18
        0x00003c30:    1a30        0.      SUBS     r0,r6,r0
        0x00003c32:    418f        .A      SBCS     r7,r7,r1
        0x00003c34:    da00        ..      BGE      0x3c38 ; gradient_ascent + 140
        0x00003c36:    e03e        >.      B        0x3cb6 ; gradient_ascent + 266
        0x00003c38:    9905        ..      LDR      r1,[sp,#0x14]
        0x00003c3a:    9804        ..      LDR      r0,[sp,#0x10]
        0x00003c3c:    9109        ..      STR      r1,[sp,#0x24]
        0x00003c3e:    9008        ..      STR      r0,[sp,#0x20]
        0x00003c40:    2600        .&      MOVS     r6,#0
        0x00003c42:    e028        (.      B        0x3c96 ; gradient_ascent + 234
        0x00003c44:    ab0c        ..      ADD      r3,sp,#0x30
        0x00003c46:    2200        ."      MOVS     r2,#0
        0x00003c48:    4631        1F      MOV      r1,r6
        0x00003c4a:    9812        ..      LDR      r0,[sp,#0x48]
        0x00003c4c:    f7fffb64    ..d.    BL       matrix_get ; 0x3318
        0x00003c50:    ab0a        ..      ADD      r3,sp,#0x28
        0x00003c52:    2200        ."      MOVS     r2,#0
        0x00003c54:    4631        1F      MOV      r1,r6
        0x00003c56:    a80e        ..      ADD      r0,sp,#0x38
        0x00003c58:    f7fffb5e    ..^.    BL       matrix_get ; 0x3318
        0x00003c5c:    2080        .       MOVS     r0,#0x80
        0x00003c5e:    f000f8c9    ....    BL       fixed_point_init ; 0x3df4
        0x00003c62:    4604        .F      MOV      r4,r0
        0x00003c64:    4622        "F      MOV      r2,r4
        0x00003c66:    460b        .F      MOV      r3,r1
        0x00003c68:    990b        ..      LDR      r1,[sp,#0x2c]
        0x00003c6a:    980a        ..      LDR      r0,[sp,#0x28]
        0x00003c6c:    f000f8d4    ....    BL       fixed_point_divide ; 0x3e18
        0x00003c70:    4602        .F      MOV      r2,r0
        0x00003c72:    460b        .F      MOV      r3,r1
        0x00003c74:    9101        ..      STR      r1,[sp,#4]
        0x00003c76:    9000        ..      STR      r0,[sp,#0]
        0x00003c78:    990d        ..      LDR      r1,[sp,#0x34]
        0x00003c7a:    980c        ..      LDR      r0,[sp,#0x30]
        0x00003c7c:    f000f8be    ....    BL       fixed_point_add ; 0x3dfc
        0x00003c80:    9002        ..      STR      r0,[sp,#8]
        0x00003c82:    9103        ..      STR      r1,[sp,#0xc]
        0x00003c84:    2200        ."      MOVS     r2,#0
        0x00003c86:    9101        ..      STR      r1,[sp,#4]
        0x00003c88:    9000        ..      STR      r0,[sp,#0]
        0x00003c8a:    4631        1F      MOV      r1,r6
        0x00003c8c:    9812        ..      LDR      r0,[sp,#0x48]
        0x00003c8e:    f7fffb5d    ..].    BL       matrix_set ; 0x334c
        0x00003c92:    1c70        p.      ADDS     r0,r6,#1
        0x00003c94:    b246        F.      SXTB     r6,r0
        0x00003c96:    9812        ..      LDR      r0,[sp,#0x48]
        0x00003c98:    6800        .h      LDR      r0,[r0,#0]
        0x00003c9a:    42b0        .B      CMP      r0,r6
        0x00003c9c:    d8d2        ..      BHI      0x3c44 ; gradient_ascent + 152
        0x00003c9e:    9812        ..      LDR      r0,[sp,#0x48]
        0x00003ca0:    f7ffff52    ..R.    BL       normalize ; 0x3b48
        0x00003ca4:    9807        ..      LDR      r0,[sp,#0x1c]
        0x00003ca6:    1c40        @.      ADDS     r0,r0,#1
        0x00003ca8:    b200        ..      SXTH     r0,r0
        0x00003caa:    9007        ..      STR      r0,[sp,#0x1c]
        0x00003cac:    217d        }!      MOVS     r1,#0x7d
        0x00003cae:    00c9        ..      LSLS     r1,r1,#3
        0x00003cb0:    9807        ..      LDR      r0,[sp,#0x1c]
        0x00003cb2:    4288        .B      CMP      r0,r1
        0x00003cb4:    db8e        ..      BLT      0x3bd4 ; gradient_ascent + 40
        0x00003cb6:    bf00        ..      NOP      
        0x00003cb8:    b013        ..      ADD      sp,sp,#0x4c
        0x00003cba:    bdf0        ..      POP      {r4-r7,pc}
    svd_calculate_v
        0x00003cbc:    b5f0        ..      PUSH     {r4-r7,lr}
        0x00003cbe:    b095        ..      SUB      sp,sp,#0x54
        0x00003cc0:    4607        .F      MOV      r7,r0
        0x00003cc2:    487d        }H      LDR      r0,[pc,#500] ; [0x3eb8] = 0x20000690
        0x00003cc4:    4b7d        }K      LDR      r3,[pc,#500] ; [0x3ebc] = 0x200006a0
        0x00003cc6:    2201        ."      MOVS     r2,#1
        0x00003cc8:    6841        Ah      LDR      r1,[r0,#4]
        0x00003cca:    a812        ..      ADD      r0,sp,#0x48
        0x00003ccc:    f7fffb08    ....    BL       matrix_init ; 0x32e0
        0x00003cd0:    4879        yH      LDR      r0,[pc,#484] ; [0x3eb8] = 0x20000690
        0x00003cd2:    4b7b        {K      LDR      r3,[pc,#492] ; [0x3ec0] = 0x200006b8
        0x00003cd4:    2201        ."      MOVS     r2,#1
        0x00003cd6:    6841        Ah      LDR      r1,[r0,#4]
        0x00003cd8:    a80f        ..      ADD      r0,sp,#0x3c
        0x00003cda:    f7fffb01    ....    BL       matrix_init ; 0x32e0
        0x00003cde:    4876        vH      LDR      r0,[pc,#472] ; [0x3eb8] = 0x20000690
        0x00003ce0:    6842        Bh      LDR      r2,[r0,#4]
        0x00003ce2:    4b78        xK      LDR      r3,[pc,#480] ; [0x3ec4] = 0x200006d0
        0x00003ce4:    6801        .h      LDR      r1,[r0,#0]
        0x00003ce6:    a80c        ..      ADD      r0,sp,#0x30
        0x00003ce8:    f7fffafa    ....    BL       matrix_init ; 0x32e0
        0x00003cec:    2400        .$      MOVS     r4,#0
        0x00003cee:    e07a        z.      B        0x3de6 ; svd_calculate_v + 298
        0x00003cf0:    2c00        .,      CMP      r4,#0
        0x00003cf2:    d117        ..      BNE      0x3d24 ; svd_calculate_v + 104
        0x00003cf4:    2500        .%      MOVS     r5,#0
        0x00003cf6:    e00d        ..      B        0x3d14 ; svd_calculate_v + 88
        0x00003cf8:    2001        .       MOVS     r0,#1
        0x00003cfa:    f000f87b    ..{.    BL       fixed_point_init ; 0x3df4
        0x00003cfe:    9002        ..      STR      r0,[sp,#8]
        0x00003d00:    9103        ..      STR      r1,[sp,#0xc]
        0x00003d02:    2200        ."      MOVS     r2,#0
        0x00003d04:    9101        ..      STR      r1,[sp,#4]
        0x00003d06:    9000        ..      STR      r0,[sp,#0]
        0x00003d08:    4629        )F      MOV      r1,r5
        0x00003d0a:    a812        ..      ADD      r0,sp,#0x48
        0x00003d0c:    f7fffb1e    ....    BL       matrix_set ; 0x334c
        0x00003d10:    1c68        h.      ADDS     r0,r5,#1
        0x00003d12:    b245        E.      SXTB     r5,r0
        0x00003d14:    9812        ..      LDR      r0,[sp,#0x48]
        0x00003d16:    42a8        .B      CMP      r0,r5
        0x00003d18:    d8ee        ..      BHI      0x3cf8 ; svd_calculate_v + 60
        0x00003d1a:    a912        ..      ADD      r1,sp,#0x48
        0x00003d1c:    4866        fH      LDR      r0,[pc,#408] ; [0x3eb8] = 0x20000690
        0x00003d1e:    f7ffff45    ..E.    BL       gradient_ascent ; 0x3bac
        0x00003d22:    e040        @.      B        0x3da6 ; svd_calculate_v + 234
        0x00003d24:    2c01        .,      CMP      r4,#1
        0x00003d26:    d13a        :.      BNE      0x3d9e ; svd_calculate_v + 226
        0x00003d28:    2001        .       MOVS     r0,#1
        0x00003d2a:    f000f863    ..c.    BL       fixed_point_init ; 0x3df4
        0x00003d2e:    2200        ."      MOVS     r2,#0
        0x00003d30:    9101        ..      STR      r1,[sp,#4]
        0x00003d32:    9000        ..      STR      r0,[sp,#0]
        0x00003d34:    4611        .F      MOV      r1,r2
        0x00003d36:    a812        ..      ADD      r0,sp,#0x48
        0x00003d38:    f7fffb08    ....    BL       matrix_set ; 0x334c
        0x00003d3c:    2002        .       MOVS     r0,#2
        0x00003d3e:    f000f859    ..Y.    BL       fixed_point_init ; 0x3df4
        0x00003d42:    2200        ."      MOVS     r2,#0
        0x00003d44:    4240        @B      RSBS     r0,r0,#0
        0x00003d46:    418a        .A      SBCS     r2,r2,r1
        0x00003d48:    9201        ..      STR      r2,[sp,#4]
        0x00003d4a:    9000        ..      STR      r0,[sp,#0]
        0x00003d4c:    2200        ."      MOVS     r2,#0
        0x00003d4e:    2101        .!      MOVS     r1,#1
        0x00003d50:    a812        ..      ADD      r0,sp,#0x48
        0x00003d52:    f7fffafb    ....    BL       matrix_set ; 0x334c
        0x00003d56:    2001        .       MOVS     r0,#1
        0x00003d58:    f000f84c    ..L.    BL       fixed_point_init ; 0x3df4
        0x00003d5c:    2200        ."      MOVS     r2,#0
        0x00003d5e:    9101        ..      STR      r1,[sp,#4]
        0x00003d60:    9000        ..      STR      r0,[sp,#0]
        0x00003d62:    2102        .!      MOVS     r1,#2
        0x00003d64:    a812        ..      ADD      r0,sp,#0x48
        0x00003d66:    f7fffaf1    ....    BL       matrix_set ; 0x334c
        0x00003d6a:    aa0f        ..      ADD      r2,sp,#0x3c
        0x00003d6c:    2100        .!      MOVS     r1,#0
        0x00003d6e:    4638        8F      MOV      r0,r7
        0x00003d70:    f7fffe96    ....    BL       matrix_get_column ; 0x3aa0
        0x00003d74:    a90c        ..      ADD      r1,sp,#0x30
        0x00003d76:    a80f        ..      ADD      r0,sp,#0x3c
        0x00003d78:    f7fffdae    ....    BL       identity_subtract_outer_product ; 0x38d8
        0x00003d7c:    4b52        RK      LDR      r3,[pc,#328] ; [0x3ec8] = 0x20000718
        0x00003d7e:    aa09        ..      ADD      r2,sp,#0x24
        0x00003d80:    494d        MI      LDR      r1,[pc,#308] ; [0x3eb8] = 0x20000690
        0x00003d82:    a80c        ..      ADD      r0,sp,#0x30
        0x00003d84:    f7fffb37    ..7.    BL       matrix_multiply ; 0x33f6
        0x00003d88:    4b50        PK      LDR      r3,[pc,#320] ; [0x3ecc] = 0x20000760
        0x00003d8a:    aa06        ..      ADD      r2,sp,#0x18
        0x00003d8c:    a90c        ..      ADD      r1,sp,#0x30
        0x00003d8e:    a809        ..      ADD      r0,sp,#0x24
        0x00003d90:    f7fffb31    ..1.    BL       matrix_multiply ; 0x33f6
        0x00003d94:    a912        ..      ADD      r1,sp,#0x48
        0x00003d96:    a806        ..      ADD      r0,sp,#0x18
        0x00003d98:    f7ffff08    ....    BL       gradient_ascent ; 0x3bac
        0x00003d9c:    e003        ..      B        0x3da6 ; svd_calculate_v + 234
        0x00003d9e:    a912        ..      ADD      r1,sp,#0x48
        0x00003da0:    4638        8F      MOV      r0,r7
        0x00003da2:    f7fffcf5    ....    BL       cross_product ; 0x3790
        0x00003da6:    a812        ..      ADD      r0,sp,#0x48
        0x00003da8:    f7fffece    ....    BL       normalize ; 0x3b48
        0x00003dac:    2000        .       MOVS     r0,#0
        0x00003dae:    f000f821    ..!.    BL       fixed_point_init ; 0x3df4
        0x00003db2:    9105        ..      STR      r1,[sp,#0x14]
        0x00003db4:    9004        ..      STR      r0,[sp,#0x10]
        0x00003db6:    2500        .%      MOVS     r5,#0
        0x00003db8:    e010        ..      B        0x3ddc ; svd_calculate_v + 288
        0x00003dba:    ab04        ..      ADD      r3,sp,#0x10
        0x00003dbc:    2200        ."      MOVS     r2,#0
        0x00003dbe:    4629        )F      MOV      r1,r5
        0x00003dc0:    a812        ..      ADD      r0,sp,#0x48
        0x00003dc2:    f7fffaa9    ....    BL       matrix_get ; 0x3318
        0x00003dc6:    9905        ..      LDR      r1,[sp,#0x14]
        0x00003dc8:    9804        ..      LDR      r0,[sp,#0x10]
        0x00003dca:    4622        "F      MOV      r2,r4
        0x00003dcc:    9101        ..      STR      r1,[sp,#4]
        0x00003dce:    9000        ..      STR      r0,[sp,#0]
        0x00003dd0:    4629        )F      MOV      r1,r5
        0x00003dd2:    4638        8F      MOV      r0,r7
        0x00003dd4:    f7fffaba    ....    BL       matrix_set ; 0x334c
        0x00003dd8:    1c68        h.      ADDS     r0,r5,#1
        0x00003dda:    b245        E.      SXTB     r5,r0
        0x00003ddc:    6838        8h      LDR      r0,[r7,#0]
        0x00003dde:    42a8        .B      CMP      r0,r5
        0x00003de0:    d8eb        ..      BHI      0x3dba ; svd_calculate_v + 254
        0x00003de2:    1c60        `.      ADDS     r0,r4,#1
        0x00003de4:    b244        D.      SXTB     r4,r0
        0x00003de6:    4834        4H      LDR      r0,[pc,#208] ; [0x3eb8] = 0x20000690
        0x00003de8:    6840        @h      LDR      r0,[r0,#4]
        0x00003dea:    42a0        .B      CMP      r0,r4
        0x00003dec:    d880        ..      BHI      0x3cf0 ; svd_calculate_v + 52
        0x00003dee:    2001        .       MOVS     r0,#1
        0x00003df0:    b015        ..      ADD      sp,sp,#0x54
        0x00003df2:    bdf0        ..      POP      {r4-r7,pc}
    fixed_point_init
        0x00003df4:    4602        .F      MOV      r2,r0
        0x00003df6:    0510        ..      LSLS     r0,r2,#20
        0x00003df8:    17c1        ..      ASRS     r1,r0,#31
        0x00003dfa:    4770        pG      BX       lr
    fixed_point_add
        0x00003dfc:    b530        0.      PUSH     {r4,r5,lr}
        0x00003dfe:    4604        .F      MOV      r4,r0
        0x00003e00:    460d        .F      MOV      r5,r1
        0x00003e02:    18a0        ..      ADDS     r0,r4,r2
        0x00003e04:    4629        )F      MOV      r1,r5
        0x00003e06:    4159        YA      ADCS     r1,r1,r3
        0x00003e08:    bd30        0.      POP      {r4,r5,pc}
    fixed_point_subtract
        0x00003e0a:    b530        0.      PUSH     {r4,r5,lr}
        0x00003e0c:    4604        .F      MOV      r4,r0
        0x00003e0e:    460d        .F      MOV      r5,r1
        0x00003e10:    4629        )F      MOV      r1,r5
        0x00003e12:    1aa0        ..      SUBS     r0,r4,r2
        0x00003e14:    4199        .A      SBCS     r1,r1,r3
        0x00003e16:    bd30        0.      POP      {r4,r5,pc}
    fixed_point_divide
        0x00003e18:    b5fe        ..      PUSH     {r1-r7,lr}
        0x00003e1a:    4604        .F      MOV      r4,r0
        0x00003e1c:    460d        .F      MOV      r5,r1
        0x00003e1e:    4616        .F      MOV      r6,r2
        0x00003e20:    461f        .F      MOV      r7,r3
        0x00003e22:    0b21        !.      LSRS     r1,r4,#12
        0x00003e24:    0528        (.      LSLS     r0,r5,#20
        0x00003e26:    4308        .C      ORRS     r0,r0,r1
        0x00003e28:    0521        !.      LSLS     r1,r4,#20
        0x00003e2a:    4632        2F      MOV      r2,r6
        0x00003e2c:    463b        ;F      MOV      r3,r7
        0x00003e2e:    9100        ..      STR      r1,[sp,#0]
        0x00003e30:    9001        ..      STR      r0,[sp,#4]
        0x00003e32:    4608        .F      MOV      r0,r1
        0x00003e34:    9901        ..      LDR      r1,[sp,#4]
        0x00003e36:    f001f9d7    ....    BL       __aeabi_ldivmod ; 0x51e8
        0x00003e3a:    b003        ..      ADD      sp,sp,#0xc
        0x00003e3c:    bdf0        ..      POP      {r4-r7,pc}
    fixed_point_square_root
        0x00003e3e:    b5f0        ..      PUSH     {r4-r7,lr}
        0x00003e40:    b089        ..      SUB      sp,sp,#0x24
        0x00003e42:    4606        .F      MOV      r6,r0
        0x00003e44:    460f        .F      MOV      r7,r1
        0x00003e46:    4634        4F      MOV      r4,r6
        0x00003e48:    463d        =F      MOV      r5,r7
        0x00003e4a:    2001        .       MOVS     r0,#1
        0x00003e4c:    f7ffffd2    ....    BL       fixed_point_init ; 0x3df4
        0x00003e50:    9107        ..      STR      r1,[sp,#0x1c]
        0x00003e52:    9006        ..      STR      r0,[sp,#0x18]
        0x00003e54:    e01a        ..      B        0x3e8c ; fixed_point_square_root + 78
        0x00003e56:    2002        .       MOVS     r0,#2
        0x00003e58:    f7ffffcc    ....    BL       fixed_point_init ; 0x3df4
        0x00003e5c:    4622        "F      MOV      r2,r4
        0x00003e5e:    462b        +F      MOV      r3,r5
        0x00003e60:    9105        ..      STR      r1,[sp,#0x14]
        0x00003e62:    9004        ..      STR      r0,[sp,#0x10]
        0x00003e64:    4630        0F      MOV      r0,r6
        0x00003e66:    4639        9F      MOV      r1,r7
        0x00003e68:    f7ffffd6    ....    BL       fixed_point_divide ; 0x3e18
        0x00003e6c:    4602        .F      MOV      r2,r0
        0x00003e6e:    460b        .F      MOV      r3,r1
        0x00003e70:    9101        ..      STR      r1,[sp,#4]
        0x00003e72:    9000        ..      STR      r0,[sp,#0]
        0x00003e74:    4620         F      MOV      r0,r4
        0x00003e76:    4629        )F      MOV      r1,r5
        0x00003e78:    f7ffffc0    ....    BL       fixed_point_add ; 0x3dfc
        0x00003e7c:    9103        ..      STR      r1,[sp,#0xc]
        0x00003e7e:    9002        ..      STR      r0,[sp,#8]
        0x00003e80:    9b05        ..      LDR      r3,[sp,#0x14]
        0x00003e82:    9a04        ..      LDR      r2,[sp,#0x10]
        0x00003e84:    f7ffffc8    ....    BL       fixed_point_divide ; 0x3e18
        0x00003e88:    4604        .F      MOV      r4,r0
        0x00003e8a:    460d        .F      MOV      r5,r1
        0x00003e8c:    4630        0F      MOV      r0,r6
        0x00003e8e:    4639        9F      MOV      r1,r7
        0x00003e90:    9b07        ..      LDR      r3,[sp,#0x1c]
        0x00003e92:    9a06        ..      LDR      r2,[sp,#0x18]
        0x00003e94:    f7fffc04    ....    BL       fixed_point_multiply ; 0x36a0
        0x00003e98:    4622        "F      MOV      r2,r4
        0x00003e9a:    462b        +F      MOV      r3,r5
        0x00003e9c:    9105        ..      STR      r1,[sp,#0x14]
        0x00003e9e:    9004        ..      STR      r0,[sp,#0x10]
        0x00003ea0:    f7ffffba    ....    BL       fixed_point_divide ; 0x3e18
        0x00003ea4:    1b00        ..      SUBS     r0,r0,r4
        0x00003ea6:    41a9        .A      SBCS     r1,r1,r5
        0x00003ea8:    dbd5        ..      BLT      0x3e56 ; fixed_point_square_root + 24
        0x00003eaa:    4620         F      MOV      r0,r4
        0x00003eac:    4629        )F      MOV      r1,r5
        0x00003eae:    b009        ..      ADD      sp,sp,#0x24
        0x00003eb0:    bdf0        ..      POP      {r4-r7,pc}
    $d
        0x00003eb2:    0000        ..      DCW    0
        0x00003eb4:    200007a8    ...     DCD    536872872
        0x00003eb8:    20000690    ...     DCD    536872592
        0x00003ebc:    200006a0    ...     DCD    536872608
        0x00003ec0:    200006b8    ...     DCD    536872632
        0x00003ec4:    200006d0    ...     DCD    536872656
        0x00003ec8:    20000718    ...     DCD    536872728
        0x00003ecc:    20000760    `..     DCD    536872800
    $t
    .text
    fixed_point_multiply
        0x00003ed0:    b5f0        ..      PUSH     {r4-r7,lr}
        0x00003ed2:    b41f        ..      PUSH     {r0-r4}
        0x00003ed4:    b08c        ..      SUB      sp,sp,#0x30
        0x00003ed6:    4604        .F      MOV      r4,r0
        0x00003ed8:    460d        .F      MOV      r5,r1
        0x00003eda:    2000        .       MOVS     r0,#0
        0x00003edc:    4601        .F      MOV      r1,r0
        0x00003ede:    1b00        ..      SUBS     r0,r0,r4
        0x00003ee0:    41a9        .A      SBCS     r1,r1,r5
        0x00003ee2:    da02        ..      BGE      0x3eea ; fixed_point_multiply + 26
        0x00003ee4:    4620         F      MOV      r0,r4
        0x00003ee6:    4629        )F      MOV      r1,r5
        0x00003ee8:    e002        ..      B        0x3ef0 ; fixed_point_multiply + 32
        0x00003eea:    2100        .!      MOVS     r1,#0
        0x00003eec:    4260        `B      RSBS     r0,r4,#0
        0x00003eee:    41a9        .A      SBCS     r1,r1,r5
        0x00003ef0:    9107        ..      STR      r1,[sp,#0x1c]
        0x00003ef2:    9006        ..      STR      r0,[sp,#0x18]
        0x00003ef4:    2200        ."      MOVS     r2,#0
        0x00003ef6:    4613        .F      MOV      r3,r2
        0x00003ef8:    990e        ..      LDR      r1,[sp,#0x38]
        0x00003efa:    980f        ..      LDR      r0,[sp,#0x3c]
        0x00003efc:    1a51        Q.      SUBS     r1,r2,r1
        0x00003efe:    4183        .A      SBCS     r3,r3,r0
        0x00003f00:    da02        ..      BGE      0x3f08 ; fixed_point_multiply + 56
        0x00003f02:    990f        ..      LDR      r1,[sp,#0x3c]
        0x00003f04:    980e        ..      LDR      r0,[sp,#0x38]
        0x00003f06:    e005        ..      B        0x3f14 ; fixed_point_multiply + 68
        0x00003f08:    2100        .!      MOVS     r1,#0
        0x00003f0a:    9a0e        ..      LDR      r2,[sp,#0x38]
        0x00003f0c:    980f        ..      LDR      r0,[sp,#0x3c]
        0x00003f0e:    4252        RB      RSBS     r2,r2,#0
        0x00003f10:    4181        .A      SBCS     r1,r1,r0
        0x00003f12:    4610        .F      MOV      r0,r2
        0x00003f14:    9105        ..      STR      r1,[sp,#0x14]
        0x00003f16:    9004        ..      STR      r0,[sp,#0x10]
        0x00003f18:    2100        .!      MOVS     r1,#0
        0x00003f1a:    9102        ..      STR      r1,[sp,#8]
        0x00003f1c:    9103        ..      STR      r1,[sp,#0xc]
        0x00003f1e:    2700        .'      MOVS     r7,#0
        0x00003f20:    e01c        ..      B        0x3f5c ; fixed_point_multiply + 140
        0x00003f22:    463a        :F      MOV      r2,r7
        0x00003f24:    9e04        ..      LDR      r6,[sp,#0x10]
        0x00003f26:    9805        ..      LDR      r0,[sp,#0x14]
        0x00003f28:    9009        ..      STR      r0,[sp,#0x24]
        0x00003f2a:    4630        0F      MOV      r0,r6
        0x00003f2c:    9909        ..      LDR      r1,[sp,#0x24]
        0x00003f2e:    f001f948    ..H.    BL       __aeabi_lasr ; 0x51c2
        0x00003f32:    2301        .#      MOVS     r3,#1
        0x00003f34:    4018        .@      ANDS     r0,r0,r3
        0x00003f36:    2100        .!      MOVS     r1,#0
        0x00003f38:    4048        H@      EORS     r0,r0,r1
        0x00003f3a:    4049        I@      EORS     r1,r1,r1
        0x00003f3c:    4308        .C      ORRS     r0,r0,r1
        0x00003f3e:    d00c        ..      BEQ      0x3f5a ; fixed_point_multiply + 138
        0x00003f40:    463a        :F      MOV      r2,r7
        0x00003f42:    9907        ..      LDR      r1,[sp,#0x1c]
        0x00003f44:    9806        ..      LDR      r0,[sp,#0x18]
        0x00003f46:    910a        ..      STR      r1,[sp,#0x28]
        0x00003f48:    900b        ..      STR      r0,[sp,#0x2c]
        0x00003f4a:    f001f92a    ..*.    BL       __aeabi_llsl ; 0x51a2
        0x00003f4e:    9b03        ..      LDR      r3,[sp,#0xc]
        0x00003f50:    9a02        ..      LDR      r2,[sp,#8]
        0x00003f52:    1880        ..      ADDS     r0,r0,r2
        0x00003f54:    4159        YA      ADCS     r1,r1,r3
        0x00003f56:    9103        ..      STR      r1,[sp,#0xc]
        0x00003f58:    9002        ..      STR      r0,[sp,#8]
        0x00003f5a:    1c7f        ..      ADDS     r7,r7,#1
        0x00003f5c:    2f40        @/      CMP      r7,#0x40
        0x00003f5e:    d3e0        ..      BCC      0x3f22 ; fixed_point_multiply + 82
        0x00003f60:    9903        ..      LDR      r1,[sp,#0xc]
        0x00003f62:    030a        ..      LSLS     r2,r1,#12
        0x00003f64:    9802        ..      LDR      r0,[sp,#8]
        0x00003f66:    0d00        ..      LSRS     r0,r0,#20
        0x00003f68:    4310        .C      ORRS     r0,r0,r2
        0x00003f6a:    1509        ..      ASRS     r1,r1,#20
        0x00003f6c:    9101        ..      STR      r1,[sp,#4]
        0x00003f6e:    9000        ..      STR      r0,[sp,#0]
        0x00003f70:    2100        .!      MOVS     r1,#0
        0x00003f72:    4608        .F      MOV      r0,r1
        0x00003f74:    462a        *F      MOV      r2,r5
        0x00003f76:    1a61        a.      SUBS     r1,r4,r1
        0x00003f78:    4182        .A      SBCS     r2,r2,r0
        0x00003f7a:    da01        ..      BGE      0x3f80 ; fixed_point_multiply + 176
        0x00003f7c:    2201        ."      MOVS     r2,#1
        0x00003f7e:    e000        ..      B        0x3f82 ; fixed_point_multiply + 178
        0x00003f80:    2200        ."      MOVS     r2,#0
        0x00003f82:    2700        .'      MOVS     r7,#0
        0x00003f84:    990f        ..      LDR      r1,[sp,#0x3c]
        0x00003f86:    980e        ..      LDR      r0,[sp,#0x38]
        0x00003f88:    1bc0        ..      SUBS     r0,r0,r7
        0x00003f8a:    41b9        .A      SBCS     r1,r1,r7
        0x00003f8c:    da01        ..      BGE      0x3f92 ; fixed_point_multiply + 194
        0x00003f8e:    2001        .       MOVS     r0,#1
        0x00003f90:    e000        ..      B        0x3f94 ; fixed_point_multiply + 196
        0x00003f92:    2000        .       MOVS     r0,#0
        0x00003f94:    4042        B@      EORS     r2,r2,r0
        0x00003f96:    2a00        .*      CMP      r2,#0
        0x00003f98:    d007        ..      BEQ      0x3faa ; fixed_point_multiply + 218
        0x00003f9a:    2200        ."      MOVS     r2,#0
        0x00003f9c:    9901        ..      LDR      r1,[sp,#4]
        0x00003f9e:    9800        ..      LDR      r0,[sp,#0]
        0x00003fa0:    4240        @B      RSBS     r0,r0,#0
        0x00003fa2:    418a        .A      SBCS     r2,r2,r1
        0x00003fa4:    4611        .F      MOV      r1,r2
        0x00003fa6:    b011        ..      ADD      sp,sp,#0x44
        0x00003fa8:    bdf0        ..      POP      {r4-r7,pc}
        0x00003faa:    9901        ..      LDR      r1,[sp,#4]
        0x00003fac:    9800        ..      LDR      r0,[sp,#0]
        0x00003fae:    e7fa        ..      B        0x3fa6 ; fixed_point_multiply + 214
    fixed_point_square_root
        0x00003fb0:    b5f0        ..      PUSH     {r4-r7,lr}
        0x00003fb2:    b089        ..      SUB      sp,sp,#0x24
        0x00003fb4:    4606        .F      MOV      r6,r0
        0x00003fb6:    460f        .F      MOV      r7,r1
        0x00003fb8:    4634        4F      MOV      r4,r6
        0x00003fba:    463d        =F      MOV      r5,r7
        0x00003fbc:    2001        .       MOVS     r0,#1
        0x00003fbe:    f000fe2d    ..-.    BL       fixed_point_init ; 0x4c1c
        0x00003fc2:    9107        ..      STR      r1,[sp,#0x1c]
        0x00003fc4:    9006        ..      STR      r0,[sp,#0x18]
        0x00003fc6:    e01a        ..      B        0x3ffe ; fixed_point_square_root + 78
        0x00003fc8:    2002        .       MOVS     r0,#2
        0x00003fca:    f000fe27    ..'.    BL       fixed_point_init ; 0x4c1c
        0x00003fce:    4622        "F      MOV      r2,r4
        0x00003fd0:    462b        +F      MOV      r3,r5
        0x00003fd2:    9105        ..      STR      r1,[sp,#0x14]
        0x00003fd4:    9004        ..      STR      r0,[sp,#0x10]
        0x00003fd6:    4630        0F      MOV      r0,r6
        0x00003fd8:    4639        9F      MOV      r1,r7
        0x00003fda:    f000fe31    ..1.    BL       fixed_point_divide ; 0x4c40
        0x00003fde:    4602        .F      MOV      r2,r0
        0x00003fe0:    460b        .F      MOV      r3,r1
        0x00003fe2:    9101        ..      STR      r1,[sp,#4]
        0x00003fe4:    9000        ..      STR      r0,[sp,#0]
        0x00003fe6:    4620         F      MOV      r0,r4
        0x00003fe8:    4629        )F      MOV      r1,r5
        0x00003fea:    f000fe1b    ....    BL       fixed_point_add ; 0x4c24
        0x00003fee:    9103        ..      STR      r1,[sp,#0xc]
        0x00003ff0:    9002        ..      STR      r0,[sp,#8]
        0x00003ff2:    9b05        ..      LDR      r3,[sp,#0x14]
        0x00003ff4:    9a04        ..      LDR      r2,[sp,#0x10]
        0x00003ff6:    f000fe23    ..#.    BL       fixed_point_divide ; 0x4c40
        0x00003ffa:    4604        .F      MOV      r4,r0
        0x00003ffc:    460d        .F      MOV      r5,r1
        0x00003ffe:    4630        0F      MOV      r0,r6
        0x00004000:    4639        9F      MOV      r1,r7
        0x00004002:    9b07        ..      LDR      r3,[sp,#0x1c]
        0x00004004:    9a06        ..      LDR      r2,[sp,#0x18]
        0x00004006:    f7ffff63    ..c.    BL       fixed_point_multiply ; 0x3ed0
        0x0000400a:    4622        "F      MOV      r2,r4
        0x0000400c:    462b        +F      MOV      r3,r5
        0x0000400e:    9105        ..      STR      r1,[sp,#0x14]
        0x00004010:    9004        ..      STR      r0,[sp,#0x10]
        0x00004012:    f000fe15    ....    BL       fixed_point_divide ; 0x4c40
        0x00004016:    1b00        ..      SUBS     r0,r0,r4
        0x00004018:    41a9        .A      SBCS     r1,r1,r5
        0x0000401a:    dbd5        ..      BLT      0x3fc8 ; fixed_point_square_root + 24
        0x0000401c:    4620         F      MOV      r0,r4
        0x0000401e:    4629        )F      MOV      r1,r5
        0x00004020:    b009        ..      ADD      sp,sp,#0x24
        0x00004022:    bdf0        ..      POP      {r4-r7,pc}
    eigenvalues
        0x00004024:    b5f3        ..      PUSH     {r0,r1,r4-r7,lr}
        0x00004026:    b095        ..      SUB      sp,sp,#0x54
        0x00004028:    2000        .       MOVS     r0,#0
        0x0000402a:    f000fdf7    ....    BL       fixed_point_init ; 0x4c1c
        0x0000402e:    9113        ..      STR      r1,[sp,#0x4c]
        0x00004030:    9012        ..      STR      r0,[sp,#0x48]
        0x00004032:    2000        .       MOVS     r0,#0
        0x00004034:    f000fdf2    ....    BL       fixed_point_init ; 0x4c1c
        0x00004038:    9111        ..      STR      r1,[sp,#0x44]
        0x0000403a:    9010        ..      STR      r0,[sp,#0x40]
        0x0000403c:    2000        .       MOVS     r0,#0
        0x0000403e:    f000fded    ....    BL       fixed_point_init ; 0x4c1c
        0x00004042:    910f        ..      STR      r1,[sp,#0x3c]
        0x00004044:    900e        ..      STR      r0,[sp,#0x38]
        0x00004046:    2000        .       MOVS     r0,#0
        0x00004048:    f000fde8    ....    BL       fixed_point_init ; 0x4c1c
        0x0000404c:    910d        ..      STR      r1,[sp,#0x34]
        0x0000404e:    900c        ..      STR      r0,[sp,#0x30]
        0x00004050:    ab12        ..      ADD      r3,sp,#0x48
        0x00004052:    2200        ."      MOVS     r2,#0
        0x00004054:    4611        .F      MOV      r1,r2
        0x00004056:    9815        ..      LDR      r0,[sp,#0x54]
        0x00004058:    f7fff95e    ..^.    BL       matrix_get ; 0x3318
        0x0000405c:    ab10        ..      ADD      r3,sp,#0x40
        0x0000405e:    2201        ."      MOVS     r2,#1
        0x00004060:    2100        .!      MOVS     r1,#0
        0x00004062:    9815        ..      LDR      r0,[sp,#0x54]
        0x00004064:    f7fff958    ..X.    BL       matrix_get ; 0x3318
        0x00004068:    ab0e        ..      ADD      r3,sp,#0x38
        0x0000406a:    2200        ."      MOVS     r2,#0
        0x0000406c:    2101        .!      MOVS     r1,#1
        0x0000406e:    9815        ..      LDR      r0,[sp,#0x54]
        0x00004070:    f7fff952    ..R.    BL       matrix_get ; 0x3318
        0x00004074:    ab0c        ..      ADD      r3,sp,#0x30
        0x00004076:    2201        ."      MOVS     r2,#1
        0x00004078:    4611        .F      MOV      r1,r2
        0x0000407a:    9815        ..      LDR      r0,[sp,#0x54]
        0x0000407c:    f7fff94c    ..L.    BL       matrix_get ; 0x3318
        0x00004080:    9b0f        ..      LDR      r3,[sp,#0x3c]
        0x00004082:    9a0e        ..      LDR      r2,[sp,#0x38]
        0x00004084:    9911        ..      LDR      r1,[sp,#0x44]
        0x00004086:    9810        ..      LDR      r0,[sp,#0x40]
        0x00004088:    f7ffff22    ..".    BL       fixed_point_multiply ; 0x3ed0
        0x0000408c:    9105        ..      STR      r1,[sp,#0x14]
        0x0000408e:    9004        ..      STR      r0,[sp,#0x10]
        0x00004090:    9b0d        ..      LDR      r3,[sp,#0x34]
        0x00004092:    9a0c        ..      LDR      r2,[sp,#0x30]
        0x00004094:    9913        ..      LDR      r1,[sp,#0x4c]
        0x00004096:    9812        ..      LDR      r0,[sp,#0x48]
        0x00004098:    f7ffff1a    ....    BL       fixed_point_multiply ; 0x3ed0
        0x0000409c:    9103        ..      STR      r1,[sp,#0xc]
        0x0000409e:    9002        ..      STR      r0,[sp,#8]
        0x000040a0:    9b05        ..      LDR      r3,[sp,#0x14]
        0x000040a2:    9a04        ..      LDR      r2,[sp,#0x10]
        0x000040a4:    f000fdc5    ....    BL       fixed_point_subtract ; 0x4c32
        0x000040a8:    910b        ..      STR      r1,[sp,#0x2c]
        0x000040aa:    900a        ..      STR      r0,[sp,#0x28]
        0x000040ac:    9b0d        ..      LDR      r3,[sp,#0x34]
        0x000040ae:    9a0c        ..      LDR      r2,[sp,#0x30]
        0x000040b0:    9913        ..      LDR      r1,[sp,#0x4c]
        0x000040b2:    9812        ..      LDR      r0,[sp,#0x48]
        0x000040b4:    f000fdb6    ....    BL       fixed_point_add ; 0x4c24
        0x000040b8:    9109        ..      STR      r1,[sp,#0x24]
        0x000040ba:    9008        ..      STR      r0,[sp,#0x20]
        0x000040bc:    2004        .       MOVS     r0,#4
        0x000040be:    f000fdad    ....    BL       fixed_point_init ; 0x4c1c
        0x000040c2:    9101        ..      STR      r1,[sp,#4]
        0x000040c4:    9000        ..      STR      r0,[sp,#0]
        0x000040c6:    9b0b        ..      LDR      r3,[sp,#0x2c]
        0x000040c8:    9a0a        ..      LDR      r2,[sp,#0x28]
        0x000040ca:    f7ffff01    ....    BL       fixed_point_multiply ; 0x3ed0
        0x000040ce:    9105        ..      STR      r1,[sp,#0x14]
        0x000040d0:    9004        ..      STR      r0,[sp,#0x10]
        0x000040d2:    9909        ..      LDR      r1,[sp,#0x24]
        0x000040d4:    9808        ..      LDR      r0,[sp,#0x20]
        0x000040d6:    9101        ..      STR      r1,[sp,#4]
        0x000040d8:    9000        ..      STR      r0,[sp,#0]
        0x000040da:    9a00        ..      LDR      r2,[sp,#0]
        0x000040dc:    4610        .F      MOV      r0,r2
        0x000040de:    9b01        ..      LDR      r3,[sp,#4]
        0x000040e0:    4619        .F      MOV      r1,r3
        0x000040e2:    f7fffef5    ....    BL       fixed_point_multiply ; 0x3ed0
        0x000040e6:    9103        ..      STR      r1,[sp,#0xc]
        0x000040e8:    9002        ..      STR      r0,[sp,#8]
        0x000040ea:    9b05        ..      LDR      r3,[sp,#0x14]
        0x000040ec:    9a04        ..      LDR      r2,[sp,#0x10]
        0x000040ee:    f000fda0    ....    BL       fixed_point_subtract ; 0x4c32
        0x000040f2:    9107        ..      STR      r1,[sp,#0x1c]
        0x000040f4:    9006        ..      STR      r0,[sp,#0x18]
        0x000040f6:    2000        .       MOVS     r0,#0
        0x000040f8:    f000fd90    ....    BL       fixed_point_init ; 0x4c1c
        0x000040fc:    9b07        ..      LDR      r3,[sp,#0x1c]
        0x000040fe:    9a06        ..      LDR      r2,[sp,#0x18]
        0x00004100:    1a10        ..      SUBS     r0,r2,r0
        0x00004102:    418b        .A      SBCS     r3,r3,r1
        0x00004104:    da07        ..      BGE      0x4116 ; eigenvalues + 242
        0x00004106:    2001        .       MOVS     r0,#1
        0x00004108:    f000fd88    ....    BL       fixed_point_init ; 0x4c1c
        0x0000410c:    9a16        ..      LDR      r2,[sp,#0x58]
        0x0000410e:    c203        ..      STM      r2!,{r0,r1}
        0x00004110:    a0fe        ..      ADR      r0,{pc}+0x3fc ; 0x450c
        0x00004112:    f001f8a1    ....    BL       __2printf ; 0x5258
        0x00004116:    2002        .       MOVS     r0,#2
        0x00004118:    f000fd80    ....    BL       fixed_point_init ; 0x4c1c
        0x0000411c:    9105        ..      STR      r1,[sp,#0x14]
        0x0000411e:    9004        ..      STR      r0,[sp,#0x10]
        0x00004120:    9907        ..      LDR      r1,[sp,#0x1c]
        0x00004122:    9806        ..      LDR      r0,[sp,#0x18]
        0x00004124:    f7ffff44    ..D.    BL       fixed_point_square_root ; 0x3fb0
        0x00004128:    4602        .F      MOV      r2,r0
        0x0000412a:    460b        .F      MOV      r3,r1
        0x0000412c:    9101        ..      STR      r1,[sp,#4]
        0x0000412e:    9000        ..      STR      r0,[sp,#0]
        0x00004130:    9909        ..      LDR      r1,[sp,#0x24]
        0x00004132:    9808        ..      LDR      r0,[sp,#0x20]
        0x00004134:    f000fd76    ..v.    BL       fixed_point_add ; 0x4c24
        0x00004138:    9103        ..      STR      r1,[sp,#0xc]
        0x0000413a:    9002        ..      STR      r0,[sp,#8]
        0x0000413c:    9b05        ..      LDR      r3,[sp,#0x14]
        0x0000413e:    9a04        ..      LDR      r2,[sp,#0x10]
        0x00004140:    f000fd7e    ..~.    BL       fixed_point_divide ; 0x4c40
        0x00004144:    460d        .F      MOV      r5,r1
        0x00004146:    4604        .F      MOV      r4,r0
        0x00004148:    2002        .       MOVS     r0,#2
        0x0000414a:    f000fd67    ..g.    BL       fixed_point_init ; 0x4c1c
        0x0000414e:    9105        ..      STR      r1,[sp,#0x14]
        0x00004150:    9004        ..      STR      r0,[sp,#0x10]
        0x00004152:    9907        ..      LDR      r1,[sp,#0x1c]
        0x00004154:    9806        ..      LDR      r0,[sp,#0x18]
        0x00004156:    f7ffff2b    ..+.    BL       fixed_point_square_root ; 0x3fb0
        0x0000415a:    4602        .F      MOV      r2,r0
        0x0000415c:    460b        .F      MOV      r3,r1
        0x0000415e:    9101        ..      STR      r1,[sp,#4]
        0x00004160:    9000        ..      STR      r0,[sp,#0]
        0x00004162:    9909        ..      LDR      r1,[sp,#0x24]
        0x00004164:    9808        ..      LDR      r0,[sp,#0x20]
        0x00004166:    f000fd5d    ..].    BL       fixed_point_add ; 0x4c24
        0x0000416a:    9103        ..      STR      r1,[sp,#0xc]
        0x0000416c:    9002        ..      STR      r0,[sp,#8]
        0x0000416e:    9b05        ..      LDR      r3,[sp,#0x14]
        0x00004170:    9a04        ..      LDR      r2,[sp,#0x10]
        0x00004172:    f000fd65    ..e.    BL       fixed_point_divide ; 0x4c40
        0x00004176:    4606        .F      MOV      r6,r0
        0x00004178:    460f        .F      MOV      r7,r1
        0x0000417a:    2000        .       MOVS     r0,#0
        0x0000417c:    f000fd4e    ..N.    BL       fixed_point_init ; 0x4c1c
        0x00004180:    462a        *F      MOV      r2,r5
        0x00004182:    1a20         .      SUBS     r0,r4,r0
        0x00004184:    418a        .A      SBCS     r2,r2,r1
        0x00004186:    db03        ..      BLT      0x4190 ; eigenvalues + 364
        0x00004188:    4638        8F      MOV      r0,r7
        0x0000418a:    1b31        1.      SUBS     r1,r6,r4
        0x0000418c:    41a8        .A      SBCS     r0,r0,r5
        0x0000418e:    da0c        ..      BGE      0x41aa ; eigenvalues + 390
        0x00004190:    2000        .       MOVS     r0,#0
        0x00004192:    f000fd43    ..C.    BL       fixed_point_init ; 0x4c1c
        0x00004196:    463a        :F      MOV      r2,r7
        0x00004198:    1a30        0.      SUBS     r0,r6,r0
        0x0000419a:    418a        .A      SBCS     r2,r2,r1
        0x0000419c:    da02        ..      BGE      0x41a4 ; eigenvalues + 384
        0x0000419e:    a0e1        ..      ADR      r0,{pc}+0x386 ; 0x4524
        0x000041a0:    f001f85a    ..Z.    BL       __2printf ; 0x5258
        0x000041a4:    9816        ..      LDR      r0,[sp,#0x58]
        0x000041a6:    c0c0        ..      STM      r0!,{r6,r7}
        0x000041a8:    e001        ..      B        0x41ae ; eigenvalues + 394
        0x000041aa:    9816        ..      LDR      r0,[sp,#0x58]
        0x000041ac:    c030        0.      STM      r0!,{r4,r5}
        0x000041ae:    2001        .       MOVS     r0,#1
        0x000041b0:    b017        ..      ADD      sp,sp,#0x5c
        0x000041b2:    bdf0        ..      POP      {r4-r7,pc}
    form_data_matrix
        0x000041b4:    b507        ..      PUSH     {r0-r2,lr}
        0x000041b6:    b098        ..      SUB      sp,sp,#0x60
        0x000041b8:    2000        .       MOVS     r0,#0
        0x000041ba:    f000fd2f    ../.    BL       fixed_point_init ; 0x4c1c
        0x000041be:    9117        ..      STR      r1,[sp,#0x5c]
        0x000041c0:    9016        ..      STR      r0,[sp,#0x58]
        0x000041c2:    2000        .       MOVS     r0,#0
        0x000041c4:    f000fd2a    ..*.    BL       fixed_point_init ; 0x4c1c
        0x000041c8:    9115        ..      STR      r1,[sp,#0x54]
        0x000041ca:    9014        ..      STR      r0,[sp,#0x50]
        0x000041cc:    2000        .       MOVS     r0,#0
        0x000041ce:    f000fd25    ..%.    BL       fixed_point_init ; 0x4c1c
        0x000041d2:    9113        ..      STR      r1,[sp,#0x4c]
        0x000041d4:    9012        ..      STR      r0,[sp,#0x48]
        0x000041d6:    9819        ..      LDR      r0,[sp,#0x64]
        0x000041d8:    1e40        @.      SUBS     r0,r0,#1
        0x000041da:    0041        A.      LSLS     r1,r0,#1
        0x000041dc:    9818        ..      LDR      r0,[sp,#0x60]
        0x000041de:    5a41        AZ      LDRH     r1,[r0,r1]
        0x000041e0:    4608        .F      MOV      r0,r1
        0x000041e2:    910f        ..      STR      r1,[sp,#0x3c]
        0x000041e4:    f000fd1a    ....    BL       fixed_point_init ; 0x4c1c
        0x000041e8:    9111        ..      STR      r1,[sp,#0x44]
        0x000041ea:    9010        ..      STR      r0,[sp,#0x40]
        0x000041ec:    2000        .       MOVS     r0,#0
        0x000041ee:    900f        ..      STR      r0,[sp,#0x3c]
        0x000041f0:    e0b5        ..      B        0x435e ; form_data_matrix + 426
        0x000041f2:    980f        ..      LDR      r0,[sp,#0x3c]
        0x000041f4:    0041        A.      LSLS     r1,r0,#1
        0x000041f6:    9818        ..      LDR      r0,[sp,#0x60]
        0x000041f8:    5a41        AZ      LDRH     r1,[r0,r1]
        0x000041fa:    4608        .F      MOV      r0,r1
        0x000041fc:    9105        ..      STR      r1,[sp,#0x14]
        0x000041fe:    f000fd0d    ....    BL       fixed_point_init ; 0x4c1c
        0x00004202:    9107        ..      STR      r1,[sp,#0x1c]
        0x00004204:    9006        ..      STR      r0,[sp,#0x18]
        0x00004206:    9b11        ..      LDR      r3,[sp,#0x44]
        0x00004208:    9a10        ..      LDR      r2,[sp,#0x40]
        0x0000420a:    f000fd12    ....    BL       fixed_point_subtract ; 0x4c32
        0x0000420e:    460a        .F      MOV      r2,r1
        0x00004210:    068b        ..      LSLS     r3,r1,#26
        0x00004212:    0981        ..      LSRS     r1,r0,#6
        0x00004214:    4319        .C      ORRS     r1,r1,r3
        0x00004216:    1190        ..      ASRS     r0,r2,#6
        0x00004218:    910a        ..      STR      r1,[sp,#0x28]
        0x0000421a:    900b        ..      STR      r0,[sp,#0x2c]
        0x0000421c:    980f        ..      LDR      r0,[sp,#0x3c]
        0x0000421e:    0041        A.      LSLS     r1,r0,#1
        0x00004220:    9818        ..      LDR      r0,[sp,#0x60]
        0x00004222:    5a41        AZ      LDRH     r1,[r0,r1]
        0x00004224:    4608        .F      MOV      r0,r1
        0x00004226:    9105        ..      STR      r1,[sp,#0x14]
        0x00004228:    f000fcf8    ....    BL       fixed_point_init ; 0x4c1c
        0x0000422c:    9107        ..      STR      r1,[sp,#0x1c]
        0x0000422e:    9006        ..      STR      r0,[sp,#0x18]
        0x00004230:    9b11        ..      LDR      r3,[sp,#0x44]
        0x00004232:    9a10        ..      LDR      r2,[sp,#0x40]
        0x00004234:    f000fcfd    ....    BL       fixed_point_subtract ; 0x4c32
        0x00004238:    460a        .F      MOV      r2,r1
        0x0000423a:    068b        ..      LSLS     r3,r1,#26
        0x0000423c:    0981        ..      LSRS     r1,r0,#6
        0x0000423e:    4319        .C      ORRS     r1,r1,r3
        0x00004240:    1190        ..      ASRS     r0,r2,#6
        0x00004242:    9108        ..      STR      r1,[sp,#0x20]
        0x00004244:    9009        ..      STR      r0,[sp,#0x24]
        0x00004246:    4608        .F      MOV      r0,r1
        0x00004248:    a909        ..      ADD      r1,sp,#0x24
        0x0000424a:    c90e        ..      LDM      r1,{r1-r3}
        0x0000424c:    f7fffe40    ..@.    BL       fixed_point_multiply ; 0x3ed0
        0x00004250:    4602        .F      MOV      r2,r0
        0x00004252:    460b        .F      MOV      r3,r1
        0x00004254:    910d        ..      STR      r1,[sp,#0x34]
        0x00004256:    900c        ..      STR      r0,[sp,#0x30]
        0x00004258:    9917        ..      LDR      r1,[sp,#0x5c]
        0x0000425a:    9816        ..      LDR      r0,[sp,#0x58]
        0x0000425c:    f000fce2    ....    BL       fixed_point_add ; 0x4c24
        0x00004260:    9117        ..      STR      r1,[sp,#0x5c]
        0x00004262:    9016        ..      STR      r0,[sp,#0x58]
        0x00004264:    980f        ..      LDR      r0,[sp,#0x3c]
        0x00004266:    1c40        @.      ADDS     r0,r0,#1
        0x00004268:    9919        ..      LDR      r1,[sp,#0x64]
        0x0000426a:    4288        .B      CMP      r0,r1
        0x0000426c:    d238        8.      BCS      0x42e0 ; form_data_matrix + 300
        0x0000426e:    980f        ..      LDR      r0,[sp,#0x3c]
        0x00004270:    1c40        @.      ADDS     r0,r0,#1
        0x00004272:    0041        A.      LSLS     r1,r0,#1
        0x00004274:    9818        ..      LDR      r0,[sp,#0x60]
        0x00004276:    5a41        AZ      LDRH     r1,[r0,r1]
        0x00004278:    4608        .F      MOV      r0,r1
        0x0000427a:    9105        ..      STR      r1,[sp,#0x14]
        0x0000427c:    f000fcce    ....    BL       fixed_point_init ; 0x4c1c
        0x00004280:    9107        ..      STR      r1,[sp,#0x1c]
        0x00004282:    9006        ..      STR      r0,[sp,#0x18]
        0x00004284:    9b11        ..      LDR      r3,[sp,#0x44]
        0x00004286:    9a10        ..      LDR      r2,[sp,#0x40]
        0x00004288:    f000fcd3    ....    BL       fixed_point_subtract ; 0x4c32
        0x0000428c:    068a        ..      LSLS     r2,r1,#26
        0x0000428e:    0980        ..      LSRS     r0,r0,#6
        0x00004290:    4310        .C      ORRS     r0,r0,r2
        0x00004292:    1189        ..      ASRS     r1,r1,#6
        0x00004294:    910b        ..      STR      r1,[sp,#0x2c]
        0x00004296:    900a        ..      STR      r0,[sp,#0x28]
        0x00004298:    980f        ..      LDR      r0,[sp,#0x3c]
        0x0000429a:    0041        A.      LSLS     r1,r0,#1
        0x0000429c:    9818        ..      LDR      r0,[sp,#0x60]
        0x0000429e:    5a41        AZ      LDRH     r1,[r0,r1]
        0x000042a0:    4608        .F      MOV      r0,r1
        0x000042a2:    9105        ..      STR      r1,[sp,#0x14]
        0x000042a4:    f000fcba    ....    BL       fixed_point_init ; 0x4c1c
        0x000042a8:    9107        ..      STR      r1,[sp,#0x1c]
        0x000042aa:    9006        ..      STR      r0,[sp,#0x18]
        0x000042ac:    9b11        ..      LDR      r3,[sp,#0x44]
        0x000042ae:    9a10        ..      LDR      r2,[sp,#0x40]
        0x000042b0:    f000fcbf    ....    BL       fixed_point_subtract ; 0x4c32
        0x000042b4:    460a        .F      MOV      r2,r1
        0x000042b6:    068b        ..      LSLS     r3,r1,#26
        0x000042b8:    0981        ..      LSRS     r1,r0,#6
        0x000042ba:    4319        .C      ORRS     r1,r1,r3
        0x000042bc:    1190        ..      ASRS     r0,r2,#6
        0x000042be:    9108        ..      STR      r1,[sp,#0x20]
        0x000042c0:    9009        ..      STR      r0,[sp,#0x24]
        0x000042c2:    4608        .F      MOV      r0,r1
        0x000042c4:    a909        ..      ADD      r1,sp,#0x24
        0x000042c6:    c90e        ..      LDM      r1,{r1-r3}
        0x000042c8:    f7fffe02    ....    BL       fixed_point_multiply ; 0x3ed0
        0x000042cc:    4602        .F      MOV      r2,r0
        0x000042ce:    460b        .F      MOV      r3,r1
        0x000042d0:    910d        ..      STR      r1,[sp,#0x34]
        0x000042d2:    900c        ..      STR      r0,[sp,#0x30]
        0x000042d4:    9915        ..      LDR      r1,[sp,#0x54]
        0x000042d6:    9814        ..      LDR      r0,[sp,#0x50]
        0x000042d8:    f000fca4    ....    BL       fixed_point_add ; 0x4c24
        0x000042dc:    9115        ..      STR      r1,[sp,#0x54]
        0x000042de:    9014        ..      STR      r0,[sp,#0x50]
        0x000042e0:    980f        ..      LDR      r0,[sp,#0x3c]
        0x000042e2:    1c80        ..      ADDS     r0,r0,#2
        0x000042e4:    9919        ..      LDR      r1,[sp,#0x64]
        0x000042e6:    4288        .B      CMP      r0,r1
        0x000042e8:    d236        6.      BCS      0x4358 ; form_data_matrix + 420
        0x000042ea:    980f        ..      LDR      r0,[sp,#0x3c]
        0x000042ec:    1c80        ..      ADDS     r0,r0,#2
        0x000042ee:    0041        A.      LSLS     r1,r0,#1
        0x000042f0:    9818        ..      LDR      r0,[sp,#0x60]
        0x000042f2:    5a41        AZ      LDRH     r1,[r0,r1]
        0x000042f4:    4608        .F      MOV      r0,r1
        0x000042f6:    9105        ..      STR      r1,[sp,#0x14]
        0x000042f8:    f000fc90    ....    BL       fixed_point_init ; 0x4c1c
        0x000042fc:    9107        ..      STR      r1,[sp,#0x1c]
        0x000042fe:    9006        ..      STR      r0,[sp,#0x18]
        0x00004300:    9b11        ..      LDR      r3,[sp,#0x44]
        0x00004302:    9a10        ..      LDR      r2,[sp,#0x40]
        0x00004304:    f000fc95    ....    BL       fixed_point_subtract ; 0x4c32
        0x00004308:    068a        ..      LSLS     r2,r1,#26
        0x0000430a:    0980        ..      LSRS     r0,r0,#6
        0x0000430c:    4310        .C      ORRS     r0,r0,r2
        0x0000430e:    1189        ..      ASRS     r1,r1,#6
        0x00004310:    910b        ..      STR      r1,[sp,#0x2c]
        0x00004312:    900a        ..      STR      r0,[sp,#0x28]
        0x00004314:    980f        ..      LDR      r0,[sp,#0x3c]
        0x00004316:    0041        A.      LSLS     r1,r0,#1
        0x00004318:    9818        ..      LDR      r0,[sp,#0x60]
        0x0000431a:    5a41        AZ      LDRH     r1,[r0,r1]
        0x0000431c:    4608        .F      MOV      r0,r1
        0x0000431e:    9105        ..      STR      r1,[sp,#0x14]
        0x00004320:    f000fc7c    ..|.    BL       fixed_point_init ; 0x4c1c
        0x00004324:    9107        ..      STR      r1,[sp,#0x1c]
        0x00004326:    9006        ..      STR      r0,[sp,#0x18]
        0x00004328:    9b11        ..      LDR      r3,[sp,#0x44]
        0x0000432a:    9a10        ..      LDR      r2,[sp,#0x40]
        0x0000432c:    f000fc81    ....    BL       fixed_point_subtract ; 0x4c32
        0x00004330:    068a        ..      LSLS     r2,r1,#26
        0x00004332:    0980        ..      LSRS     r0,r0,#6
        0x00004334:    4310        .C      ORRS     r0,r0,r2
        0x00004336:    1189        ..      ASRS     r1,r1,#6
        0x00004338:    9109        ..      STR      r1,[sp,#0x24]
        0x0000433a:    9008        ..      STR      r0,[sp,#0x20]
        0x0000433c:    9b0b        ..      LDR      r3,[sp,#0x2c]
        0x0000433e:    9a0a        ..      LDR      r2,[sp,#0x28]
        0x00004340:    f7fffdc6    ....    BL       fixed_point_multiply ; 0x3ed0
        0x00004344:    4602        .F      MOV      r2,r0
        0x00004346:    460b        .F      MOV      r3,r1
        0x00004348:    910d        ..      STR      r1,[sp,#0x34]
        0x0000434a:    900c        ..      STR      r0,[sp,#0x30]
        0x0000434c:    9913        ..      LDR      r1,[sp,#0x4c]
        0x0000434e:    9812        ..      LDR      r0,[sp,#0x48]
        0x00004350:    f000fc68    ..h.    BL       fixed_point_add ; 0x4c24
        0x00004354:    9113        ..      STR      r1,[sp,#0x4c]
        0x00004356:    9012        ..      STR      r0,[sp,#0x48]
        0x00004358:    980f        ..      LDR      r0,[sp,#0x3c]
        0x0000435a:    1c40        @.      ADDS     r0,r0,#1
        0x0000435c:    900f        ..      STR      r0,[sp,#0x3c]
        0x0000435e:    9919        ..      LDR      r1,[sp,#0x64]
        0x00004360:    980f        ..      LDR      r0,[sp,#0x3c]
        0x00004362:    4288        .B      CMP      r0,r1
        0x00004364:    d200        ..      BCS      0x4368 ; form_data_matrix + 436
        0x00004366:    e744        D.      B        0x41f2 ; form_data_matrix + 62
        0x00004368:    9819        ..      LDR      r0,[sp,#0x64]
        0x0000436a:    1e40        @.      SUBS     r0,r0,#1
        0x0000436c:    0041        A.      LSLS     r1,r0,#1
        0x0000436e:    9818        ..      LDR      r0,[sp,#0x60]
        0x00004370:    5a41        AZ      LDRH     r1,[r0,r1]
        0x00004372:    4608        .F      MOV      r0,r1
        0x00004374:    9103        ..      STR      r1,[sp,#0xc]
        0x00004376:    f000fc51    ..Q.    BL       fixed_point_init ; 0x4c1c
        0x0000437a:    9105        ..      STR      r1,[sp,#0x14]
        0x0000437c:    9004        ..      STR      r0,[sp,#0x10]
        0x0000437e:    9b11        ..      LDR      r3,[sp,#0x44]
        0x00004380:    9a10        ..      LDR      r2,[sp,#0x40]
        0x00004382:    f000fc56    ..V.    BL       fixed_point_subtract ; 0x4c32
        0x00004386:    460a        .F      MOV      r2,r1
        0x00004388:    068b        ..      LSLS     r3,r1,#26
        0x0000438a:    0981        ..      LSRS     r1,r0,#6
        0x0000438c:    4319        .C      ORRS     r1,r1,r3
        0x0000438e:    1190        ..      ASRS     r0,r2,#6
        0x00004390:    9108        ..      STR      r1,[sp,#0x20]
        0x00004392:    9009        ..      STR      r0,[sp,#0x24]
        0x00004394:    9819        ..      LDR      r0,[sp,#0x64]
        0x00004396:    1e40        @.      SUBS     r0,r0,#1
        0x00004398:    0041        A.      LSLS     r1,r0,#1
        0x0000439a:    9818        ..      LDR      r0,[sp,#0x60]
        0x0000439c:    5a41        AZ      LDRH     r1,[r0,r1]
        0x0000439e:    4608        .F      MOV      r0,r1
        0x000043a0:    9103        ..      STR      r1,[sp,#0xc]
        0x000043a2:    f000fc3b    ..;.    BL       fixed_point_init ; 0x4c1c
        0x000043a6:    9105        ..      STR      r1,[sp,#0x14]
        0x000043a8:    9004        ..      STR      r0,[sp,#0x10]
        0x000043aa:    9b11        ..      LDR      r3,[sp,#0x44]
        0x000043ac:    9a10        ..      LDR      r2,[sp,#0x40]
        0x000043ae:    f000fc40    ..@.    BL       fixed_point_subtract ; 0x4c32
        0x000043b2:    068a        ..      LSLS     r2,r1,#26
        0x000043b4:    0980        ..      LSRS     r0,r0,#6
        0x000043b6:    4310        .C      ORRS     r0,r0,r2
        0x000043b8:    1189        ..      ASRS     r1,r1,#6
        0x000043ba:    9107        ..      STR      r1,[sp,#0x1c]
        0x000043bc:    9006        ..      STR      r0,[sp,#0x18]
        0x000043be:    9b09        ..      LDR      r3,[sp,#0x24]
        0x000043c0:    9a08        ..      LDR      r2,[sp,#0x20]
        0x000043c2:    f7fffd85    ....    BL       fixed_point_multiply ; 0x3ed0
        0x000043c6:    910d        ..      STR      r1,[sp,#0x34]
        0x000043c8:    900c        ..      STR      r0,[sp,#0x30]
        0x000043ca:    9819        ..      LDR      r0,[sp,#0x64]
        0x000043cc:    1e80        ..      SUBS     r0,r0,#2
        0x000043ce:    0041        A.      LSLS     r1,r0,#1
        0x000043d0:    9818        ..      LDR      r0,[sp,#0x60]
        0x000043d2:    5a41        AZ      LDRH     r1,[r0,r1]
        0x000043d4:    4608        .F      MOV      r0,r1
        0x000043d6:    9101        ..      STR      r1,[sp,#4]
        0x000043d8:    f000fc20    .. .    BL       fixed_point_init ; 0x4c1c
        0x000043dc:    9103        ..      STR      r1,[sp,#0xc]
        0x000043de:    9002        ..      STR      r0,[sp,#8]
        0x000043e0:    9b11        ..      LDR      r3,[sp,#0x44]
        0x000043e2:    9a10        ..      LDR      r2,[sp,#0x40]
        0x000043e4:    f000fc25    ..%.    BL       fixed_point_subtract ; 0x4c32
        0x000043e8:    068a        ..      LSLS     r2,r1,#26
        0x000043ea:    0980        ..      LSRS     r0,r0,#6
        0x000043ec:    4310        .C      ORRS     r0,r0,r2
        0x000043ee:    1189        ..      ASRS     r1,r1,#6
        0x000043f0:    9107        ..      STR      r1,[sp,#0x1c]
        0x000043f2:    9006        ..      STR      r0,[sp,#0x18]
        0x000043f4:    9819        ..      LDR      r0,[sp,#0x64]
        0x000043f6:    1e80        ..      SUBS     r0,r0,#2
        0x000043f8:    0041        A.      LSLS     r1,r0,#1
        0x000043fa:    9818        ..      LDR      r0,[sp,#0x60]
        0x000043fc:    5a41        AZ      LDRH     r1,[r0,r1]
        0x000043fe:    4608        .F      MOV      r0,r1
        0x00004400:    9101        ..      STR      r1,[sp,#4]
        0x00004402:    f000fc0b    ....    BL       fixed_point_init ; 0x4c1c
        0x00004406:    9103        ..      STR      r1,[sp,#0xc]
        0x00004408:    9002        ..      STR      r0,[sp,#8]
        0x0000440a:    9b11        ..      LDR      r3,[sp,#0x44]
        0x0000440c:    9a10        ..      LDR      r2,[sp,#0x40]
        0x0000440e:    f000fc10    ....    BL       fixed_point_subtract ; 0x4c32
        0x00004412:    460a        .F      MOV      r2,r1
        0x00004414:    068b        ..      LSLS     r3,r1,#26
        0x00004416:    0981        ..      LSRS     r1,r0,#6
        0x00004418:    4319        .C      ORRS     r1,r1,r3
        0x0000441a:    1190        ..      ASRS     r0,r2,#6
        0x0000441c:    9104        ..      STR      r1,[sp,#0x10]
        0x0000441e:    9005        ..      STR      r0,[sp,#0x14]
        0x00004420:    4608        .F      MOV      r0,r1
        0x00004422:    a905        ..      ADD      r1,sp,#0x14
        0x00004424:    c90e        ..      LDM      r1,{r1-r3}
        0x00004426:    f7fffd53    ..S.    BL       fixed_point_multiply ; 0x3ed0
        0x0000442a:    4602        .F      MOV      r2,r0
        0x0000442c:    460b        .F      MOV      r3,r1
        0x0000442e:    9109        ..      STR      r1,[sp,#0x24]
        0x00004430:    9008        ..      STR      r0,[sp,#0x20]
        0x00004432:    9917        ..      LDR      r1,[sp,#0x5c]
        0x00004434:    9816        ..      LDR      r0,[sp,#0x58]
        0x00004436:    f000fbfc    ....    BL       fixed_point_subtract ; 0x4c32
        0x0000443a:    910b        ..      STR      r1,[sp,#0x2c]
        0x0000443c:    900a        ..      STR      r0,[sp,#0x28]
        0x0000443e:    9b0d        ..      LDR      r3,[sp,#0x34]
        0x00004440:    9a0c        ..      LDR      r2,[sp,#0x30]
        0x00004442:    f000fbf6    ....    BL       fixed_point_subtract ; 0x4c32
        0x00004446:    900e        ..      STR      r0,[sp,#0x38]
        0x00004448:    910f        ..      STR      r1,[sp,#0x3c]
        0x0000444a:    2200        ."      MOVS     r2,#0
        0x0000444c:    9101        ..      STR      r1,[sp,#4]
        0x0000444e:    9000        ..      STR      r0,[sp,#0]
        0x00004450:    4611        .F      MOV      r1,r2
        0x00004452:    483b        ;H      LDR      r0,[pc,#236] ; [0x4540] = 0x200007c0
        0x00004454:    f7feff7a    ..z.    BL       matrix_set ; 0x334c
        0x00004458:    9819        ..      LDR      r0,[sp,#0x64]
        0x0000445a:    1e40        @.      SUBS     r0,r0,#1
        0x0000445c:    0041        A.      LSLS     r1,r0,#1
        0x0000445e:    9818        ..      LDR      r0,[sp,#0x60]
        0x00004460:    5a41        AZ      LDRH     r1,[r0,r1]
        0x00004462:    4608        .F      MOV      r0,r1
        0x00004464:    9105        ..      STR      r1,[sp,#0x14]
        0x00004466:    f000fbd9    ....    BL       fixed_point_init ; 0x4c1c
        0x0000446a:    9107        ..      STR      r1,[sp,#0x1c]
        0x0000446c:    9006        ..      STR      r0,[sp,#0x18]
        0x0000446e:    9b11        ..      LDR      r3,[sp,#0x44]
        0x00004470:    9a10        ..      LDR      r2,[sp,#0x40]
        0x00004472:    f000fbde    ....    BL       fixed_point_subtract ; 0x4c32
        0x00004476:    460a        .F      MOV      r2,r1
        0x00004478:    068b        ..      LSLS     r3,r1,#26
        0x0000447a:    0981        ..      LSRS     r1,r0,#6
        0x0000447c:    4319        .C      ORRS     r1,r1,r3
        0x0000447e:    1190        ..      ASRS     r0,r2,#6
        0x00004480:    910a        ..      STR      r1,[sp,#0x28]
        0x00004482:    900b        ..      STR      r0,[sp,#0x2c]
        0x00004484:    9819        ..      LDR      r0,[sp,#0x64]
        0x00004486:    1e80        ..      SUBS     r0,r0,#2
        0x00004488:    0041        A.      LSLS     r1,r0,#1
        0x0000448a:    9818        ..      LDR      r0,[sp,#0x60]
        0x0000448c:    5a41        AZ      LDRH     r1,[r0,r1]
        0x0000448e:    4608        .F      MOV      r0,r1
        0x00004490:    9105        ..      STR      r1,[sp,#0x14]
        0x00004492:    f000fbc3    ....    BL       fixed_point_init ; 0x4c1c
        0x00004496:    9107        ..      STR      r1,[sp,#0x1c]
        0x00004498:    9006        ..      STR      r0,[sp,#0x18]
        0x0000449a:    9b11        ..      LDR      r3,[sp,#0x44]
        0x0000449c:    9a10        ..      LDR      r2,[sp,#0x40]
        0x0000449e:    f000fbc8    ....    BL       fixed_point_subtract ; 0x4c32
        0x000044a2:    460a        .F      MOV      r2,r1
        0x000044a4:    068b        ..      LSLS     r3,r1,#26
        0x000044a6:    0981        ..      LSRS     r1,r0,#6
        0x000044a8:    4319        .C      ORRS     r1,r1,r3
        0x000044aa:    1190        ..      ASRS     r0,r2,#6
        0x000044ac:    9108        ..      STR      r1,[sp,#0x20]
        0x000044ae:    9009        ..      STR      r0,[sp,#0x24]
        0x000044b0:    4608        .F      MOV      r0,r1
        0x000044b2:    a909        ..      ADD      r1,sp,#0x24
        0x000044b4:    c90e        ..      LDM      r1,{r1-r3}
        0x000044b6:    f7fffd0b    ....    BL       fixed_point_multiply ; 0x3ed0
        0x000044ba:    4602        .F      MOV      r2,r0
        0x000044bc:    460b        .F      MOV      r3,r1
        0x000044be:    910d        ..      STR      r1,[sp,#0x34]
        0x000044c0:    900c        ..      STR      r0,[sp,#0x30]
        0x000044c2:    9915        ..      LDR      r1,[sp,#0x54]
        0x000044c4:    9814        ..      LDR      r0,[sp,#0x50]
        0x000044c6:    f000fbb4    ....    BL       fixed_point_subtract ; 0x4c32
        0x000044ca:    910f        ..      STR      r1,[sp,#0x3c]
        0x000044cc:    900e        ..      STR      r0,[sp,#0x38]
        0x000044ce:    4601        .F      MOV      r1,r0
        0x000044d0:    980f        ..      LDR      r0,[sp,#0x3c]
        0x000044d2:    2201        ."      MOVS     r2,#1
        0x000044d4:    9100        ..      STR      r1,[sp,#0]
        0x000044d6:    9001        ..      STR      r0,[sp,#4]
        0x000044d8:    2100        .!      MOVS     r1,#0
        0x000044da:    4819        .H      LDR      r0,[pc,#100] ; [0x4540] = 0x200007c0
        0x000044dc:    f7feff36    ..6.    BL       matrix_set ; 0x334c
        0x000044e0:    9913        ..      LDR      r1,[sp,#0x4c]
        0x000044e2:    9812        ..      LDR      r0,[sp,#0x48]
        0x000044e4:    2202        ."      MOVS     r2,#2
        0x000044e6:    9101        ..      STR      r1,[sp,#4]
        0x000044e8:    9000        ..      STR      r0,[sp,#0]
        0x000044ea:    2100        .!      MOVS     r1,#0
        0x000044ec:    4814        .H      LDR      r0,[pc,#80] ; [0x4540] = 0x200007c0
        0x000044ee:    f7feff2d    ..-.    BL       matrix_set ; 0x334c
        0x000044f2:    9819        ..      LDR      r0,[sp,#0x64]
        0x000044f4:    1e40        @.      SUBS     r0,r0,#1
        0x000044f6:    0041        A.      LSLS     r1,r0,#1
        0x000044f8:    9818        ..      LDR      r0,[sp,#0x60]
        0x000044fa:    5a41        AZ      LDRH     r1,[r0,r1]
        0x000044fc:    4608        .F      MOV      r0,r1
        0x000044fe:    9105        ..      STR      r1,[sp,#0x14]
        0x00004500:    f000fb8c    ....    BL       fixed_point_init ; 0x4c1c
        0x00004504:    9107        ..      STR      r1,[sp,#0x1c]
        0x00004506:    9006        ..      STR      r0,[sp,#0x18]
        0x00004508:    9b11        ..      LDR      r3,[sp,#0x44]
        0x0000450a:    e01b        ..      B        0x4544 ; form_data_matrix + 912
    $d
        0x0000450c:    67616d49    Imag    DCD    1734438217
        0x00004510:    72616e69    inar    DCD    1918987881
        0x00004514:    69452079    y Ei    DCD    1766137977
        0x00004518:    766e6567    genv    DCD    1986946407
        0x0000451c:    65756c61    alue    DCD    1702194273
        0x00004520:    0000000a    ....    DCD    10
        0x00004524:    206f7754    Two     DCD    544175956
        0x00004528:    6167654e    Nega    DCD    1634166094
        0x0000452c:    65766974    tive    DCD    1702259060
        0x00004530:    67694520     Eig    DCD    1734952224
        0x00004534:    61766e65    enva    DCD    1635151461
        0x00004538:    7365756c    lues    DCD    1936029036
        0x0000453c:    0000000a    ....    DCD    10
        0x00004540:    200007c0    ...     DCD    536872896
    $t
        0x00004544:    9a10        ..      LDR      r2,[sp,#0x40]
        0x00004546:    f000fb74    ..t.    BL       fixed_point_subtract ; 0x4c32
        0x0000454a:    460a        .F      MOV      r2,r1
        0x0000454c:    068b        ..      LSLS     r3,r1,#26
        0x0000454e:    0981        ..      LSRS     r1,r0,#6
        0x00004550:    4319        .C      ORRS     r1,r1,r3
        0x00004552:    1190        ..      ASRS     r0,r2,#6
        0x00004554:    910a        ..      STR      r1,[sp,#0x28]
        0x00004556:    900b        ..      STR      r0,[sp,#0x2c]
        0x00004558:    9819        ..      LDR      r0,[sp,#0x64]
        0x0000455a:    1e80        ..      SUBS     r0,r0,#2
        0x0000455c:    0041        A.      LSLS     r1,r0,#1
        0x0000455e:    9818        ..      LDR      r0,[sp,#0x60]
        0x00004560:    5a40        @Z      LDRH     r0,[r0,r1]
        0x00004562:    9005        ..      STR      r0,[sp,#0x14]
        0x00004564:    f000fb5a    ..Z.    BL       fixed_point_init ; 0x4c1c
        0x00004568:    9107        ..      STR      r1,[sp,#0x1c]
        0x0000456a:    9006        ..      STR      r0,[sp,#0x18]
        0x0000456c:    9b11        ..      LDR      r3,[sp,#0x44]
        0x0000456e:    9a10        ..      LDR      r2,[sp,#0x40]
        0x00004570:    f000fb5f    .._.    BL       fixed_point_subtract ; 0x4c32
        0x00004574:    068a        ..      LSLS     r2,r1,#26
        0x00004576:    0980        ..      LSRS     r0,r0,#6
        0x00004578:    4310        .C      ORRS     r0,r0,r2
        0x0000457a:    1189        ..      ASRS     r1,r1,#6
        0x0000457c:    9109        ..      STR      r1,[sp,#0x24]
        0x0000457e:    9008        ..      STR      r0,[sp,#0x20]
        0x00004580:    9b0b        ..      LDR      r3,[sp,#0x2c]
        0x00004582:    9a0a        ..      LDR      r2,[sp,#0x28]
        0x00004584:    f7fffca4    ....    BL       fixed_point_multiply ; 0x3ed0
        0x00004588:    4602        .F      MOV      r2,r0
        0x0000458a:    460b        .F      MOV      r3,r1
        0x0000458c:    910d        ..      STR      r1,[sp,#0x34]
        0x0000458e:    900c        ..      STR      r0,[sp,#0x30]
        0x00004590:    9915        ..      LDR      r1,[sp,#0x54]
        0x00004592:    9814        ..      LDR      r0,[sp,#0x50]
        0x00004594:    f000fb4d    ..M.    BL       fixed_point_subtract ; 0x4c32
        0x00004598:    910f        ..      STR      r1,[sp,#0x3c]
        0x0000459a:    900e        ..      STR      r0,[sp,#0x38]
        0x0000459c:    4601        .F      MOV      r1,r0
        0x0000459e:    980f        ..      LDR      r0,[sp,#0x3c]
        0x000045a0:    2200        ."      MOVS     r2,#0
        0x000045a2:    9100        ..      STR      r1,[sp,#0]
        0x000045a4:    9001        ..      STR      r0,[sp,#4]
        0x000045a6:    2101        .!      MOVS     r1,#1
        0x000045a8:    48fe        .H      LDR      r0,[pc,#1016] ; [0x49a4] = 0x200007c0
        0x000045aa:    f7fefecf    ....    BL       matrix_set ; 0x334c
        0x000045ae:    9819        ..      LDR      r0,[sp,#0x64]
        0x000045b0:    1e40        @.      SUBS     r0,r0,#1
        0x000045b2:    0041        A.      LSLS     r1,r0,#1
        0x000045b4:    9818        ..      LDR      r0,[sp,#0x60]
        0x000045b6:    5a40        @Z      LDRH     r0,[r0,r1]
        0x000045b8:    9003        ..      STR      r0,[sp,#0xc]
        0x000045ba:    f000fb2f    ../.    BL       fixed_point_init ; 0x4c1c
        0x000045be:    9105        ..      STR      r1,[sp,#0x14]
        0x000045c0:    9004        ..      STR      r0,[sp,#0x10]
        0x000045c2:    9b11        ..      LDR      r3,[sp,#0x44]
        0x000045c4:    9a10        ..      LDR      r2,[sp,#0x40]
        0x000045c6:    f000fb34    ..4.    BL       fixed_point_subtract ; 0x4c32
        0x000045ca:    068a        ..      LSLS     r2,r1,#26
        0x000045cc:    0980        ..      LSRS     r0,r0,#6
        0x000045ce:    4310        .C      ORRS     r0,r0,r2
        0x000045d0:    1189        ..      ASRS     r1,r1,#6
        0x000045d2:    9109        ..      STR      r1,[sp,#0x24]
        0x000045d4:    9008        ..      STR      r0,[sp,#0x20]
        0x000045d6:    9819        ..      LDR      r0,[sp,#0x64]
        0x000045d8:    1e40        @.      SUBS     r0,r0,#1
        0x000045da:    0041        A.      LSLS     r1,r0,#1
        0x000045dc:    9818        ..      LDR      r0,[sp,#0x60]
        0x000045de:    5a40        @Z      LDRH     r0,[r0,r1]
        0x000045e0:    9003        ..      STR      r0,[sp,#0xc]
        0x000045e2:    f000fb1b    ....    BL       fixed_point_init ; 0x4c1c
        0x000045e6:    9105        ..      STR      r1,[sp,#0x14]
        0x000045e8:    9004        ..      STR      r0,[sp,#0x10]
        0x000045ea:    9b11        ..      LDR      r3,[sp,#0x44]
        0x000045ec:    9a10        ..      LDR      r2,[sp,#0x40]
        0x000045ee:    f000fb20    .. .    BL       fixed_point_subtract ; 0x4c32
        0x000045f2:    068a        ..      LSLS     r2,r1,#26
        0x000045f4:    0980        ..      LSRS     r0,r0,#6
        0x000045f6:    4310        .C      ORRS     r0,r0,r2
        0x000045f8:    1189        ..      ASRS     r1,r1,#6
        0x000045fa:    9107        ..      STR      r1,[sp,#0x1c]
        0x000045fc:    9006        ..      STR      r0,[sp,#0x18]
        0x000045fe:    9b09        ..      LDR      r3,[sp,#0x24]
        0x00004600:    9a08        ..      LDR      r2,[sp,#0x20]
        0x00004602:    f7fffc65    ..e.    BL       fixed_point_multiply ; 0x3ed0
        0x00004606:    910d        ..      STR      r1,[sp,#0x34]
        0x00004608:    900c        ..      STR      r0,[sp,#0x30]
        0x0000460a:    9818        ..      LDR      r0,[sp,#0x60]
        0x0000460c:    8801        ..      LDRH     r1,[r0,#0]
        0x0000460e:    4608        .F      MOV      r0,r1
        0x00004610:    9101        ..      STR      r1,[sp,#4]
        0x00004612:    f000fb03    ....    BL       fixed_point_init ; 0x4c1c
        0x00004616:    9103        ..      STR      r1,[sp,#0xc]
        0x00004618:    9002        ..      STR      r0,[sp,#8]
        0x0000461a:    9b11        ..      LDR      r3,[sp,#0x44]
        0x0000461c:    9a10        ..      LDR      r2,[sp,#0x40]
        0x0000461e:    f000fb08    ....    BL       fixed_point_subtract ; 0x4c32
        0x00004622:    460a        .F      MOV      r2,r1
        0x00004624:    068b        ..      LSLS     r3,r1,#26
        0x00004626:    0981        ..      LSRS     r1,r0,#6
        0x00004628:    4319        .C      ORRS     r1,r1,r3
        0x0000462a:    1190        ..      ASRS     r0,r2,#6
        0x0000462c:    9106        ..      STR      r1,[sp,#0x18]
        0x0000462e:    9007        ..      STR      r0,[sp,#0x1c]
        0x00004630:    9818        ..      LDR      r0,[sp,#0x60]
        0x00004632:    8801        ..      LDRH     r1,[r0,#0]
        0x00004634:    4608        .F      MOV      r0,r1
        0x00004636:    9101        ..      STR      r1,[sp,#4]
        0x00004638:    f000faf0    ....    BL       fixed_point_init ; 0x4c1c
        0x0000463c:    9103        ..      STR      r1,[sp,#0xc]
        0x0000463e:    9002        ..      STR      r0,[sp,#8]
        0x00004640:    9b11        ..      LDR      r3,[sp,#0x44]
        0x00004642:    9a10        ..      LDR      r2,[sp,#0x40]
        0x00004644:    f000faf5    ....    BL       fixed_point_subtract ; 0x4c32
        0x00004648:    460a        .F      MOV      r2,r1
        0x0000464a:    068b        ..      LSLS     r3,r1,#26
        0x0000464c:    0981        ..      LSRS     r1,r0,#6
        0x0000464e:    4319        .C      ORRS     r1,r1,r3
        0x00004650:    1190        ..      ASRS     r0,r2,#6
        0x00004652:    9104        ..      STR      r1,[sp,#0x10]
        0x00004654:    9005        ..      STR      r0,[sp,#0x14]
        0x00004656:    4608        .F      MOV      r0,r1
        0x00004658:    a905        ..      ADD      r1,sp,#0x14
        0x0000465a:    c90e        ..      LDM      r1,{r1-r3}
        0x0000465c:    f7fffc38    ..8.    BL       fixed_point_multiply ; 0x3ed0
        0x00004660:    4602        .F      MOV      r2,r0
        0x00004662:    460b        .F      MOV      r3,r1
        0x00004664:    9109        ..      STR      r1,[sp,#0x24]
        0x00004666:    9008        ..      STR      r0,[sp,#0x20]
        0x00004668:    9917        ..      LDR      r1,[sp,#0x5c]
        0x0000466a:    9816        ..      LDR      r0,[sp,#0x58]
        0x0000466c:    f000fae1    ....    BL       fixed_point_subtract ; 0x4c32
        0x00004670:    910b        ..      STR      r1,[sp,#0x2c]
        0x00004672:    900a        ..      STR      r0,[sp,#0x28]
        0x00004674:    9b0d        ..      LDR      r3,[sp,#0x34]
        0x00004676:    9a0c        ..      LDR      r2,[sp,#0x30]
        0x00004678:    f000fadb    ....    BL       fixed_point_subtract ; 0x4c32
        0x0000467c:    910f        ..      STR      r1,[sp,#0x3c]
        0x0000467e:    900e        ..      STR      r0,[sp,#0x38]
        0x00004680:    4601        .F      MOV      r1,r0
        0x00004682:    980f        ..      LDR      r0,[sp,#0x3c]
        0x00004684:    2201        ."      MOVS     r2,#1
        0x00004686:    9100        ..      STR      r1,[sp,#0]
        0x00004688:    9001        ..      STR      r0,[sp,#4]
        0x0000468a:    4611        .F      MOV      r1,r2
        0x0000468c:    48c5        .H      LDR      r0,[pc,#788] ; [0x49a4] = 0x200007c0
        0x0000468e:    f7fefe5d    ..].    BL       matrix_set ; 0x334c
        0x00004692:    9818        ..      LDR      r0,[sp,#0x60]
        0x00004694:    8841        A.      LDRH     r1,[r0,#2]
        0x00004696:    4608        .F      MOV      r0,r1
        0x00004698:    9105        ..      STR      r1,[sp,#0x14]
        0x0000469a:    f000fabf    ....    BL       fixed_point_init ; 0x4c1c
        0x0000469e:    9107        ..      STR      r1,[sp,#0x1c]
        0x000046a0:    9006        ..      STR      r0,[sp,#0x18]
        0x000046a2:    9b11        ..      LDR      r3,[sp,#0x44]
        0x000046a4:    9a10        ..      LDR      r2,[sp,#0x40]
        0x000046a6:    f000fac4    ....    BL       fixed_point_subtract ; 0x4c32
        0x000046aa:    460a        .F      MOV      r2,r1
        0x000046ac:    068b        ..      LSLS     r3,r1,#26
        0x000046ae:    0981        ..      LSRS     r1,r0,#6
        0x000046b0:    4319        .C      ORRS     r1,r1,r3
        0x000046b2:    1190        ..      ASRS     r0,r2,#6
        0x000046b4:    910a        ..      STR      r1,[sp,#0x28]
        0x000046b6:    900b        ..      STR      r0,[sp,#0x2c]
        0x000046b8:    9818        ..      LDR      r0,[sp,#0x60]
        0x000046ba:    8801        ..      LDRH     r1,[r0,#0]
        0x000046bc:    4608        .F      MOV      r0,r1
        0x000046be:    9105        ..      STR      r1,[sp,#0x14]
        0x000046c0:    f000faac    ....    BL       fixed_point_init ; 0x4c1c
        0x000046c4:    9107        ..      STR      r1,[sp,#0x1c]
        0x000046c6:    9006        ..      STR      r0,[sp,#0x18]
        0x000046c8:    9b11        ..      LDR      r3,[sp,#0x44]
        0x000046ca:    9a10        ..      LDR      r2,[sp,#0x40]
        0x000046cc:    f000fab1    ....    BL       fixed_point_subtract ; 0x4c32
        0x000046d0:    460a        .F      MOV      r2,r1
        0x000046d2:    068b        ..      LSLS     r3,r1,#26
        0x000046d4:    0981        ..      LSRS     r1,r0,#6
        0x000046d6:    4319        .C      ORRS     r1,r1,r3
        0x000046d8:    1190        ..      ASRS     r0,r2,#6
        0x000046da:    9108        ..      STR      r1,[sp,#0x20]
        0x000046dc:    9009        ..      STR      r0,[sp,#0x24]
        0x000046de:    4608        .F      MOV      r0,r1
        0x000046e0:    a909        ..      ADD      r1,sp,#0x24
        0x000046e2:    c90e        ..      LDM      r1,{r1-r3}
        0x000046e4:    f7fffbf4    ....    BL       fixed_point_multiply ; 0x3ed0
        0x000046e8:    4602        .F      MOV      r2,r0
        0x000046ea:    460b        .F      MOV      r3,r1
        0x000046ec:    910d        ..      STR      r1,[sp,#0x34]
        0x000046ee:    900c        ..      STR      r0,[sp,#0x30]
        0x000046f0:    9915        ..      LDR      r1,[sp,#0x54]
        0x000046f2:    9814        ..      LDR      r0,[sp,#0x50]
        0x000046f4:    f000fa9d    ....    BL       fixed_point_subtract ; 0x4c32
        0x000046f8:    900e        ..      STR      r0,[sp,#0x38]
        0x000046fa:    910f        ..      STR      r1,[sp,#0x3c]
        0x000046fc:    2202        ."      MOVS     r2,#2
        0x000046fe:    9101        ..      STR      r1,[sp,#4]
        0x00004700:    9000        ..      STR      r0,[sp,#0]
        0x00004702:    2101        .!      MOVS     r1,#1
        0x00004704:    48a7        .H      LDR      r0,[pc,#668] ; [0x49a4] = 0x200007c0
        0x00004706:    f7fefe21    ..!.    BL       matrix_set ; 0x334c
        0x0000470a:    9913        ..      LDR      r1,[sp,#0x4c]
        0x0000470c:    9812        ..      LDR      r0,[sp,#0x48]
        0x0000470e:    2200        ."      MOVS     r2,#0
        0x00004710:    9101        ..      STR      r1,[sp,#4]
        0x00004712:    9000        ..      STR      r0,[sp,#0]
        0x00004714:    2102        .!      MOVS     r1,#2
        0x00004716:    48a3        .H      LDR      r0,[pc,#652] ; [0x49a4] = 0x200007c0
        0x00004718:    f7fefe18    ....    BL       matrix_set ; 0x334c
        0x0000471c:    9818        ..      LDR      r0,[sp,#0x60]
        0x0000471e:    8841        A.      LDRH     r1,[r0,#2]
        0x00004720:    4608        .F      MOV      r0,r1
        0x00004722:    9105        ..      STR      r1,[sp,#0x14]
        0x00004724:    f000fa7a    ..z.    BL       fixed_point_init ; 0x4c1c
        0x00004728:    9107        ..      STR      r1,[sp,#0x1c]
        0x0000472a:    9006        ..      STR      r0,[sp,#0x18]
        0x0000472c:    9b11        ..      LDR      r3,[sp,#0x44]
        0x0000472e:    9a10        ..      LDR      r2,[sp,#0x40]
        0x00004730:    f000fa7f    ....    BL       fixed_point_subtract ; 0x4c32
        0x00004734:    460a        .F      MOV      r2,r1
        0x00004736:    068b        ..      LSLS     r3,r1,#26
        0x00004738:    0981        ..      LSRS     r1,r0,#6
        0x0000473a:    4319        .C      ORRS     r1,r1,r3
        0x0000473c:    1190        ..      ASRS     r0,r2,#6
        0x0000473e:    910a        ..      STR      r1,[sp,#0x28]
        0x00004740:    900b        ..      STR      r0,[sp,#0x2c]
        0x00004742:    9818        ..      LDR      r0,[sp,#0x60]
        0x00004744:    8801        ..      LDRH     r1,[r0,#0]
        0x00004746:    4608        .F      MOV      r0,r1
        0x00004748:    9105        ..      STR      r1,[sp,#0x14]
        0x0000474a:    f000fa67    ..g.    BL       fixed_point_init ; 0x4c1c
        0x0000474e:    9107        ..      STR      r1,[sp,#0x1c]
        0x00004750:    9006        ..      STR      r0,[sp,#0x18]
        0x00004752:    9b11        ..      LDR      r3,[sp,#0x44]
        0x00004754:    9a10        ..      LDR      r2,[sp,#0x40]
        0x00004756:    f000fa6c    ..l.    BL       fixed_point_subtract ; 0x4c32
        0x0000475a:    068a        ..      LSLS     r2,r1,#26
        0x0000475c:    0980        ..      LSRS     r0,r0,#6
        0x0000475e:    4310        .C      ORRS     r0,r0,r2
        0x00004760:    1189        ..      ASRS     r1,r1,#6
        0x00004762:    9109        ..      STR      r1,[sp,#0x24]
        0x00004764:    9008        ..      STR      r0,[sp,#0x20]
        0x00004766:    9b0b        ..      LDR      r3,[sp,#0x2c]
        0x00004768:    9a0a        ..      LDR      r2,[sp,#0x28]
        0x0000476a:    f7fffbb1    ....    BL       fixed_point_multiply ; 0x3ed0
        0x0000476e:    4602        .F      MOV      r2,r0
        0x00004770:    460b        .F      MOV      r3,r1
        0x00004772:    910d        ..      STR      r1,[sp,#0x34]
        0x00004774:    900c        ..      STR      r0,[sp,#0x30]
        0x00004776:    9915        ..      LDR      r1,[sp,#0x54]
        0x00004778:    9814        ..      LDR      r0,[sp,#0x50]
        0x0000477a:    f000fa5a    ..Z.    BL       fixed_point_subtract ; 0x4c32
        0x0000477e:    910f        ..      STR      r1,[sp,#0x3c]
        0x00004780:    900e        ..      STR      r0,[sp,#0x38]
        0x00004782:    4601        .F      MOV      r1,r0
        0x00004784:    980f        ..      LDR      r0,[sp,#0x3c]
        0x00004786:    2201        ."      MOVS     r2,#1
        0x00004788:    9100        ..      STR      r1,[sp,#0]
        0x0000478a:    9001        ..      STR      r0,[sp,#4]
        0x0000478c:    2102        .!      MOVS     r1,#2
        0x0000478e:    4885        .H      LDR      r0,[pc,#532] ; [0x49a4] = 0x200007c0
        0x00004790:    f7fefddc    ....    BL       matrix_set ; 0x334c
        0x00004794:    9818        ..      LDR      r0,[sp,#0x60]
        0x00004796:    8841        A.      LDRH     r1,[r0,#2]
        0x00004798:    4608        .F      MOV      r0,r1
        0x0000479a:    9103        ..      STR      r1,[sp,#0xc]
        0x0000479c:    f000fa3e    ..>.    BL       fixed_point_init ; 0x4c1c
        0x000047a0:    9105        ..      STR      r1,[sp,#0x14]
        0x000047a2:    9004        ..      STR      r0,[sp,#0x10]
        0x000047a4:    9b11        ..      LDR      r3,[sp,#0x44]
        0x000047a6:    9a10        ..      LDR      r2,[sp,#0x40]
        0x000047a8:    f000fa43    ..C.    BL       fixed_point_subtract ; 0x4c32
        0x000047ac:    068a        ..      LSLS     r2,r1,#26
        0x000047ae:    0980        ..      LSRS     r0,r0,#6
        0x000047b0:    4310        .C      ORRS     r0,r0,r2
        0x000047b2:    118a        ..      ASRS     r2,r1,#6
        0x000047b4:    4601        .F      MOV      r1,r0
        0x000047b6:    9209        ..      STR      r2,[sp,#0x24]
        0x000047b8:    9108        ..      STR      r1,[sp,#0x20]
        0x000047ba:    9818        ..      LDR      r0,[sp,#0x60]
        0x000047bc:    8841        A.      LDRH     r1,[r0,#2]
        0x000047be:    4608        .F      MOV      r0,r1
        0x000047c0:    9103        ..      STR      r1,[sp,#0xc]
        0x000047c2:    f000fa2b    ..+.    BL       fixed_point_init ; 0x4c1c
        0x000047c6:    9105        ..      STR      r1,[sp,#0x14]
        0x000047c8:    9004        ..      STR      r0,[sp,#0x10]
        0x000047ca:    9b11        ..      LDR      r3,[sp,#0x44]
        0x000047cc:    9a10        ..      LDR      r2,[sp,#0x40]
        0x000047ce:    f000fa30    ..0.    BL       fixed_point_subtract ; 0x4c32
        0x000047d2:    460a        .F      MOV      r2,r1
        0x000047d4:    068b        ..      LSLS     r3,r1,#26
        0x000047d6:    0981        ..      LSRS     r1,r0,#6
        0x000047d8:    4319        .C      ORRS     r1,r1,r3
        0x000047da:    1190        ..      ASRS     r0,r2,#6
        0x000047dc:    9106        ..      STR      r1,[sp,#0x18]
        0x000047de:    9007        ..      STR      r0,[sp,#0x1c]
        0x000047e0:    4608        .F      MOV      r0,r1
        0x000047e2:    a907        ..      ADD      r1,sp,#0x1c
        0x000047e4:    c90e        ..      LDM      r1,{r1-r3}
        0x000047e6:    f7fffb73    ..s.    BL       fixed_point_multiply ; 0x3ed0
        0x000047ea:    910d        ..      STR      r1,[sp,#0x34]
        0x000047ec:    900c        ..      STR      r0,[sp,#0x30]
        0x000047ee:    9818        ..      LDR      r0,[sp,#0x60]
        0x000047f0:    8801        ..      LDRH     r1,[r0,#0]
        0x000047f2:    4608        .F      MOV      r0,r1
        0x000047f4:    9101        ..      STR      r1,[sp,#4]
        0x000047f6:    f000fa11    ....    BL       fixed_point_init ; 0x4c1c
        0x000047fa:    9103        ..      STR      r1,[sp,#0xc]
        0x000047fc:    9002        ..      STR      r0,[sp,#8]
        0x000047fe:    9b11        ..      LDR      r3,[sp,#0x44]
        0x00004800:    9a10        ..      LDR      r2,[sp,#0x40]
        0x00004802:    f000fa16    ....    BL       fixed_point_subtract ; 0x4c32
        0x00004806:    068a        ..      LSLS     r2,r1,#26
        0x00004808:    0980        ..      LSRS     r0,r0,#6
        0x0000480a:    4310        .C      ORRS     r0,r0,r2
        0x0000480c:    118a        ..      ASRS     r2,r1,#6
        0x0000480e:    4601        .F      MOV      r1,r0
        0x00004810:    9207        ..      STR      r2,[sp,#0x1c]
        0x00004812:    9106        ..      STR      r1,[sp,#0x18]
        0x00004814:    9818        ..      LDR      r0,[sp,#0x60]
        0x00004816:    8801        ..      LDRH     r1,[r0,#0]
        0x00004818:    4608        .F      MOV      r0,r1
        0x0000481a:    9101        ..      STR      r1,[sp,#4]
        0x0000481c:    f000f9fe    ....    BL       fixed_point_init ; 0x4c1c
        0x00004820:    9103        ..      STR      r1,[sp,#0xc]
        0x00004822:    9002        ..      STR      r0,[sp,#8]
        0x00004824:    9b11        ..      LDR      r3,[sp,#0x44]
        0x00004826:    9a10        ..      LDR      r2,[sp,#0x40]
        0x00004828:    f000fa03    ....    BL       fixed_point_subtract ; 0x4c32
        0x0000482c:    068a        ..      LSLS     r2,r1,#26
        0x0000482e:    0980        ..      LSRS     r0,r0,#6
        0x00004830:    4310        .C      ORRS     r0,r0,r2
        0x00004832:    1189        ..      ASRS     r1,r1,#6
        0x00004834:    9105        ..      STR      r1,[sp,#0x14]
        0x00004836:    9004        ..      STR      r0,[sp,#0x10]
        0x00004838:    9b07        ..      LDR      r3,[sp,#0x1c]
        0x0000483a:    9a06        ..      LDR      r2,[sp,#0x18]
        0x0000483c:    f7fffb48    ..H.    BL       fixed_point_multiply ; 0x3ed0
        0x00004840:    4602        .F      MOV      r2,r0
        0x00004842:    460b        .F      MOV      r3,r1
        0x00004844:    9109        ..      STR      r1,[sp,#0x24]
        0x00004846:    9008        ..      STR      r0,[sp,#0x20]
        0x00004848:    9917        ..      LDR      r1,[sp,#0x5c]
        0x0000484a:    9816        ..      LDR      r0,[sp,#0x58]
        0x0000484c:    f000f9f1    ....    BL       fixed_point_subtract ; 0x4c32
        0x00004850:    910b        ..      STR      r1,[sp,#0x2c]
        0x00004852:    900a        ..      STR      r0,[sp,#0x28]
        0x00004854:    9b0d        ..      LDR      r3,[sp,#0x34]
        0x00004856:    9a0c        ..      LDR      r2,[sp,#0x30]
        0x00004858:    f000f9eb    ....    BL       fixed_point_subtract ; 0x4c32
        0x0000485c:    910f        ..      STR      r1,[sp,#0x3c]
        0x0000485e:    900e        ..      STR      r0,[sp,#0x38]
        0x00004860:    4601        .F      MOV      r1,r0
        0x00004862:    980f        ..      LDR      r0,[sp,#0x3c]
        0x00004864:    2202        ."      MOVS     r2,#2
        0x00004866:    9100        ..      STR      r1,[sp,#0]
        0x00004868:    9001        ..      STR      r0,[sp,#4]
        0x0000486a:    4611        .F      MOV      r1,r2
        0x0000486c:    484d        MH      LDR      r0,[pc,#308] ; [0x49a4] = 0x200007c0
        0x0000486e:    f7fefd6d    ..m.    BL       matrix_set ; 0x334c
        0x00004872:    2001        .       MOVS     r0,#1
        0x00004874:    b01b        ..      ADD      sp,sp,#0x6c
        0x00004876:    bd00        ..      POP      {pc}
    form_computing_matrix
        0x00004878:    b5f0        ..      PUSH     {r4-r7,lr}
        0x0000487a:    b093        ..      SUB      sp,sp,#0x4c
        0x0000487c:    2000        .       MOVS     r0,#0
        0x0000487e:    f000f9cd    ....    BL       fixed_point_init ; 0x4c1c
        0x00004882:    9111        ..      STR      r1,[sp,#0x44]
        0x00004884:    9010        ..      STR      r0,[sp,#0x40]
        0x00004886:    2000        .       MOVS     r0,#0
        0x00004888:    f000f9c8    ....    BL       fixed_point_init ; 0x4c1c
        0x0000488c:    910f        ..      STR      r1,[sp,#0x3c]
        0x0000488e:    900e        ..      STR      r0,[sp,#0x38]
        0x00004890:    2000        .       MOVS     r0,#0
        0x00004892:    f000f9c3    ....    BL       fixed_point_init ; 0x4c1c
        0x00004896:    910d        ..      STR      r1,[sp,#0x34]
        0x00004898:    900c        ..      STR      r0,[sp,#0x30]
        0x0000489a:    2000        .       MOVS     r0,#0
        0x0000489c:    f000f9be    ....    BL       fixed_point_init ; 0x4c1c
        0x000048a0:    910b        ..      STR      r1,[sp,#0x2c]
        0x000048a2:    900a        ..      STR      r0,[sp,#0x28]
        0x000048a4:    2000        .       MOVS     r0,#0
        0x000048a6:    f000f9b9    ....    BL       fixed_point_init ; 0x4c1c
        0x000048aa:    9109        ..      STR      r1,[sp,#0x24]
        0x000048ac:    9008        ..      STR      r0,[sp,#0x20]
        0x000048ae:    2000        .       MOVS     r0,#0
        0x000048b0:    f000f9b4    ....    BL       fixed_point_init ; 0x4c1c
        0x000048b4:    9107        ..      STR      r1,[sp,#0x1c]
        0x000048b6:    9006        ..      STR      r0,[sp,#0x18]
        0x000048b8:    ab10        ..      ADD      r3,sp,#0x40
        0x000048ba:    2200        ."      MOVS     r2,#0
        0x000048bc:    4611        .F      MOV      r1,r2
        0x000048be:    483a        :H      LDR      r0,[pc,#232] ; [0x49a8] = 0x200007cc
        0x000048c0:    f7fefd2a    ..*.    BL       matrix_get ; 0x3318
        0x000048c4:    ab0e        ..      ADD      r3,sp,#0x38
        0x000048c6:    2201        ."      MOVS     r2,#1
        0x000048c8:    2100        .!      MOVS     r1,#0
        0x000048ca:    4837        7H      LDR      r0,[pc,#220] ; [0x49a8] = 0x200007cc
        0x000048cc:    f7fefd24    ..$.    BL       matrix_get ; 0x3318
        0x000048d0:    ab0c        ..      ADD      r3,sp,#0x30
        0x000048d2:    2200        ."      MOVS     r2,#0
        0x000048d4:    2101        .!      MOVS     r1,#1
        0x000048d6:    4834        4H      LDR      r0,[pc,#208] ; [0x49a8] = 0x200007cc
        0x000048d8:    f7fefd1e    ....    BL       matrix_get ; 0x3318
        0x000048dc:    ab0a        ..      ADD      r3,sp,#0x28
        0x000048de:    2201        ."      MOVS     r2,#1
        0x000048e0:    4611        .F      MOV      r1,r2
        0x000048e2:    4831        1H      LDR      r0,[pc,#196] ; [0x49a8] = 0x200007cc
        0x000048e4:    f7fefd18    ....    BL       matrix_get ; 0x3318
        0x000048e8:    ab08        ..      ADD      r3,sp,#0x20
        0x000048ea:    2200        ."      MOVS     r2,#0
        0x000048ec:    2102        .!      MOVS     r1,#2
        0x000048ee:    482e        .H      LDR      r0,[pc,#184] ; [0x49a8] = 0x200007cc
        0x000048f0:    f7fefd12    ....    BL       matrix_get ; 0x3318
        0x000048f4:    ab06        ..      ADD      r3,sp,#0x18
        0x000048f6:    2201        ."      MOVS     r2,#1
        0x000048f8:    2102        .!      MOVS     r1,#2
        0x000048fa:    482b        +H      LDR      r0,[pc,#172] ; [0x49a8] = 0x200007cc
        0x000048fc:    f7fefd0c    ....    BL       matrix_get ; 0x3318
        0x00004900:    2000        .       MOVS     r0,#0
        0x00004902:    f000f98b    ....    BL       fixed_point_init ; 0x4c1c
        0x00004906:    2200        ."      MOVS     r2,#0
        0x00004908:    9101        ..      STR      r1,[sp,#4]
        0x0000490a:    9000        ..      STR      r0,[sp,#0]
        0x0000490c:    4611        .F      MOV      r1,r2
        0x0000490e:    4827        'H      LDR      r0,[pc,#156] ; [0x49ac] = 0x200007d8
        0x00004910:    f7fefd1c    ....    BL       matrix_set ; 0x334c
        0x00004914:    9b0d        ..      LDR      r3,[sp,#0x34]
        0x00004916:    9a0c        ..      LDR      r2,[sp,#0x30]
        0x00004918:    990f        ..      LDR      r1,[sp,#0x3c]
        0x0000491a:    980e        ..      LDR      r0,[sp,#0x38]
        0x0000491c:    f7fffad8    ....    BL       fixed_point_multiply ; 0x3ed0
        0x00004920:    4604        .F      MOV      r4,r0
        0x00004922:    460d        .F      MOV      r5,r1
        0x00004924:    9b0b        ..      LDR      r3,[sp,#0x2c]
        0x00004926:    9a0a        ..      LDR      r2,[sp,#0x28]
        0x00004928:    9911        ..      LDR      r1,[sp,#0x44]
        0x0000492a:    9810        ..      LDR      r0,[sp,#0x40]
        0x0000492c:    f7fffad0    ....    BL       fixed_point_multiply ; 0x3ed0
        0x00004930:    4606        .F      MOV      r6,r0
        0x00004932:    4622        "F      MOV      r2,r4
        0x00004934:    462b        +F      MOV      r3,r5
        0x00004936:    f000f97c    ..|.    BL       fixed_point_subtract ; 0x4c32
        0x0000493a:    9103        ..      STR      r1,[sp,#0xc]
        0x0000493c:    9002        ..      STR      r0,[sp,#8]
        0x0000493e:    9b07        ..      LDR      r3,[sp,#0x1c]
        0x00004940:    9a06        ..      LDR      r2,[sp,#0x18]
        0x00004942:    990d        ..      LDR      r1,[sp,#0x34]
        0x00004944:    980c        ..      LDR      r0,[sp,#0x30]
        0x00004946:    f7fffac3    ....    BL       fixed_point_multiply ; 0x3ed0
        0x0000494a:    4606        .F      MOV      r6,r0
        0x0000494c:    460f        .F      MOV      r7,r1
        0x0000494e:    9b09        ..      LDR      r3,[sp,#0x24]
        0x00004950:    9a08        ..      LDR      r2,[sp,#0x20]
        0x00004952:    990b        ..      LDR      r1,[sp,#0x2c]
        0x00004954:    980a        ..      LDR      r0,[sp,#0x28]
        0x00004956:    f7fffabb    ....    BL       fixed_point_multiply ; 0x3ed0
        0x0000495a:    4604        .F      MOV      r4,r0
        0x0000495c:    4632        2F      MOV      r2,r6
        0x0000495e:    463b        ;F      MOV      r3,r7
        0x00004960:    f000f967    ..g.    BL       fixed_point_subtract ; 0x4c32
        0x00004964:    9101        ..      STR      r1,[sp,#4]
        0x00004966:    9000        ..      STR      r0,[sp,#0]
        0x00004968:    9b03        ..      LDR      r3,[sp,#0xc]
        0x0000496a:    9a02        ..      LDR      r2,[sp,#8]
        0x0000496c:    f000f968    ..h.    BL       fixed_point_divide ; 0x4c40
        0x00004970:    9004        ..      STR      r0,[sp,#0x10]
        0x00004972:    9105        ..      STR      r1,[sp,#0x14]
        0x00004974:    2201        ."      MOVS     r2,#1
        0x00004976:    9101        ..      STR      r1,[sp,#4]
        0x00004978:    9000        ..      STR      r0,[sp,#0]
        0x0000497a:    2100        .!      MOVS     r1,#0
        0x0000497c:    480b        .H      LDR      r0,[pc,#44] ; [0x49ac] = 0x200007d8
        0x0000497e:    f7fefce5    ....    BL       matrix_set ; 0x334c
        0x00004982:    2001        .       MOVS     r0,#1
        0x00004984:    f000f94a    ..J.    BL       fixed_point_init ; 0x4c1c
        0x00004988:    2200        ."      MOVS     r2,#0
        0x0000498a:    9101        ..      STR      r1,[sp,#4]
        0x0000498c:    9000        ..      STR      r0,[sp,#0]
        0x0000498e:    2101        .!      MOVS     r1,#1
        0x00004990:    4806        .H      LDR      r0,[pc,#24] ; [0x49ac] = 0x200007d8
        0x00004992:    f7fefcdb    ....    BL       matrix_set ; 0x334c
        0x00004996:    9b0d        ..      LDR      r3,[sp,#0x34]
        0x00004998:    9a0c        ..      LDR      r2,[sp,#0x30]
        0x0000499a:    990f        ..      LDR      r1,[sp,#0x3c]
        0x0000499c:    980e        ..      LDR      r0,[sp,#0x38]
        0x0000499e:    f7fffa97    ....    BL       fixed_point_multiply ; 0x3ed0
        0x000049a2:    e005        ..      B        0x49b0 ; form_computing_matrix + 312
    $d
        0x000049a4:    200007c0    ...     DCD    536872896
        0x000049a8:    200007cc    ...     DCD    536872908
        0x000049ac:    200007d8    ...     DCD    536872920
    $t
        0x000049b0:    4604        .F      MOV      r4,r0
        0x000049b2:    460d        .F      MOV      r5,r1
        0x000049b4:    9b0b        ..      LDR      r3,[sp,#0x2c]
        0x000049b6:    9a0a        ..      LDR      r2,[sp,#0x28]
        0x000049b8:    9911        ..      LDR      r1,[sp,#0x44]
        0x000049ba:    9810        ..      LDR      r0,[sp,#0x40]
        0x000049bc:    f7fffa88    ....    BL       fixed_point_multiply ; 0x3ed0
        0x000049c0:    4606        .F      MOV      r6,r0
        0x000049c2:    4622        "F      MOV      r2,r4
        0x000049c4:    462b        +F      MOV      r3,r5
        0x000049c6:    f000f934    ..4.    BL       fixed_point_subtract ; 0x4c32
        0x000049ca:    9103        ..      STR      r1,[sp,#0xc]
        0x000049cc:    9002        ..      STR      r0,[sp,#8]
        0x000049ce:    9b09        ..      LDR      r3,[sp,#0x24]
        0x000049d0:    9a08        ..      LDR      r2,[sp,#0x20]
        0x000049d2:    990f        ..      LDR      r1,[sp,#0x3c]
        0x000049d4:    980e        ..      LDR      r0,[sp,#0x38]
        0x000049d6:    f7fffa7b    ..{.    BL       fixed_point_multiply ; 0x3ed0
        0x000049da:    4606        .F      MOV      r6,r0
        0x000049dc:    460f        .F      MOV      r7,r1
        0x000049de:    9b07        ..      LDR      r3,[sp,#0x1c]
        0x000049e0:    9a06        ..      LDR      r2,[sp,#0x18]
        0x000049e2:    9911        ..      LDR      r1,[sp,#0x44]
        0x000049e4:    9810        ..      LDR      r0,[sp,#0x40]
        0x000049e6:    f7fffa73    ..s.    BL       fixed_point_multiply ; 0x3ed0
        0x000049ea:    4604        .F      MOV      r4,r0
        0x000049ec:    4632        2F      MOV      r2,r6
        0x000049ee:    463b        ;F      MOV      r3,r7
        0x000049f0:    f000f91f    ....    BL       fixed_point_subtract ; 0x4c32
        0x000049f4:    9101        ..      STR      r1,[sp,#4]
        0x000049f6:    9000        ..      STR      r0,[sp,#0]
        0x000049f8:    9b03        ..      LDR      r3,[sp,#0xc]
        0x000049fa:    9a02        ..      LDR      r2,[sp,#8]
        0x000049fc:    f000f920    .. .    BL       fixed_point_divide ; 0x4c40
        0x00004a00:    9004        ..      STR      r0,[sp,#0x10]
        0x00004a02:    9105        ..      STR      r1,[sp,#0x14]
        0x00004a04:    2201        ."      MOVS     r2,#1
        0x00004a06:    9101        ..      STR      r1,[sp,#4]
        0x00004a08:    9000        ..      STR      r0,[sp,#0]
        0x00004a0a:    4611        .F      MOV      r1,r2
        0x00004a0c:    489e        .H      LDR      r0,[pc,#632] ; [0x4c88] = 0x200007d8
        0x00004a0e:    f7fefc9d    ....    BL       matrix_set ; 0x334c
        0x00004a12:    2001        .       MOVS     r0,#1
        0x00004a14:    b013        ..      ADD      sp,sp,#0x4c
        0x00004a16:    bdf0        ..      POP      {r4-r7,pc}
    matrix_pencil_method_init
        0x00004a18:    b5f8        ..      PUSH     {r3-r7,lr}
        0x00004a1a:    4604        .F      MOV      r4,r0
        0x00004a1c:    460d        .F      MOV      r5,r1
        0x00004a1e:    4616        .F      MOV      r6,r2
        0x00004a20:    461f        .F      MOV      r7,r3
        0x00004a22:    489a        .H      LDR      r0,[pc,#616] ; [0x4c8c] = 0x200000b0
        0x00004a24:    c030        0.      STM      r0!,{r4,r5}
        0x00004a26:    2002        .       MOVS     r0,#2
        0x00004a28:    f000f8f8    ....    BL       fixed_point_init ; 0x4c1c
        0x00004a2c:    4a98        .J      LDR      r2,[pc,#608] ; [0x4c90] = 0x200000b8
        0x00004a2e:    c203        ..      STM      r2!,{r0,r1}
        0x00004a30:    2002        .       MOVS     r0,#2
        0x00004a32:    4998        .I      LDR      r1,[pc,#608] ; [0x4c94] = 0x200000c0
        0x00004a34:    6008        .`      STR      r0,[r1,#0]
        0x00004a36:    4639        9F      MOV      r1,r7
        0x00004a38:    a097        ..      ADR      r0,{pc}+0x260 ; 0x4c98
        0x00004a3a:    f000fc0d    ....    BL       __2printf ; 0x5258
        0x00004a3e:    4b9f        .K      LDR      r3,[pc,#636] ; [0x4cbc] = 0x200007e8
        0x00004a40:    2203        ."      MOVS     r2,#3
        0x00004a42:    4611        .F      MOV      r1,r2
        0x00004a44:    489e        .H      LDR      r0,[pc,#632] ; [0x4cc0] = 0x200007c0
        0x00004a46:    f7fefc4b    ..K.    BL       matrix_init ; 0x32e0
        0x00004a4a:    2800        .(      CMP      r0,#0
        0x00004a4c:    d100        ..      BNE      0x4a50 ; matrix_pencil_method_init + 56
        0x00004a4e:    bdf8        ..      POP      {r3-r7,pc}
        0x00004a50:    4a9b        .J      LDR      r2,[pc,#620] ; [0x4cc0] = 0x200007c0
        0x00004a52:    4639        9F      MOV      r1,r7
        0x00004a54:    4630        0F      MOV      r0,r6
        0x00004a56:    f7fffbad    ....    BL       form_data_matrix ; 0x41b4
        0x00004a5a:    4899        .H      LDR      r0,[pc,#612] ; [0x4cc0] = 0x200007c0
        0x00004a5c:    f7fefe90    ....    BL       svd_init ; 0x3780
        0x00004a60:    2800        .(      CMP      r0,#0
        0x00004a62:    d100        ..      BNE      0x4a66 ; matrix_pencil_method_init + 78
        0x00004a64:    e7f3        ..      B        0x4a4e ; matrix_pencil_method_init + 54
        0x00004a66:    4b97        .K      LDR      r3,[pc,#604] ; [0x4cc4] = 0x20000830
        0x00004a68:    2203        ."      MOVS     r2,#3
        0x00004a6a:    4611        .F      MOV      r1,r2
        0x00004a6c:    4896        .H      LDR      r0,[pc,#600] ; [0x4cc8] = 0x200007cc
        0x00004a6e:    f7fefc37    ..7.    BL       matrix_init ; 0x32e0
        0x00004a72:    2800        .(      CMP      r0,#0
        0x00004a74:    d100        ..      BNE      0x4a78 ; matrix_pencil_method_init + 96
        0x00004a76:    e7ea        ..      B        0x4a4e ; matrix_pencil_method_init + 54
        0x00004a78:    4893        .H      LDR      r0,[pc,#588] ; [0x4cc8] = 0x200007cc
        0x00004a7a:    f7fff91f    ....    BL       svd_calculate_v ; 0x3cbc
        0x00004a7e:    4b93        .K      LDR      r3,[pc,#588] ; [0x4ccc] = 0x20000878
        0x00004a80:    2202        ."      MOVS     r2,#2
        0x00004a82:    4611        .F      MOV      r1,r2
        0x00004a84:    4880        .H      LDR      r0,[pc,#512] ; [0x4c88] = 0x200007d8
        0x00004a86:    f7fefc2b    ..+.    BL       matrix_init ; 0x32e0
        0x00004a8a:    2800        .(      CMP      r0,#0
        0x00004a8c:    d100        ..      BNE      0x4a90 ; matrix_pencil_method_init + 120
        0x00004a8e:    e7de        ..      B        0x4a4e ; matrix_pencil_method_init + 54
        0x00004a90:    f7fffef2    ....    BL       form_computing_matrix ; 0x4878
        0x00004a94:    2001        .       MOVS     r0,#1
        0x00004a96:    e7da        ..      B        0x4a4e ; matrix_pencil_method_init + 54
    exp
        0x00004a98:    b573        s.      PUSH     {r0,r1,r4-r6,lr}
        0x00004a9a:    b086        ..      SUB      sp,sp,#0x18
        0x00004a9c:    2001        .       MOVS     r0,#1
        0x00004a9e:    f000f8bd    ....    BL       fixed_point_init ; 0x4c1c
        0x00004aa2:    4605        .F      MOV      r5,r0
        0x00004aa4:    460e        .F      MOV      r6,r1
        0x00004aa6:    2001        .       MOVS     r0,#1
        0x00004aa8:    f000f8b8    ....    BL       fixed_point_init ; 0x4c1c
        0x00004aac:    9105        ..      STR      r1,[sp,#0x14]
        0x00004aae:    9004        ..      STR      r0,[sp,#0x10]
        0x00004ab0:    2401        .$      MOVS     r4,#1
        0x00004ab2:    e01d        ..      B        0x4af0 ; exp + 88
        0x00004ab4:    4620         F      MOV      r0,r4
        0x00004ab6:    f000f8b1    ....    BL       fixed_point_init ; 0x4c1c
        0x00004aba:    4602        .F      MOV      r2,r0
        0x00004abc:    460b        .F      MOV      r3,r1
        0x00004abe:    9101        ..      STR      r1,[sp,#4]
        0x00004ac0:    9000        ..      STR      r0,[sp,#0]
        0x00004ac2:    9907        ..      LDR      r1,[sp,#0x1c]
        0x00004ac4:    9806        ..      LDR      r0,[sp,#0x18]
        0x00004ac6:    f000f8bb    ....    BL       fixed_point_divide ; 0x4c40
        0x00004aca:    4602        .F      MOV      r2,r0
        0x00004acc:    460b        .F      MOV      r3,r1
        0x00004ace:    9103        ..      STR      r1,[sp,#0xc]
        0x00004ad0:    9002        ..      STR      r0,[sp,#8]
        0x00004ad2:    9905        ..      LDR      r1,[sp,#0x14]
        0x00004ad4:    9804        ..      LDR      r0,[sp,#0x10]
        0x00004ad6:    f7fff9fb    ....    BL       fixed_point_multiply ; 0x3ed0
        0x00004ada:    9105        ..      STR      r1,[sp,#0x14]
        0x00004adc:    9004        ..      STR      r0,[sp,#0x10]
        0x00004ade:    4628        (F      MOV      r0,r5
        0x00004ae0:    4631        1F      MOV      r1,r6
        0x00004ae2:    9b05        ..      LDR      r3,[sp,#0x14]
        0x00004ae4:    9a04        ..      LDR      r2,[sp,#0x10]
        0x00004ae6:    f000f89d    ....    BL       fixed_point_add ; 0x4c24
        0x00004aea:    4605        .F      MOV      r5,r0
        0x00004aec:    460e        .F      MOV      r6,r1
        0x00004aee:    1c64        d.      ADDS     r4,r4,#1
        0x00004af0:    2c14        .,      CMP      r4,#0x14
        0x00004af2:    dbdf        ..      BLT      0x4ab4 ; exp + 28
        0x00004af4:    4628        (F      MOV      r0,r5
        0x00004af6:    4631        1F      MOV      r1,r6
        0x00004af8:    b008        ..      ADD      sp,sp,#0x20
        0x00004afa:    bd70        p.      POP      {r4-r6,pc}
    ln
        0x00004afc:    b5f7        ..      PUSH     {r0-r2,r4-r7,lr}
        0x00004afe:    b086        ..      SUB      sp,sp,#0x18
        0x00004b00:    2000        .       MOVS     r0,#0
        0x00004b02:    f000f88b    ....    BL       fixed_point_init ; 0x4c1c
        0x00004b06:    9b07        ..      LDR      r3,[sp,#0x1c]
        0x00004b08:    9a06        ..      LDR      r2,[sp,#0x18]
        0x00004b0a:    1a80        ..      SUBS     r0,r0,r2
        0x00004b0c:    4199        .A      SBCS     r1,r1,r3
        0x00004b0e:    db02        ..      BLT      0x4b16 ; ln + 26
        0x00004b10:    2000        .       MOVS     r0,#0
        0x00004b12:    b009        ..      ADD      sp,sp,#0x24
        0x00004b14:    bdf0        ..      POP      {r4-r7,pc}
        0x00004b16:    2001        .       MOVS     r0,#1
        0x00004b18:    f000f880    ....    BL       fixed_point_init ; 0x4c1c
        0x00004b1c:    4604        .F      MOV      r4,r0
        0x00004b1e:    4622        "F      MOV      r2,r4
        0x00004b20:    460b        .F      MOV      r3,r1
        0x00004b22:    9907        ..      LDR      r1,[sp,#0x1c]
        0x00004b24:    9806        ..      LDR      r0,[sp,#0x18]
        0x00004b26:    f000f884    ....    BL       fixed_point_subtract ; 0x4c32
        0x00004b2a:    4606        .F      MOV      r6,r0
        0x00004b2c:    460f        .F      MOV      r7,r1
        0x00004b2e:    2001        .       MOVS     r0,#1
        0x00004b30:    f000f874    ..t.    BL       fixed_point_init ; 0x4c1c
        0x00004b34:    9105        ..      STR      r1,[sp,#0x14]
        0x00004b36:    9004        ..      STR      r0,[sp,#0x10]
        0x00004b38:    e01f        ..      B        0x4b7a ; ln + 126
        0x00004b3a:    2001        .       MOVS     r0,#1
        0x00004b3c:    f000f86e    ..n.    BL       fixed_point_init ; 0x4c1c
        0x00004b40:    9103        ..      STR      r1,[sp,#0xc]
        0x00004b42:    9002        ..      STR      r0,[sp,#8]
        0x00004b44:    4630        0F      MOV      r0,r6
        0x00004b46:    4639        9F      MOV      r1,r7
        0x00004b48:    f7ffffa6    ....    BL       exp ; 0x4a98
        0x00004b4c:    4604        .F      MOV      r4,r0
        0x00004b4e:    4622        "F      MOV      r2,r4
        0x00004b50:    460b        .F      MOV      r3,r1
        0x00004b52:    9907        ..      LDR      r1,[sp,#0x1c]
        0x00004b54:    9806        ..      LDR      r0,[sp,#0x18]
        0x00004b56:    f000f873    ..s.    BL       fixed_point_divide ; 0x4c40
        0x00004b5a:    9101        ..      STR      r1,[sp,#4]
        0x00004b5c:    9000        ..      STR      r0,[sp,#0]
        0x00004b5e:    9b03        ..      LDR      r3,[sp,#0xc]
        0x00004b60:    9a02        ..      LDR      r2,[sp,#8]
        0x00004b62:    f000f866    ..f.    BL       fixed_point_subtract ; 0x4c32
        0x00004b66:    9105        ..      STR      r1,[sp,#0x14]
        0x00004b68:    9004        ..      STR      r0,[sp,#0x10]
        0x00004b6a:    4630        0F      MOV      r0,r6
        0x00004b6c:    4639        9F      MOV      r1,r7
        0x00004b6e:    9b05        ..      LDR      r3,[sp,#0x14]
        0x00004b70:    9a04        ..      LDR      r2,[sp,#0x10]
        0x00004b72:    f000f857    ..W.    BL       fixed_point_add ; 0x4c24
        0x00004b76:    4606        .F      MOV      r6,r0
        0x00004b78:    460f        .F      MOV      r7,r1
        0x00004b7a:    2001        .       MOVS     r0,#1
        0x00004b7c:    f000f84e    ..N.    BL       fixed_point_init ; 0x4c1c
        0x00004b80:    4604        .F      MOV      r4,r0
        0x00004b82:    460d        .F      MOV      r5,r1
        0x00004b84:    2001        .       MOVS     r0,#1
        0x00004b86:    02c0        ..      LSLS     r0,r0,#11
        0x00004b88:    f000f848    ..H.    BL       fixed_point_init ; 0x4c1c
        0x00004b8c:    4602        .F      MOV      r2,r0
        0x00004b8e:    460b        .F      MOV      r3,r1
        0x00004b90:    9101        ..      STR      r1,[sp,#4]
        0x00004b92:    9000        ..      STR      r0,[sp,#0]
        0x00004b94:    9905        ..      LDR      r1,[sp,#0x14]
        0x00004b96:    9804        ..      LDR      r0,[sp,#0x10]
        0x00004b98:    f7fff99a    ....    BL       fixed_point_multiply ; 0x3ed0
        0x00004b9c:    9103        ..      STR      r1,[sp,#0xc]
        0x00004b9e:    9002        ..      STR      r0,[sp,#8]
        0x00004ba0:    f000f861    ..a.    BL       fixed_point_absolute_value ; 0x4c66
        0x00004ba4:    1a20         .      SUBS     r0,r4,r0
        0x00004ba6:    418d        .A      SBCS     r5,r5,r1
        0x00004ba8:    dbc7        ..      BLT      0x4b3a ; ln + 62
        0x00004baa:    9808        ..      LDR      r0,[sp,#0x20]
        0x00004bac:    c0c0        ..      STM      r0!,{r6,r7}
        0x00004bae:    2001        .       MOVS     r0,#1
        0x00004bb0:    e7af        ..      B        0x4b12 ; ln + 22
    matrix_pencil_method_get_time_constant
        0x00004bb2:    b570        p.      PUSH     {r4-r6,lr}
        0x00004bb4:    b088        ..      SUB      sp,sp,#0x20
        0x00004bb6:    4606        .F      MOV      r6,r0
        0x00004bb8:    2000        .       MOVS     r0,#0
        0x00004bba:    f000f82f    ../.    BL       fixed_point_init ; 0x4c1c
        0x00004bbe:    9107        ..      STR      r1,[sp,#0x1c]
        0x00004bc0:    9006        ..      STR      r0,[sp,#0x18]
        0x00004bc2:    2000        .       MOVS     r0,#0
        0x00004bc4:    f000f82a    ..*.    BL       fixed_point_init ; 0x4c1c
        0x00004bc8:    9105        ..      STR      r1,[sp,#0x14]
        0x00004bca:    9004        ..      STR      r0,[sp,#0x10]
        0x00004bcc:    a906        ..      ADD      r1,sp,#0x18
        0x00004bce:    482e        .H      LDR      r0,[pc,#184] ; [0x4c88] = 0x200007d8
        0x00004bd0:    f7fffa28    ..(.    BL       eigenvalues ; 0x4024
        0x00004bd4:    2800        .(      CMP      r0,#0
        0x00004bd6:    d101        ..      BNE      0x4bdc ; matrix_pencil_method_get_time_constant + 42
        0x00004bd8:    b008        ..      ADD      sp,sp,#0x20
        0x00004bda:    bd70        p.      POP      {r4-r6,pc}
        0x00004bdc:    aa04        ..      ADD      r2,sp,#0x10
        0x00004bde:    9907        ..      LDR      r1,[sp,#0x1c]
        0x00004be0:    9806        ..      LDR      r0,[sp,#0x18]
        0x00004be2:    f7ffff8b    ....    BL       ln ; 0x4afc
        0x00004be6:    2800        .(      CMP      r0,#0
        0x00004be8:    d100        ..      BNE      0x4bec ; matrix_pencil_method_get_time_constant + 58
        0x00004bea:    e7f5        ..      B        0x4bd8 ; matrix_pencil_method_get_time_constant + 38
        0x00004bec:    4927        'I      LDR      r1,[pc,#156] ; [0x4c8c] = 0x200000b0
        0x00004bee:    9b05        ..      LDR      r3,[sp,#0x14]
        0x00004bf0:    9a04        ..      LDR      r2,[sp,#0x10]
        0x00004bf2:    c903        ..      LDM      r1,{r0,r1}
        0x00004bf4:    f7fff96c    ..l.    BL       fixed_point_multiply ; 0x3ed0
        0x00004bf8:    9101        ..      STR      r1,[sp,#4]
        0x00004bfa:    9000        ..      STR      r0,[sp,#0]
        0x00004bfc:    2001        .       MOVS     r0,#1
        0x00004bfe:    f000f80d    ....    BL       fixed_point_init ; 0x4c1c
        0x00004c02:    4604        .F      MOV      r4,r0
        0x00004c04:    9b01        ..      LDR      r3,[sp,#4]
        0x00004c06:    9a00        ..      LDR      r2,[sp,#0]
        0x00004c08:    f000f81a    ....    BL       fixed_point_divide ; 0x4c40
        0x00004c0c:    9103        ..      STR      r1,[sp,#0xc]
        0x00004c0e:    9002        ..      STR      r0,[sp,#8]
        0x00004c10:    f000f829    ..).    BL       fixed_point_absolute_value ; 0x4c66
        0x00004c14:    6071        q`      STR      r1,[r6,#4]
        0x00004c16:    6030        0`      STR      r0,[r6,#0]
        0x00004c18:    2001        .       MOVS     r0,#1
        0x00004c1a:    e7dd        ..      B        0x4bd8 ; matrix_pencil_method_get_time_constant + 38
    fixed_point_init
        0x00004c1c:    4602        .F      MOV      r2,r0
        0x00004c1e:    0510        ..      LSLS     r0,r2,#20
        0x00004c20:    17c1        ..      ASRS     r1,r0,#31
        0x00004c22:    4770        pG      BX       lr
    fixed_point_add
        0x00004c24:    b530        0.      PUSH     {r4,r5,lr}
        0x00004c26:    4604        .F      MOV      r4,r0
        0x00004c28:    460d        .F      MOV      r5,r1
        0x00004c2a:    18a0        ..      ADDS     r0,r4,r2
        0x00004c2c:    4629        )F      MOV      r1,r5
        0x00004c2e:    4159        YA      ADCS     r1,r1,r3
        0x00004c30:    bd30        0.      POP      {r4,r5,pc}
    fixed_point_subtract
        0x00004c32:    b530        0.      PUSH     {r4,r5,lr}
        0x00004c34:    4604        .F      MOV      r4,r0
        0x00004c36:    460d        .F      MOV      r5,r1
        0x00004c38:    4629        )F      MOV      r1,r5
        0x00004c3a:    1aa0        ..      SUBS     r0,r4,r2
        0x00004c3c:    4199        .A      SBCS     r1,r1,r3
        0x00004c3e:    bd30        0.      POP      {r4,r5,pc}
    fixed_point_divide
        0x00004c40:    b5fe        ..      PUSH     {r1-r7,lr}
        0x00004c42:    4604        .F      MOV      r4,r0
        0x00004c44:    460d        .F      MOV      r5,r1
        0x00004c46:    4616        .F      MOV      r6,r2
        0x00004c48:    461f        .F      MOV      r7,r3
        0x00004c4a:    0b21        !.      LSRS     r1,r4,#12
        0x00004c4c:    0528        (.      LSLS     r0,r5,#20
        0x00004c4e:    4308        .C      ORRS     r0,r0,r1
        0x00004c50:    0521        !.      LSLS     r1,r4,#20
        0x00004c52:    4632        2F      MOV      r2,r6
        0x00004c54:    463b        ;F      MOV      r3,r7
        0x00004c56:    9100        ..      STR      r1,[sp,#0]
        0x00004c58:    9001        ..      STR      r0,[sp,#4]
        0x00004c5a:    4608        .F      MOV      r0,r1
        0x00004c5c:    9901        ..      LDR      r1,[sp,#4]
        0x00004c5e:    f000fac3    ....    BL       __aeabi_ldivmod ; 0x51e8
        0x00004c62:    b003        ..      ADD      sp,sp,#0xc
        0x00004c64:    bdf0        ..      POP      {r4-r7,pc}
    fixed_point_absolute_value
        0x00004c66:    b570        p.      PUSH     {r4-r6,lr}
        0x00004c68:    4604        .F      MOV      r4,r0
        0x00004c6a:    460d        .F      MOV      r5,r1
        0x00004c6c:    2000        .       MOVS     r0,#0
        0x00004c6e:    f7ffffd5    ....    BL       fixed_point_init ; 0x4c1c
        0x00004c72:    462a        *F      MOV      r2,r5
        0x00004c74:    1a20         .      SUBS     r0,r4,r0
        0x00004c76:    418a        .A      SBCS     r2,r2,r1
        0x00004c78:    da03        ..      BGE      0x4c82 ; fixed_point_absolute_value + 28
        0x00004c7a:    2100        .!      MOVS     r1,#0
        0x00004c7c:    4260        `B      RSBS     r0,r4,#0
        0x00004c7e:    41a9        .A      SBCS     r1,r1,r5
        0x00004c80:    bd70        p.      POP      {r4-r6,pc}
        0x00004c82:    4620         F      MOV      r0,r4
        0x00004c84:    4629        )F      MOV      r1,r5
        0x00004c86:    e7fb        ..      B        0x4c80 ; fixed_point_absolute_value + 26
    $d
        0x00004c88:    200007d8    ...     DCD    536872920
        0x00004c8c:    200000b0    ...     DCD    536871088
        0x00004c90:    200000b8    ...     DCD    536871096
        0x00004c94:    200000c0    ...     DCD    536871104
        0x00004c98:    626d756e    numb    DCD    1651340654
        0x00004c9c:    6f207265    er o    DCD    1864397413
        0x00004ca0:    61732066    f sa    DCD    1634934886
        0x00004ca4:    656c706d    mple    DCD    1701605485
        0x00004ca8:    6f632073    s co    DCD    1868767347
        0x00004cac:    63656c6c    llec    DCD    1667591276
        0x00004cb0:    3a646574    ted:    DCD    979658100
        0x00004cb4:    0a752520     %u.    DCD    175449376
        0x00004cb8:    00000000    ....    DCD    0
        0x00004cbc:    200007e8    ...     DCD    536872936
        0x00004cc0:    200007c0    ...     DCD    536872896
        0x00004cc4:    20000830    0..     DCD    536873008
        0x00004cc8:    200007cc    ...     DCD    536872908
        0x00004ccc:    20000878    x..     DCD    536873080
    $t
    .text
    sensor_resistive_init
        0x00004cd0:    b538        8.      PUSH     {r3-r5,lr}
        0x00004cd2:    4604        .F      MOV      r4,r0
        0x00004cd4:    7820         x      LDRB     r0,[r4,#0]
        0x00004cd6:    4948        HI      LDR      r1,[pc,#288] ; [0x4df8] = 0x200000c4
        0x00004cd8:    7008        .p      STRB     r0,[r1,#0]
        0x00004cda:    8860        `.      LDRH     r0,[r4,#2]
        0x00004cdc:    4947        GI      LDR      r1,[pc,#284] ; [0x4dfc] = 0x200000c6
        0x00004cde:    8008        ..      STRH     r0,[r1,#0]
        0x00004ce0:    7920         y      LDRB     r0,[r4,#4]
        0x00004ce2:    4947        GI      LDR      r1,[pc,#284] ; [0x4e00] = 0x200000c8
        0x00004ce4:    7008        .p      STRB     r0,[r1,#0]
        0x00004ce6:    4844        DH      LDR      r0,[pc,#272] ; [0x4df8] = 0x200000c4
        0x00004ce8:    7800        .x      LDRB     r0,[r0,#0]
        0x00004cea:    9000        ..      STR      r0,[sp,#0]
        0x00004cec:    4668        hF      MOV      r0,sp
        0x00004cee:    f000f9e3    ....    BL       sensor_gpio_init ; 0x50b8
        0x00004cf2:    4620         F      MOV      r0,r4
        0x00004cf4:    3008        .0      ADDS     r0,r0,#8
        0x00004cf6:    f000f9a5    ....    BL       sensor_capacitor_init ; 0x5044
        0x00004cfa:    f000f9c6    ....    BL       sensor_capacitor_set_next_mask ; 0x508a
        0x00004cfe:    bd38        8.      POP      {r3-r5,pc}
    sensor_resistive_measure
        0x00004d00:    b57c        |.      PUSH     {r2-r6,lr}
        0x00004d02:    4604        .F      MOV      r4,r0
        0x00004d04:    2001        .       MOVS     r0,#1
        0x00004d06:    493f        ?I      LDR      r1,[pc,#252] ; [0x4e04] = 0x200000c9
        0x00004d08:    7008        .p      STRB     r0,[r1,#0]
        0x00004d0a:    f000f837    ..7.    BL       sensor_resistive_measure_run ; 0x4d7c
        0x00004d0e:    a03e        >.      ADR      r0,{pc}+0xfa ; 0x4e08
        0x00004d10:    f000faa2    ....    BL       __2printf ; 0x5258
        0x00004d14:    f000f91e    ....    BL       time_constant_estimate ; 0x4f54
        0x00004d18:    4605        .F      MOV      r5,r0
        0x00004d1a:    460e        .F      MOV      r6,r1
        0x00004d1c:    2001        .       MOVS     r0,#1
        0x00004d1e:    0501        ..      LSLS     r1,r0,#20
        0x00004d20:    17ca        ..      ASRS     r2,r1,#31
        0x00004d22:    9201        ..      STR      r2,[sp,#4]
        0x00004d24:    9100        ..      STR      r1,[sp,#0]
        0x00004d26:    2000        .       MOVS     r0,#0
        0x00004d28:    6020         `      STR      r0,[r4,#0]
        0x00004d2a:    6060        ``      STR      r0,[r4,#4]
        0x00004d2c:    60a0        .`      STR      r0,[r4,#8]
        0x00004d2e:    60e0        .`      STR      r0,[r4,#0xc]
        0x00004d30:    6066        f`      STR      r6,[r4,#4]
        0x00004d32:    6025        %`      STR      r5,[r4,#0]
        0x00004d34:    9901        ..      LDR      r1,[sp,#4]
        0x00004d36:    9800        ..      LDR      r0,[sp,#0]
        0x00004d38:    60e1        .`      STR      r1,[r4,#0xc]
        0x00004d3a:    60a0        .`      STR      r0,[r4,#8]
        0x00004d3c:    bd7c        |.      POP      {r2-r6,pc}
    sensor_resistive_rftimer_callback
        0x00004d3e:    b510        ..      PUSH     {r4,lr}
        0x00004d40:    4930        0I      LDR      r1,[pc,#192] ; [0x4e04] = 0x200000c9
        0x00004d42:    2000        .       MOVS     r0,#0
        0x00004d44:    5608        .V      LDRSB    r0,[r1,r0]
        0x00004d46:    1c40        @.      ADDS     r0,r0,#1
        0x00004d48:    0003        ..      MOVS     r3,r0
        0x00004d4a:    f000fe21    ..!.    BL       __ARM_common_switch8 ; 0x5990
    $d
        0x00004d4e:    1405        ..      DCW    5125
        0x00004d50:    13081204    ....    DCD    319296004
        0x00004d54:    0011        ..      DCW    17
    $t
        0x00004d56:    2001        .       MOVS     r0,#1
        0x00004d58:    492a        *I      LDR      r1,[pc,#168] ; [0x4e04] = 0x200000c9
        0x00004d5a:    7008        .p      STRB     r0,[r1,#0]
        0x00004d5c:    e00c        ..      B        0x4d78 ; sensor_resistive_rftimer_callback + 58
        0x00004d5e:    f7fcfb23    ..#.    BL       adc_trigger ; 0x13a8
        0x00004d62:    4825        %H      LDR      r0,[pc,#148] ; [0x4df8] = 0x200000c4
        0x00004d64:    7801        .x      LDRB     r1,[r0,#0]
        0x00004d66:    4825        %H      LDR      r0,[pc,#148] ; [0x4dfc] = 0x200000c6
        0x00004d68:    8800        ..      LDRH     r0,[r0,#0]
        0x00004d6a:    f7fcfeac    ....    BL       delay_milliseconds_asynchronous ; 0x1ac6
        0x00004d6e:    e003        ..      B        0x4d78 ; sensor_resistive_rftimer_callback + 58
        0x00004d70:    bf00        ..      NOP      
        0x00004d72:    bf00        ..      NOP      
        0x00004d74:    bf00        ..      NOP      
        0x00004d76:    bf00        ..      NOP      
        0x00004d78:    bf00        ..      NOP      
        0x00004d7a:    bd10        ..      POP      {r4,pc}
    sensor_resistive_measure_run
        0x00004d7c:    b510        ..      PUSH     {r4,lr}
        0x00004d7e:    e03a        :.      B        0x4df6 ; sensor_resistive_measure_run + 122
        0x00004d80:    4920         I      LDR      r1,[pc,#128] ; [0x4e04] = 0x200000c9
        0x00004d82:    2000        .       MOVS     r0,#0
        0x00004d84:    5608        .V      LDRSB    r0,[r1,r0]
        0x00004d86:    1c40        @.      ADDS     r0,r0,#1
        0x00004d88:    0003        ..      MOVS     r3,r0
        0x00004d8a:    f000fe01    ....    BL       __ARM_common_switch8 ; 0x5990
    $d
        0x00004d8e:    3205        .2      DCW    12805
        0x00004d90:    31190430    0..1    DCD    823723056
        0x00004d94:    002f        /.      DCW    47
    $t
        0x00004d96:    4819        .H      LDR      r0,[pc,#100] ; [0x4dfc] = 0x200000c6
        0x00004d98:    8800        ..      LDRH     r0,[r0,#0]
        0x00004d9a:    f000f855    ..U.    BL       time_constant_init ; 0x4e48
        0x00004d9e:    4918        .I      LDR      r1,[pc,#96] ; [0x4e00] = 0x200000c8
        0x00004da0:    2000        .       MOVS     r0,#0
        0x00004da2:    5608        .V      LDRSB    r0,[r1,r0]
        0x00004da4:    f000f9d8    ....    BL       sensor_gpio_excite ; 0x5158
        0x00004da8:    f7fcfafe    ....    BL       adc_trigger ; 0x13a8
        0x00004dac:    4812        .H      LDR      r0,[pc,#72] ; [0x4df8] = 0x200000c4
        0x00004dae:    7801        .x      LDRB     r1,[r0,#0]
        0x00004db0:    4812        .H      LDR      r0,[pc,#72] ; [0x4dfc] = 0x200000c6
        0x00004db2:    8800        ..      LDRH     r0,[r0,#0]
        0x00004db4:    f7fcfe87    ....    BL       delay_milliseconds_asynchronous ; 0x1ac6
        0x00004db8:    2002        .       MOVS     r0,#2
        0x00004dba:    4912        .I      LDR      r1,[pc,#72] ; [0x4e04] = 0x200000c9
        0x00004dbc:    7008        .p      STRB     r0,[r1,#0]
        0x00004dbe:    e019        ..      B        0x4df4 ; sensor_resistive_measure_run + 120
        0x00004dc0:    f7fcfafa    ....    BL       adc_output_valid ; 0x13b8
        0x00004dc4:    2800        .(      CMP      r0,#0
        0x00004dc6:    d010        ..      BEQ      0x4dea ; sensor_resistive_measure_run + 110
        0x00004dc8:    f7fcfafd    ....    BL       adc_peek_output ; 0x13c6
        0x00004dcc:    4604        .F      MOV      r4,r0
        0x00004dce:    f7fcfaf6    ....    BL       adc_output_reset_valid ; 0x13be
        0x00004dd2:    4620         F      MOV      r0,r4
        0x00004dd4:    f000f84f    ..O.    BL       time_constant_add_sample ; 0x4e76
        0x00004dd8:    f000f8b4    ....    BL       time_constant_has_sufficient_samples ; 0x4f44
        0x00004ddc:    2800        .(      CMP      r0,#0
        0x00004dde:    d003        ..      BEQ      0x4de8 ; sensor_resistive_measure_run + 108
        0x00004de0:    2003        .       MOVS     r0,#3
        0x00004de2:    4908        .I      LDR      r1,[pc,#32] ; [0x4e04] = 0x200000c9
        0x00004de4:    7008        .p      STRB     r0,[r1,#0]
        0x00004de6:    bd10        ..      POP      {r4,pc}
        0x00004de8:    bf00        ..      NOP      
        0x00004dea:    e003        ..      B        0x4df4 ; sensor_resistive_measure_run + 120
        0x00004dec:    bf00        ..      NOP      
        0x00004dee:    bf00        ..      NOP      
        0x00004df0:    bf00        ..      NOP      
        0x00004df2:    bf00        ..      NOP      
        0x00004df4:    bf00        ..      NOP      
        0x00004df6:    e7c3        ..      B        0x4d80 ; sensor_resistive_measure_run + 4
    $d
        0x00004df8:    200000c4    ...     DCD    536871108
        0x00004dfc:    200000c6    ...     DCD    536871110
        0x00004e00:    200000c8    ...     DCD    536871112
        0x00004e04:    200000c9    ...     DCD    536871113
        0x00004e08:    65636552    Rece    DCD    1701012818
        0x00004e0c:    64657669    ived    DCD    1684371049
        0x00004e10:    66757320     suf    DCD    1718973216
        0x00004e14:    69636966    fici    DCD    1768122726
        0x00004e18:    20746e65    ent     DCD    544501349
        0x00004e1c:    706d6173    samp    DCD    1886216563
        0x00004e20:    2e73656c    les.    DCD    779314540
        0x00004e24:    74734520     Est    DCD    1953711392
        0x00004e28:    74616d69    imat    DCD    1952542057
        0x00004e2c:    20676e69    ing     DCD    543649385
        0x00004e30:    20656874    the     DCD    543516788
        0x00004e34:    656d6974    time    DCD    1701669236
        0x00004e38:    6e6f6320     con    DCD    1852793632
        0x00004e3c:    6e617473    stan    DCD    1851880563
        0x00004e40:    6f6e2074    t no    DCD    1869488244
        0x00004e44:    000a2e77    w...    DCD    667255
    $t
    .text
    time_constant_init
        0x00004e48:    b510        ..      PUSH     {r4,lr}
        0x00004e4a:    4604        .F      MOV      r4,r0
        0x00004e4c:    4621        !F      MOV      r1,r4
        0x00004e4e:    207d        }       MOVS     r0,#0x7d
        0x00004e50:    00c0        ..      LSLS     r0,r0,#3
        0x00004e52:    f000fb69    ..i.    BL       __aeabi_uidiv ; 0x5528
        0x00004e56:    4952        RI      LDR      r1,[pc,#328] ; [0x4fa0] = 0x200000cc
        0x00004e58:    6008        .`      STR      r0,[r1,#0]
        0x00004e5a:    2000        .       MOVS     r0,#0
        0x00004e5c:    4951        QI      LDR      r1,[pc,#324] ; [0x4fa4] = 0x200000d4
        0x00004e5e:    6008        .`      STR      r0,[r1,#0]
        0x00004e60:    4851        QH      LDR      r0,[pc,#324] ; [0x4fa8] = 0x3ff
        0x00004e62:    4952        RI      LDR      r1,[pc,#328] ; [0x4fac] = 0x200000d8
        0x00004e64:    8008        ..      STRH     r0,[r1,#0]
        0x00004e66:    2000        .       MOVS     r0,#0
        0x00004e68:    4951        QI      LDR      r1,[pc,#324] ; [0x4fb0] = 0x200000dc
        0x00004e6a:    6008        .`      STR      r0,[r1,#0]
        0x00004e6c:    4951        QI      LDR      r1,[pc,#324] ; [0x4fb4] = 0x200000e0
        0x00004e6e:    6008        .`      STR      r0,[r1,#0]
        0x00004e70:    4951        QI      LDR      r1,[pc,#324] ; [0x4fb8] = 0x200000d0
        0x00004e72:    7008        .p      STRB     r0,[r1,#0]
        0x00004e74:    bd10        ..      POP      {r4,pc}
    time_constant_add_sample
        0x00004e76:    b570        p.      PUSH     {r4-r6,lr}
        0x00004e78:    4604        .F      MOV      r4,r0
        0x00004e7a:    494f        OI      LDR      r1,[pc,#316] ; [0x4fb8] = 0x200000d0
        0x00004e7c:    2000        .       MOVS     r0,#0
        0x00004e7e:    5608        .V      LDRSB    r0,[r1,r0]
        0x00004e80:    1c40        @.      ADDS     r0,r0,#1
        0x00004e82:    0003        ..      MOVS     r3,r0
        0x00004e84:    f000fd84    ....    BL       __ARM_common_switch8 ; 0x5990
    $d
        0x00004e88:    24045705    .W.$    DCD    604264197
        0x00004e8c:    00565958    XYV.    DCD    5658968
    $t
        0x00004e90:    4844        DH      LDR      r0,[pc,#272] ; [0x4fa4] = 0x200000d4
        0x00004e92:    6800        .h      LDR      r0,[r0,#0]
        0x00004e94:    0040        @.      LSLS     r0,r0,#1
        0x00004e96:    4949        II      LDR      r1,[pc,#292] ; [0x4fbc] = 0x20000898
        0x00004e98:    5a0d        .Z      LDRH     r5,[r1,r0]
        0x00004e9a:    4849        IH      LDR      r0,[pc,#292] ; [0x4fc0] = 0x1ff
        0x00004e9c:    4285        .B      CMP      r5,r0
        0x00004e9e:    d111        ..      BNE      0x4ec4 ; time_constant_add_sample + 78
        0x00004ea0:    4284        .B      CMP      r4,r0
        0x00004ea2:    da0f        ..      BGE      0x4ec4 ; time_constant_add_sample + 78
        0x00004ea4:    4940        @I      LDR      r1,[pc,#256] ; [0x4fa8] = 0x3ff
        0x00004ea6:    1861        a.      ADDS     r1,r4,r1
        0x00004ea8:    1a09        ..      SUBS     r1,r1,r0
        0x00004eaa:    b288        ..      UXTH     r0,r1
        0x00004eac:    f000f88a    ....    BL       adc_msb_init ; 0x4fc4
        0x00004eb0:    f000f8c0    ....    BL       adc_msb_get_disambiguated_sample ; 0x5034
        0x00004eb4:    4606        .F      MOV      r6,r0
        0x00004eb6:    4630        0F      MOV      r0,r6
        0x00004eb8:    f000f867    ..g.    BL       time_constant_add_to_buffer ; 0x4f8a
        0x00004ebc:    2001        .       MOVS     r0,#1
        0x00004ebe:    493e        >I      LDR      r1,[pc,#248] ; [0x4fb8] = 0x200000d0
        0x00004ec0:    7008        .p      STRB     r0,[r1,#0]
        0x00004ec2:    e004        ..      B        0x4ece ; time_constant_add_sample + 88
        0x00004ec4:    4837        7H      LDR      r0,[pc,#220] ; [0x4fa4] = 0x200000d4
        0x00004ec6:    6800        .h      LDR      r0,[r0,#0]
        0x00004ec8:    0040        @.      LSLS     r0,r0,#1
        0x00004eca:    493c        <I      LDR      r1,[pc,#240] ; [0x4fbc] = 0x20000898
        0x00004ecc:    520c        .R      STRH     r4,[r1,r0]
        0x00004ece:    e036        6.      B        0x4f3e ; time_constant_add_sample + 200
        0x00004ed0:    4620         F      MOV      r0,r4
        0x00004ed2:    f000f87a    ..z.    BL       adc_msb_disambiguate ; 0x4fca
        0x00004ed6:    f000f8ad    ....    BL       adc_msb_get_disambiguated_sample ; 0x5034
        0x00004eda:    4605        .F      MOV      r5,r0
        0x00004edc:    4628        (F      MOV      r0,r5
        0x00004ede:    f000f854    ..T.    BL       time_constant_add_to_buffer ; 0x4f8a
        0x00004ee2:    2d80        .-      CMP      r5,#0x80
        0x00004ee4:    dc12        ..      BGT      0x4f0c ; time_constant_add_sample + 150
        0x00004ee6:    4831        1H      LDR      r0,[pc,#196] ; [0x4fac] = 0x200000d8
        0x00004ee8:    8800        ..      LDRH     r0,[r0,#0]
        0x00004eea:    492f        /I      LDR      r1,[pc,#188] ; [0x4fa8] = 0x3ff
        0x00004eec:    4288        .B      CMP      r0,r1
        0x00004eee:    d10d        ..      BNE      0x4f0c ; time_constant_add_sample + 150
        0x00004ef0:    482e        .H      LDR      r0,[pc,#184] ; [0x4fac] = 0x200000d8
        0x00004ef2:    8005        ..      STRH     r5,[r0,#0]
        0x00004ef4:    2000        .       MOVS     r0,#0
        0x00004ef6:    492e        .I      LDR      r1,[pc,#184] ; [0x4fb0] = 0x200000dc
        0x00004ef8:    6008        .`      STR      r0,[r1,#0]
        0x00004efa:    492a        *I      LDR      r1,[pc,#168] ; [0x4fa4] = 0x200000d4
        0x00004efc:    6809        .h      LDR      r1,[r1,#0]
        0x00004efe:    0088        ..      LSLS     r0,r1,#2
        0x00004f00:    2105        .!      MOVS     r1,#5
        0x00004f02:    f000fb11    ....    BL       __aeabi_uidiv ; 0x5528
        0x00004f06:    492b        +I      LDR      r1,[pc,#172] ; [0x4fb4] = 0x200000e0
        0x00004f08:    6008        .`      STR      r0,[r1,#0]
        0x00004f0a:    e012        ..      B        0x4f32 ; time_constant_add_sample + 188
        0x00004f0c:    4827        'H      LDR      r0,[pc,#156] ; [0x4fac] = 0x200000d8
        0x00004f0e:    8800        ..      LDRH     r0,[r0,#0]
        0x00004f10:    4925        %I      LDR      r1,[pc,#148] ; [0x4fa8] = 0x3ff
        0x00004f12:    4288        .B      CMP      r0,r1
        0x00004f14:    d00d        ..      BEQ      0x4f32 ; time_constant_add_sample + 188
        0x00004f16:    4826        &H      LDR      r0,[pc,#152] ; [0x4fb0] = 0x200000dc
        0x00004f18:    6800        .h      LDR      r0,[r0,#0]
        0x00004f1a:    1c40        @.      ADDS     r0,r0,#1
        0x00004f1c:    4924        $I      LDR      r1,[pc,#144] ; [0x4fb0] = 0x200000dc
        0x00004f1e:    6008        .`      STR      r0,[r1,#0]
        0x00004f20:    4608        .F      MOV      r0,r1
        0x00004f22:    6800        .h      LDR      r0,[r0,#0]
        0x00004f24:    4923        #I      LDR      r1,[pc,#140] ; [0x4fb4] = 0x200000e0
        0x00004f26:    6809        .h      LDR      r1,[r1,#0]
        0x00004f28:    4288        .B      CMP      r0,r1
        0x00004f2a:    d902        ..      BLS      0x4f32 ; time_constant_add_sample + 188
        0x00004f2c:    2002        .       MOVS     r0,#2
        0x00004f2e:    4922        "I      LDR      r1,[pc,#136] ; [0x4fb8] = 0x200000d0
        0x00004f30:    7008        .p      STRB     r0,[r1,#0]
        0x00004f32:    e004        ..      B        0x4f3e ; time_constant_add_sample + 200
        0x00004f34:    bf00        ..      NOP      
        0x00004f36:    bf00        ..      NOP      
        0x00004f38:    bf00        ..      NOP      
        0x00004f3a:    2000        .       MOVS     r0,#0
        0x00004f3c:    bd70        p.      POP      {r4-r6,pc}
        0x00004f3e:    bf00        ..      NOP      
        0x00004f40:    2001        .       MOVS     r0,#1
        0x00004f42:    e7fb        ..      B        0x4f3c ; time_constant_add_sample + 198
    time_constant_has_sufficient_samples
        0x00004f44:    481c        .H      LDR      r0,[pc,#112] ; [0x4fb8] = 0x200000d0
        0x00004f46:    7800        .x      LDRB     r0,[r0,#0]
        0x00004f48:    2802        .(      CMP      r0,#2
        0x00004f4a:    d101        ..      BNE      0x4f50 ; time_constant_has_sufficient_samples + 12
        0x00004f4c:    2001        .       MOVS     r0,#1
        0x00004f4e:    4770        pG      BX       lr
        0x00004f50:    2000        .       MOVS     r0,#0
        0x00004f52:    e7fc        ..      B        0x4f4e ; time_constant_has_sufficient_samples + 10
    time_constant_estimate
        0x00004f54:    b57c        |.      PUSH     {r2-r6,lr}
        0x00004f56:    4812        .H      LDR      r0,[pc,#72] ; [0x4fa0] = 0x200000cc
        0x00004f58:    6800        .h      LDR      r0,[r0,#0]
        0x00004f5a:    f000f812    ....    BL       fixed_point_init ; 0x4f82
        0x00004f5e:    4604        .F      MOV      r4,r0
        0x00004f60:    4810        .H      LDR      r0,[pc,#64] ; [0x4fa4] = 0x200000d4
        0x00004f62:    4a16        .J      LDR      r2,[pc,#88] ; [0x4fbc] = 0x20000898
        0x00004f64:    6803        .h      LDR      r3,[r0,#0]
        0x00004f66:    4620         F      MOV      r0,r4
        0x00004f68:    f7fffd56    ..V.    BL       matrix_pencil_method_init ; 0x4a18
        0x00004f6c:    2000        .       MOVS     r0,#0
        0x00004f6e:    f000f808    ....    BL       fixed_point_init ; 0x4f82
        0x00004f72:    9101        ..      STR      r1,[sp,#4]
        0x00004f74:    9000        ..      STR      r0,[sp,#0]
        0x00004f76:    4668        hF      MOV      r0,sp
        0x00004f78:    f7fffe1b    ....    BL       matrix_pencil_method_get_time_constant ; 0x4bb2
        0x00004f7c:    9901        ..      LDR      r1,[sp,#4]
        0x00004f7e:    9800        ..      LDR      r0,[sp,#0]
        0x00004f80:    bd7c        |.      POP      {r2-r6,pc}
    fixed_point_init
        0x00004f82:    4602        .F      MOV      r2,r0
        0x00004f84:    0510        ..      LSLS     r0,r2,#20
        0x00004f86:    17c1        ..      ASRS     r1,r0,#31
        0x00004f88:    4770        pG      BX       lr
    time_constant_add_to_buffer
        0x00004f8a:    4906        .I      LDR      r1,[pc,#24] ; [0x4fa4] = 0x200000d4
        0x00004f8c:    6809        .h      LDR      r1,[r1,#0]
        0x00004f8e:    0049        I.      LSLS     r1,r1,#1
        0x00004f90:    4a0a        .J      LDR      r2,[pc,#40] ; [0x4fbc] = 0x20000898
        0x00004f92:    5250        PR      STRH     r0,[r2,r1]
        0x00004f94:    4903        .I      LDR      r1,[pc,#12] ; [0x4fa4] = 0x200000d4
        0x00004f96:    6809        .h      LDR      r1,[r1,#0]
        0x00004f98:    1c49        I.      ADDS     r1,r1,#1
        0x00004f9a:    4a02        .J      LDR      r2,[pc,#8] ; [0x4fa4] = 0x200000d4
        0x00004f9c:    6011        .`      STR      r1,[r2,#0]
        0x00004f9e:    4770        pG      BX       lr
    $d
        0x00004fa0:    200000cc    ...     DCD    536871116
        0x00004fa4:    200000d4    ...     DCD    536871124
        0x00004fa8:    000003ff    ....    DCD    1023
        0x00004fac:    200000d8    ...     DCD    536871128
        0x00004fb0:    200000dc    ...     DCD    536871132
        0x00004fb4:    200000e0    ...     DCD    536871136
        0x00004fb8:    200000d0    ...     DCD    536871120
        0x00004fbc:    20000898    ...     DCD    536873112
        0x00004fc0:    000001ff    ....    DCD    511
    $t
    .text
    adc_msb_init
        0x00004fc4:    491d        .I      LDR      r1,[pc,#116] ; [0x503c] = 0x200000e4
        0x00004fc6:    8008        ..      STRH     r0,[r1,#0]
        0x00004fc8:    4770        pG      BX       lr
    adc_msb_disambiguate
        0x00004fca:    b510        ..      PUSH     {r4,lr}
        0x00004fcc:    4601        .F      MOV      r1,r0
        0x00004fce:    481b        .H      LDR      r0,[pc,#108] ; [0x503c] = 0x200000e4
        0x00004fd0:    8800        ..      LDRH     r0,[r0,#0]
        0x00004fd2:    4281        .B      CMP      r1,r0
        0x00004fd4:    da2a        *.      BGE      0x502c ; adc_msb_disambiguate + 98
        0x00004fd6:    4b19        .K      LDR      r3,[pc,#100] ; [0x503c] = 0x200000e4
        0x00004fd8:    881b        ..      LDRH     r3,[r3,#0]
        0x00004fda:    1a5a        Z.      SUBS     r2,r3,r1
        0x00004fdc:    17d3        ..      ASRS     r3,r2,#31
        0x00004fde:    0ddb        ..      LSRS     r3,r3,#23
        0x00004fe0:    189b        ..      ADDS     r3,r3,r2
        0x00004fe2:    1258        X.      ASRS     r0,r3,#9
        0x00004fe4:    0242        B.      LSLS     r2,r0,#9
        0x00004fe6:    1852        R.      ADDS     r2,r2,r1
        0x00004fe8:    4b14        .K      LDR      r3,[pc,#80] ; [0x503c] = 0x200000e4
        0x00004fea:    881b        ..      LDRH     r3,[r3,#0]
        0x00004fec:    1a9b        ..      SUBS     r3,r3,r2
        0x00004fee:    1c42        B.      ADDS     r2,r0,#1
        0x00004ff0:    0252        R.      LSLS     r2,r2,#9
        0x00004ff2:    1852        R.      ADDS     r2,r2,r1
        0x00004ff4:    4c11        .L      LDR      r4,[pc,#68] ; [0x503c] = 0x200000e4
        0x00004ff6:    8824        $.      LDRH     r4,[r4,#0]
        0x00004ff8:    1b12        ..      SUBS     r2,r2,r4
        0x00004ffa:    4293        .B      CMP      r3,r2
        0x00004ffc:    d204        ..      BCS      0x5008 ; adc_msb_disambiguate + 62
        0x00004ffe:    0242        B.      LSLS     r2,r0,#9
        0x00005000:    1852        R.      ADDS     r2,r2,r1
        0x00005002:    4b0e        .K      LDR      r3,[pc,#56] ; [0x503c] = 0x200000e4
        0x00005004:    801a        ..      STRH     r2,[r3,#0]
        0x00005006:    e004        ..      B        0x5012 ; adc_msb_disambiguate + 72
        0x00005008:    1c42        B.      ADDS     r2,r0,#1
        0x0000500a:    0252        R.      LSLS     r2,r2,#9
        0x0000500c:    1852        R.      ADDS     r2,r2,r1
        0x0000500e:    4b0b        .K      LDR      r3,[pc,#44] ; [0x503c] = 0x200000e4
        0x00005010:    801a        ..      STRH     r2,[r3,#0]
        0x00005012:    4a0a        .J      LDR      r2,[pc,#40] ; [0x503c] = 0x200000e4
        0x00005014:    8812        ..      LDRH     r2,[r2,#0]
        0x00005016:    4b0a        .K      LDR      r3,[pc,#40] ; [0x5040] = 0x3ff
        0x00005018:    429a        .B      CMP      r2,r3
        0x0000501a:    dd06        ..      BLE      0x502a ; adc_msb_disambiguate + 96
        0x0000501c:    4a07        .J      LDR      r2,[pc,#28] ; [0x503c] = 0x200000e4
        0x0000501e:    8812        ..      LDRH     r2,[r2,#0]
        0x00005020:    3aff        .:      SUBS     r2,r2,#0xff
        0x00005022:    3aff        .:      SUBS     r2,r2,#0xff
        0x00005024:    3a02        .:      SUBS     r2,#2
        0x00005026:    4b05        .K      LDR      r3,[pc,#20] ; [0x503c] = 0x200000e4
        0x00005028:    801a        ..      STRH     r2,[r3,#0]
        0x0000502a:    e001        ..      B        0x5030 ; adc_msb_disambiguate + 102
        0x0000502c:    4803        .H      LDR      r0,[pc,#12] ; [0x503c] = 0x200000e4
        0x0000502e:    8001        ..      STRH     r1,[r0,#0]
        0x00005030:    2001        .       MOVS     r0,#1
        0x00005032:    bd10        ..      POP      {r4,pc}
    adc_msb_get_disambiguated_sample
        0x00005034:    4801        .H      LDR      r0,[pc,#4] ; [0x503c] = 0x200000e4
        0x00005036:    8800        ..      LDRH     r0,[r0,#0]
        0x00005038:    4770        pG      BX       lr
    $d
        0x0000503a:    0000        ..      DCW    0
        0x0000503c:    200000e4    ...     DCD    536871140
        0x00005040:    000003ff    ....    DCD    1023
    $t
    .text
    sensor_capacitor_init
        0x00005044:    b510        ..      PUSH     {r4,lr}
        0x00005046:    4604        .F      MOV      r4,r0
        0x00005048:    221c        ."      MOVS     r2,#0x1c
        0x0000504a:    4621        !F      MOV      r1,r4
        0x0000504c:    4818        .H      LDR      r0,[pc,#96] ; [0x50b0] = 0x20002fa8
        0x0000504e:    f7fbf885    ....    BL       __aeabi_memcpy4 ; 0x15c
        0x00005052:    bd10        ..      POP      {r4,pc}
    sensor_capacitor_set_gpios
        0x00005054:    b570        p.      PUSH     {r4-r6,lr}
        0x00005056:    4605        .F      MOV      r5,r0
        0x00005058:    2400        .$      MOVS     r4,#0
        0x0000505a:    e011        ..      B        0x5080 ; sensor_capacitor_set_gpios + 44
        0x0000505c:    4628        (F      MOV      r0,r5
        0x0000505e:    4120         A      ASRS     r0,r0,r4
        0x00005060:    07c0        ..      LSLS     r0,r0,#31
        0x00005062:    0fc0        ..      LSRS     r0,r0,#31
        0x00005064:    2800        .(      CMP      r0,#0
        0x00005066:    d005        ..      BEQ      0x5074 ; sensor_capacitor_set_gpios + 32
        0x00005068:    4911        .I      LDR      r1,[pc,#68] ; [0x50b0] = 0x20002fa8
        0x0000506a:    1d09        ..      ADDS     r1,r1,#4
        0x0000506c:    5708        .W      LDRSB    r0,[r1,r4]
        0x0000506e:    f000f844    ..D.    BL       sensor_gpio_set_low ; 0x50fa
        0x00005072:    e004        ..      B        0x507e ; sensor_capacitor_set_gpios + 42
        0x00005074:    490e        .I      LDR      r1,[pc,#56] ; [0x50b0] = 0x20002fa8
        0x00005076:    1d09        ..      ADDS     r1,r1,#4
        0x00005078:    5708        .W      LDRSB    r0,[r1,r4]
        0x0000507a:    f000f857    ..W.    BL       sensor_gpio_set_high_z ; 0x512c
        0x0000507e:    1c64        d.      ADDS     r4,r4,#1
        0x00005080:    480b        .H      LDR      r0,[pc,#44] ; [0x50b0] = 0x20002fa8
        0x00005082:    6800        .h      LDR      r0,[r0,#0]
        0x00005084:    42a0        .B      CMP      r0,r4
        0x00005086:    d8e9        ..      BHI      0x505c ; sensor_capacitor_set_gpios + 8
        0x00005088:    bd70        p.      POP      {r4-r6,pc}
    sensor_capacitor_set_next_mask
        0x0000508a:    b510        ..      PUSH     {r4,lr}
        0x0000508c:    4808        .H      LDR      r0,[pc,#32] ; [0x50b0] = 0x20002fa8
        0x0000508e:    300c        .0      ADDS     r0,r0,#0xc
        0x00005090:    4908        .I      LDR      r1,[pc,#32] ; [0x50b4] = 0x200000e8
        0x00005092:    6809        .h      LDR      r1,[r1,#0]
        0x00005094:    5c44        D\      LDRB     r4,[r0,r1]
        0x00005096:    4620         F      MOV      r0,r4
        0x00005098:    f7ffffdc    ....    BL       sensor_capacitor_set_gpios ; 0x5054
        0x0000509c:    4804        .H      LDR      r0,[pc,#16] ; [0x50b0] = 0x20002fa8
        0x0000509e:    6881        .h      LDR      r1,[r0,#8]
        0x000050a0:    4804        .H      LDR      r0,[pc,#16] ; [0x50b4] = 0x200000e8
        0x000050a2:    6800        .h      LDR      r0,[r0,#0]
        0x000050a4:    1c40        @.      ADDS     r0,r0,#1
        0x000050a6:    f000fa3f    ..?.    BL       __aeabi_uidiv ; 0x5528
        0x000050aa:    4802        .H      LDR      r0,[pc,#8] ; [0x50b4] = 0x200000e8
        0x000050ac:    6001        .`      STR      r1,[r0,#0]
        0x000050ae:    bd10        ..      POP      {r4,pc}
    $d
        0x000050b0:    20002fa8    ./.     DCD    536883112
        0x000050b4:    200000e8    ...     DCD    536871144
    $t
    .text
    sensor_gpio_init
        0x000050b8:    b510        ..      PUSH     {r4,lr}
        0x000050ba:    4604        .F      MOV      r4,r0
        0x000050bc:    4835        5H      LDR      r0,[pc,#212] ; [0x5194] = 0x200000ec
        0x000050be:    7821        !x      LDRB     r1,[r4,#0]
        0x000050c0:    7001        .p      STRB     r1,[r0,#0]
        0x000050c2:    f000f858    ..X.    BL       sensor_gpio_set_enable ; 0x5176
        0x000050c6:    bd10        ..      POP      {r4,pc}
    sensor_gpio_set_high
        0x000050c8:    b510        ..      PUSH     {r4,lr}
        0x000050ca:    4604        .F      MOV      r4,r0
        0x000050cc:    4620         F      MOV      r0,r4
        0x000050ce:    f7fcfaa9    ....    BL       gpio_set_low ; 0x1624
        0x000050d2:    2001        .       MOVS     r0,#1
        0x000050d4:    40a0        .@      LSLS     r0,r0,r4
        0x000050d6:    4930        0I      LDR      r1,[pc,#192] ; [0x5198] = 0x200000ee
        0x000050d8:    8809        ..      LDRH     r1,[r1,#0]
        0x000050da:    4381        .C      BICS     r1,r1,r0
        0x000050dc:    482e        .H      LDR      r0,[pc,#184] ; [0x5198] = 0x200000ee
        0x000050de:    8001        ..      STRH     r1,[r0,#0]
        0x000050e0:    2001        .       MOVS     r0,#1
        0x000050e2:    40a0        .@      LSLS     r0,r0,r4
        0x000050e4:    492d        -I      LDR      r1,[pc,#180] ; [0x519c] = 0x200000f0
        0x000050e6:    8809        ..      LDRH     r1,[r1,#0]
        0x000050e8:    4308        .C      ORRS     r0,r0,r1
        0x000050ea:    492c        ,I      LDR      r1,[pc,#176] ; [0x519c] = 0x200000f0
        0x000050ec:    8008        ..      STRH     r0,[r1,#0]
        0x000050ee:    f000f842    ..B.    BL       sensor_gpio_set_enable ; 0x5176
        0x000050f2:    4620         F      MOV      r0,r4
        0x000050f4:    f7fcfa8e    ....    BL       gpio_set_high ; 0x1614
        0x000050f8:    bd10        ..      POP      {r4,pc}
    sensor_gpio_set_low
        0x000050fa:    b510        ..      PUSH     {r4,lr}
        0x000050fc:    4604        .F      MOV      r4,r0
        0x000050fe:    4620         F      MOV      r0,r4
        0x00005100:    f7fcfa90    ....    BL       gpio_set_low ; 0x1624
        0x00005104:    2001        .       MOVS     r0,#1
        0x00005106:    40a0        .@      LSLS     r0,r0,r4
        0x00005108:    4923        #I      LDR      r1,[pc,#140] ; [0x5198] = 0x200000ee
        0x0000510a:    8809        ..      LDRH     r1,[r1,#0]
        0x0000510c:    4381        .C      BICS     r1,r1,r0
        0x0000510e:    4822        "H      LDR      r0,[pc,#136] ; [0x5198] = 0x200000ee
        0x00005110:    8001        ..      STRH     r1,[r0,#0]
        0x00005112:    2001        .       MOVS     r0,#1
        0x00005114:    40a0        .@      LSLS     r0,r0,r4
        0x00005116:    4921        !I      LDR      r1,[pc,#132] ; [0x519c] = 0x200000f0
        0x00005118:    8809        ..      LDRH     r1,[r1,#0]
        0x0000511a:    4308        .C      ORRS     r0,r0,r1
        0x0000511c:    491f        .I      LDR      r1,[pc,#124] ; [0x519c] = 0x200000f0
        0x0000511e:    8008        ..      STRH     r0,[r1,#0]
        0x00005120:    f000f829    ..).    BL       sensor_gpio_set_enable ; 0x5176
        0x00005124:    4620         F      MOV      r0,r4
        0x00005126:    f7fcfa7d    ..}.    BL       gpio_set_low ; 0x1624
        0x0000512a:    bd10        ..      POP      {r4,pc}
    sensor_gpio_set_high_z
        0x0000512c:    b510        ..      PUSH     {r4,lr}
        0x0000512e:    4604        .F      MOV      r4,r0
        0x00005130:    2001        .       MOVS     r0,#1
        0x00005132:    40a0        .@      LSLS     r0,r0,r4
        0x00005134:    4918        .I      LDR      r1,[pc,#96] ; [0x5198] = 0x200000ee
        0x00005136:    8809        ..      LDRH     r1,[r1,#0]
        0x00005138:    4308        .C      ORRS     r0,r0,r1
        0x0000513a:    4917        .I      LDR      r1,[pc,#92] ; [0x5198] = 0x200000ee
        0x0000513c:    8008        ..      STRH     r0,[r1,#0]
        0x0000513e:    2001        .       MOVS     r0,#1
        0x00005140:    40a0        .@      LSLS     r0,r0,r4
        0x00005142:    4916        .I      LDR      r1,[pc,#88] ; [0x519c] = 0x200000f0
        0x00005144:    8809        ..      LDRH     r1,[r1,#0]
        0x00005146:    4381        .C      BICS     r1,r1,r0
        0x00005148:    4814        .H      LDR      r0,[pc,#80] ; [0x519c] = 0x200000f0
        0x0000514a:    8001        ..      STRH     r1,[r0,#0]
        0x0000514c:    f000f813    ....    BL       sensor_gpio_set_enable ; 0x5176
        0x00005150:    4620         F      MOV      r0,r4
        0x00005152:    f7fcfa5f    .._.    BL       gpio_set_high ; 0x1614
        0x00005156:    bd10        ..      POP      {r4,pc}
    sensor_gpio_excite
        0x00005158:    b510        ..      PUSH     {r4,lr}
        0x0000515a:    4604        .F      MOV      r4,r0
        0x0000515c:    4620         F      MOV      r0,r4
        0x0000515e:    f7ffffb3    ....    BL       sensor_gpio_set_high ; 0x50c8
        0x00005162:    480c        .H      LDR      r0,[pc,#48] ; [0x5194] = 0x200000ec
        0x00005164:    7801        .x      LDRB     r1,[r0,#0]
        0x00005166:    207d        }       MOVS     r0,#0x7d
        0x00005168:    00c0        ..      LSLS     r0,r0,#3
        0x0000516a:    f7fcfcc3    ....    BL       delay_milliseconds_synchronous ; 0x1af4
        0x0000516e:    4620         F      MOV      r0,r4
        0x00005170:    f7ffffdc    ....    BL       sensor_gpio_set_high_z ; 0x512c
        0x00005174:    bd10        ..      POP      {r4,pc}
    sensor_gpio_set_enable
        0x00005176:    b510        ..      PUSH     {r4,lr}
        0x00005178:    4807        .H      LDR      r0,[pc,#28] ; [0x5198] = 0x200000ee
        0x0000517a:    8800        ..      LDRH     r0,[r0,#0]
        0x0000517c:    f7fcfefa    ....    BL       GPI_enables ; 0x1f74
        0x00005180:    4806        .H      LDR      r0,[pc,#24] ; [0x519c] = 0x200000f0
        0x00005182:    8800        ..      LDRH     r0,[r0,#0]
        0x00005184:    f7fcfed6    ....    BL       GPO_enables ; 0x1f34
        0x00005188:    f7fdfe44    ..D.    BL       analog_scan_chain_write ; 0x2e14
        0x0000518c:    f7fdfe3c    ..<.    BL       analog_scan_chain_load ; 0x2e08
        0x00005190:    bd10        ..      POP      {r4,pc}
    $d
        0x00005192:    0000        ..      DCW    0
        0x00005194:    200000ec    ...     DCD    536871148
        0x00005198:    200000ee    ...     DCD    536871150
        0x0000519c:    200000f0    ...     DCD    536871152
    $t
    .text
    __use_no_semihosting
        0x000051a0:    4770        pG      BX       lr
    .text
    __aeabi_llsl
    _ll_shift_l
        0x000051a2:    b510        ..      PUSH     {r4,lr}
        0x000051a4:    2a20         *      CMP      r2,#0x20
        0x000051a6:    db04        ..      BLT      0x51b2 ; __aeabi_llsl + 16
        0x000051a8:    4601        .F      MOV      r1,r0
        0x000051aa:    3a20         :      SUBS     r2,r2,#0x20
        0x000051ac:    4091        .@      LSLS     r1,r1,r2
        0x000051ae:    2000        .       MOVS     r0,#0
        0x000051b0:    bd10        ..      POP      {r4,pc}
        0x000051b2:    4091        .@      LSLS     r1,r1,r2
        0x000051b4:    2320         #      MOVS     r3,#0x20
        0x000051b6:    1a9c        ..      SUBS     r4,r3,r2
        0x000051b8:    4603        .F      MOV      r3,r0
        0x000051ba:    40e3        .@      LSRS     r3,r3,r4
        0x000051bc:    4319        .C      ORRS     r1,r1,r3
        0x000051be:    4090        .@      LSLS     r0,r0,r2
        0x000051c0:    bd10        ..      POP      {r4,pc}
    .text
    __aeabi_lasr
    _ll_sshift_r
        0x000051c2:    b510        ..      PUSH     {r4,lr}
        0x000051c4:    2a20         *      CMP      r2,#0x20
        0x000051c6:    db06        ..      BLT      0x51d6 ; __aeabi_lasr + 20
        0x000051c8:    4608        .F      MOV      r0,r1
        0x000051ca:    17cb        ..      ASRS     r3,r1,#31
        0x000051cc:    3a20         :      SUBS     r2,r2,#0x20
        0x000051ce:    4110        .A      ASRS     r0,r0,r2
        0x000051d0:    17c1        ..      ASRS     r1,r0,#31
        0x000051d2:    430b        .C      ORRS     r3,r3,r1
        0x000051d4:    e006        ..      B        0x51e4 ; __aeabi_lasr + 34
        0x000051d6:    460b        .F      MOV      r3,r1
        0x000051d8:    2420         $      MOVS     r4,#0x20
        0x000051da:    4113        .A      ASRS     r3,r3,r2
        0x000051dc:    40d0        .@      LSRS     r0,r0,r2
        0x000051de:    1aa2        ..      SUBS     r2,r4,r2
        0x000051e0:    4091        .@      LSLS     r1,r1,r2
        0x000051e2:    4308        .C      ORRS     r0,r0,r1
        0x000051e4:    4619        .F      MOV      r1,r3
        0x000051e6:    bd10        ..      POP      {r4,pc}
    .text
    __aeabi_ldivmod
    _ll_sdiv
        0x000051e8:    b570        p.      PUSH     {r4-r6,lr}
        0x000051ea:    2500        .%      MOVS     r5,#0
        0x000051ec:    462c        ,F      MOV      r4,r5
        0x000051ee:    1aad        ..      SUBS     r5,r5,r2
        0x000051f0:    419c        .A      SBCS     r4,r4,r3
        0x000051f2:    da12        ..      BGE      0x521a ; __aeabi_ldivmod + 50
        0x000051f4:    2500        .%      MOVS     r5,#0
        0x000051f6:    462c        ,F      MOV      r4,r5
        0x000051f8:    1a2d        -.      SUBS     r5,r5,r0
        0x000051fa:    418c        .A      SBCS     r4,r4,r1
        0x000051fc:    da02        ..      BGE      0x5204 ; __aeabi_ldivmod + 28
        0x000051fe:    f000fa81    ....    BL       __aeabi_uldivmod ; 0x5704
        0x00005202:    bd70        p.      POP      {r4-r6,pc}
        0x00005204:    2400        .$      MOVS     r4,#0
        0x00005206:    4240        @B      RSBS     r0,r0,#0
        0x00005208:    418c        .A      SBCS     r4,r4,r1
        0x0000520a:    4621        !F      MOV      r1,r4
        0x0000520c:    f000fa7a    ..z.    BL       __aeabi_uldivmod ; 0x5704
        0x00005210:    2400        .$      MOVS     r4,#0
        0x00005212:    4240        @B      RSBS     r0,r0,#0
        0x00005214:    418c        .A      SBCS     r4,r4,r1
        0x00005216:    4621        !F      MOV      r1,r4
        0x00005218:    e019        ..      B        0x524e ; __aeabi_ldivmod + 102
        0x0000521a:    2500        .%      MOVS     r5,#0
        0x0000521c:    462c        ,F      MOV      r4,r5
        0x0000521e:    1a2d        -.      SUBS     r5,r5,r0
        0x00005220:    418c        .A      SBCS     r4,r4,r1
        0x00005222:    da0a        ..      BGE      0x523a ; __aeabi_ldivmod + 82
        0x00005224:    2400        .$      MOVS     r4,#0
        0x00005226:    4252        RB      RSBS     r2,r2,#0
        0x00005228:    419c        .A      SBCS     r4,r4,r3
        0x0000522a:    4623        #F      MOV      r3,r4
        0x0000522c:    f000fa6a    ..j.    BL       __aeabi_uldivmod ; 0x5704
        0x00005230:    2400        .$      MOVS     r4,#0
        0x00005232:    4240        @B      RSBS     r0,r0,#0
        0x00005234:    418c        .A      SBCS     r4,r4,r1
        0x00005236:    4621        !F      MOV      r1,r4
        0x00005238:    bd70        p.      POP      {r4-r6,pc}
        0x0000523a:    2400        .$      MOVS     r4,#0
        0x0000523c:    4252        RB      RSBS     r2,r2,#0
        0x0000523e:    419c        .A      SBCS     r4,r4,r3
        0x00005240:    4240        @B      RSBS     r0,r0,#0
        0x00005242:    4623        #F      MOV      r3,r4
        0x00005244:    2400        .$      MOVS     r4,#0
        0x00005246:    418c        .A      SBCS     r4,r4,r1
        0x00005248:    4621        !F      MOV      r1,r4
        0x0000524a:    f000fa5b    ..[.    BL       __aeabi_uldivmod ; 0x5704
        0x0000524e:    2400        .$      MOVS     r4,#0
        0x00005250:    4252        RB      RSBS     r2,r2,#0
        0x00005252:    419c        .A      SBCS     r4,r4,r3
        0x00005254:    4623        #F      MOV      r3,r4
        0x00005256:    bd70        p.      POP      {r4-r6,pc}
    .text
    __2printf
        0x00005258:    b40f        ..      PUSH     {r0-r3}
        0x0000525a:    4905        .I      LDR      r1,[pc,#20] ; [0x5270] = 0x20000000
        0x0000525c:    b510        ..      PUSH     {r4,lr}
        0x0000525e:    aa03        ..      ADD      r2,sp,#0xc
        0x00005260:    9802        ..      LDR      r0,[sp,#8]
        0x00005262:    f000fb29    ..).    BL       _printf_char_file ; 0x58b8
        0x00005266:    bc10        ..      POP      {r4}
        0x00005268:    bc08        ..      POP      {r3}
        0x0000526a:    b004        ..      ADD      sp,sp,#0x10
        0x0000526c:    4718        .G      BX       r3
    $d
        0x0000526e:    0000        ..      DCW    0
        0x00005270:    20000000    ...     DCD    536870912
    $t
    .text
    _printf_int_dec
        0x00005274:    b5f7        ..      PUSH     {r0-r2,r4-r7,lr}
        0x00005276:    2500        .%      MOVS     r5,#0
        0x00005278:    2975        u)      CMP      r1,#0x75
        0x0000527a:    6810        .h      LDR      r0,[r2,#0]
        0x0000527c:    9900        ..      LDR      r1,[sp,#0]
        0x0000527e:    a614        ..      ADR      r6,{pc}+0x52 ; 0x52d0
        0x00005280:    d011        ..      BEQ      0x52a6 ; _printf_int_dec + 50
        0x00005282:    46c0        .F      MOV      r8,r8
        0x00005284:    46c0        .F      MOV      r8,r8
        0x00005286:    2800        .(      CMP      r0,#0
        0x00005288:    da02        ..      BGE      0x5290 ; _printf_int_dec + 28
        0x0000528a:    4240        @B      RSBS     r0,r0,#0
        0x0000528c:    a611        ..      ADR      r6,{pc}+0x48 ; 0x52d4
        0x0000528e:    e008        ..      B        0x52a2 ; _printf_int_dec + 46
        0x00005290:    9900        ..      LDR      r1,[sp,#0]
        0x00005292:    6809        .h      LDR      r1,[r1,#0]
        0x00005294:    078a        ..      LSLS     r2,r1,#30
        0x00005296:    d501        ..      BPL      0x529c ; _printf_int_dec + 40
        0x00005298:    a60f        ..      ADR      r6,{pc}+0x40 ; 0x52d8
        0x0000529a:    e002        ..      B        0x52a2 ; _printf_int_dec + 46
        0x0000529c:    0749        I.      LSLS     r1,r1,#29
        0x0000529e:    d504        ..      BPL      0x52aa ; _printf_int_dec + 54
        0x000052a0:    a60e        ..      ADR      r6,{pc}+0x3c ; 0x52dc
        0x000052a2:    2501        .%      MOVS     r5,#1
        0x000052a4:    e001        ..      B        0x52aa ; _printf_int_dec + 54
        0x000052a6:    46c0        .F      MOV      r8,r8
        0x000052a8:    46c0        .F      MOV      r8,r8
        0x000052aa:    9f00        ..      LDR      r7,[sp,#0]
        0x000052ac:    2400        .$      MOVS     r4,#0
        0x000052ae:    3724        $7      ADDS     r7,r7,#0x24
        0x000052b0:    e004        ..      B        0x52bc ; _printf_int_dec + 72
        0x000052b2:    f000fb15    ....    BL       __rt_udiv10 ; 0x58e0
        0x000052b6:    3130        01      ADDS     r1,r1,#0x30
        0x000052b8:    5539        9U      STRB     r1,[r7,r4]
        0x000052ba:    1c64        d.      ADDS     r4,r4,#1
        0x000052bc:    2800        .(      CMP      r0,#0
        0x000052be:    d1f8        ..      BNE      0x52b2 ; _printf_int_dec + 62
        0x000052c0:    462b        +F      MOV      r3,r5
        0x000052c2:    4632        2F      MOV      r2,r6
        0x000052c4:    4621        !F      MOV      r1,r4
        0x000052c6:    9800        ..      LDR      r0,[sp,#0]
        0x000052c8:    f000fa9d    ....    BL       _printf_int_common ; 0x5806
        0x000052cc:    bdfe        ..      POP      {r1-r7,pc}
    $d
        0x000052ce:    0000        ..      DCW    0
        0x000052d0:    00000000    ....    DCD    0
        0x000052d4:    0000002d    -...    DCD    45
        0x000052d8:    0000002b    +...    DCD    43
        0x000052dc:    00000020     ...    DCD    32
    $t
    .text
    _printf_longlong_dec
        0x000052e0:    b5f7        ..      PUSH     {r0-r2,r4-r7,lr}
        0x000052e2:    1dd2        ..      ADDS     r2,r2,#7
        0x000052e4:    2500        .%      MOVS     r5,#0
        0x000052e6:    08d2        ..      LSRS     r2,r2,#3
        0x000052e8:    a615        ..      ADR      r6,{pc}+0x58 ; 0x5340
        0x000052ea:    00d2        ..      LSLS     r2,r2,#3
        0x000052ec:    29f5        .)      CMP      r1,#0xf5
        0x000052ee:    ca05        ..      LDM      r2,{r0,r2}
        0x000052f0:    d011        ..      BEQ      0x5316 ; _printf_longlong_dec + 54
        0x000052f2:    2a00        .*      CMP      r2,#0
        0x000052f4:    da05        ..      BGE      0x5302 ; _printf_longlong_dec + 34
        0x000052f6:    2100        .!      MOVS     r1,#0
        0x000052f8:    4240        @B      RSBS     r0,r0,#0
        0x000052fa:    4191        .A      SBCS     r1,r1,r2
        0x000052fc:    a611        ..      ADR      r6,{pc}+0x48 ; 0x5344
        0x000052fe:    460a        .F      MOV      r2,r1
        0x00005300:    e008        ..      B        0x5314 ; _printf_longlong_dec + 52
        0x00005302:    9900        ..      LDR      r1,[sp,#0]
        0x00005304:    6809        .h      LDR      r1,[r1,#0]
        0x00005306:    078b        ..      LSLS     r3,r1,#30
        0x00005308:    d501        ..      BPL      0x530e ; _printf_longlong_dec + 46
        0x0000530a:    a60f        ..      ADR      r6,{pc}+0x3e ; 0x5348
        0x0000530c:    e002        ..      B        0x5314 ; _printf_longlong_dec + 52
        0x0000530e:    0749        I.      LSLS     r1,r1,#29
        0x00005310:    d501        ..      BPL      0x5316 ; _printf_longlong_dec + 54
        0x00005312:    a60e        ..      ADR      r6,{pc}+0x3a ; 0x534c
        0x00005314:    2501        .%      MOVS     r5,#1
        0x00005316:    4611        .F      MOV      r1,r2
        0x00005318:    9f00        ..      LDR      r7,[sp,#0]
        0x0000531a:    2400        .$      MOVS     r4,#0
        0x0000531c:    3724        $7      ADDS     r7,r7,#0x24
        0x0000531e:    e004        ..      B        0x532a ; _printf_longlong_dec + 74
        0x00005320:    f000f9b3    ....    BL       _ll_udiv10 ; 0x568a
        0x00005324:    3230        02      ADDS     r2,r2,#0x30
        0x00005326:    553a        :U      STRB     r2,[r7,r4]
        0x00005328:    1c64        d.      ADDS     r4,r4,#1
        0x0000532a:    4602        .F      MOV      r2,r0
        0x0000532c:    430a        .C      ORRS     r2,r2,r1
        0x0000532e:    d1f7        ..      BNE      0x5320 ; _printf_longlong_dec + 64
        0x00005330:    462b        +F      MOV      r3,r5
        0x00005332:    4632        2F      MOV      r2,r6
        0x00005334:    4621        !F      MOV      r1,r4
        0x00005336:    9800        ..      LDR      r0,[sp,#0]
        0x00005338:    f000fa65    ..e.    BL       _printf_int_common ; 0x5806
        0x0000533c:    bdfe        ..      POP      {r1-r7,pc}
    $d
        0x0000533e:    0000        ..      DCW    0
        0x00005340:    00000000    ....    DCD    0
        0x00005344:    0000002d    -...    DCD    45
        0x00005348:    0000002b    +...    DCD    43
        0x0000534c:    00000020     ...    DCD    32
    $t
    .text
    _printf_int_hex
    _printf_longlong_hex
        0x00005350:    b570        p.      PUSH     {r4-r6,lr}
        0x00005352:    4604        .F      MOV      r4,r0
        0x00005354:    460d        .F      MOV      r5,r1
        0x00005356:    4621        !F      MOV      r1,r4
        0x00005358:    6810        .h      LDR      r0,[r2,#0]
        0x0000535a:    46c0        .F      MOV      r8,r8
        0x0000535c:    46c0        .F      MOV      r8,r8
        0x0000535e:    8821        !.      LDRH     r1,[r4,#0]
        0x00005360:    0509        ..      LSLS     r1,r1,#20
        0x00005362:    d502        ..      BPL      0x536a ; _printf_int_hex + 26
        0x00005364:    4a0f        .J      LDR      r2,[pc,#60] ; [0x53a4] = 0x706
        0x00005366:    447a        zD      ADD      r2,r2,pc
        0x00005368:    e002        ..      B        0x5370 ; _printf_int_hex + 32
        0x0000536a:    4a0e        .J      LDR      r2,[pc,#56] ; [0x53a4] = 0x706
        0x0000536c:    447a        zD      ADD      r2,r2,pc
        0x0000536e:    320e        .2      ADDS     r2,r2,#0xe
        0x00005370:    4623        #F      MOV      r3,r4
        0x00005372:    2100        .!      MOVS     r1,#0
        0x00005374:    3324        $3      ADDS     r3,r3,#0x24
        0x00005376:    e005        ..      B        0x5384 ; _printf_int_hex + 52
        0x00005378:    0706        ..      LSLS     r6,r0,#28
        0x0000537a:    0900        ..      LSRS     r0,r0,#4
        0x0000537c:    0f36        6.      LSRS     r6,r6,#28
        0x0000537e:    5d96        .]      LDRB     r6,[r2,r6]
        0x00005380:    545e        ^T      STRB     r6,[r3,r1]
        0x00005382:    1c49        I.      ADDS     r1,r1,#1
        0x00005384:    2800        .(      CMP      r0,#0
        0x00005386:    d1f7        ..      BNE      0x5378 ; _printf_int_hex + 40
        0x00005388:    7820         x      LDRB     r0,[r4,#0]
        0x0000538a:    2300        .#      MOVS     r3,#0
        0x0000538c:    0700        ..      LSLS     r0,r0,#28
        0x0000538e:    d505        ..      BPL      0x539c ; _printf_int_hex + 76
        0x00005390:    2d70        p-      CMP      r5,#0x70
        0x00005392:    d003        ..      BEQ      0x539c ; _printf_int_hex + 76
        0x00005394:    2900        .)      CMP      r1,#0
        0x00005396:    d001        ..      BEQ      0x539c ; _printf_int_hex + 76
        0x00005398:    2302        .#      MOVS     r3,#2
        0x0000539a:    3211        .2      ADDS     r2,r2,#0x11
        0x0000539c:    4620         F      MOV      r0,r4
        0x0000539e:    f000fa32    ..2.    BL       _printf_int_common ; 0x5806
        0x000053a2:    bd70        p.      POP      {r4-r6,pc}
    $d
        0x000053a4:    00000706    ....    DCD    1798
    $t
    .text
    __printf
        0x000053a8:    b5f8        ..      PUSH     {r3-r7,lr}
        0x000053aa:    460f        .F      MOV      r7,r1
        0x000053ac:    4605        .F      MOV      r5,r0
        0x000053ae:    2000        .       MOVS     r0,#0
        0x000053b0:    6228        (b      STR      r0,[r5,#0x20]
        0x000053b2:    4628        (F      MOV      r0,r5
        0x000053b4:    68e9        .h      LDR      r1,[r5,#0xc]
        0x000053b6:    4788        .G      BLX      r1
        0x000053b8:    2800        .(      CMP      r0,#0
        0x000053ba:    d052        R.      BEQ      0x5462 ; __printf + 186
        0x000053bc:    2825        %(      CMP      r0,#0x25
        0x000053be:    d002        ..      BEQ      0x53c6 ; __printf + 30
        0x000053c0:    686a        jh      LDR      r2,[r5,#4]
        0x000053c2:    68a9        .h      LDR      r1,[r5,#8]
        0x000053c4:    e049        I.      B        0x545a ; __printf + 178
        0x000053c6:    68e9        .h      LDR      r1,[r5,#0xc]
        0x000053c8:    4628        (F      MOV      r0,r5
        0x000053ca:    2600        .&      MOVS     r6,#0
        0x000053cc:    4788        .G      BLX      r1
        0x000053ce:    286c        l(      CMP      r0,#0x6c
        0x000053d0:    4604        .F      MOV      r4,r0
        0x000053d2:    d00a        ..      BEQ      0x53ea ; __printf + 66
        0x000053d4:    2c68        h,      CMP      r4,#0x68
        0x000053d6:    d008        ..      BEQ      0x53ea ; __printf + 66
        0x000053d8:    2c4c        L,      CMP      r4,#0x4c
        0x000053da:    d037        7.      BEQ      0x544c ; __printf + 164
        0x000053dc:    2c6a        j,      CMP      r4,#0x6a
        0x000053de:    d033        3.      BEQ      0x5448 ; __printf + 160
        0x000053e0:    2c74        t,      CMP      r4,#0x74
        0x000053e2:    d033        3.      BEQ      0x544c ; __printf + 164
        0x000053e4:    2c7a        z,      CMP      r4,#0x7a
        0x000053e6:    d031        1.      BEQ      0x544c ; __printf + 164
        0x000053e8:    e015        ..      B        0x5416 ; __printf + 110
        0x000053ea:    68e9        .h      LDR      r1,[r5,#0xc]
        0x000053ec:    4606        .F      MOV      r6,r0
        0x000053ee:    4628        (F      MOV      r0,r5
        0x000053f0:    4788        .G      BLX      r1
        0x000053f2:    42b0        .B      CMP      r0,r6
        0x000053f4:    4604        .F      MOV      r4,r0
        0x000053f6:    d108        ..      BNE      0x540a ; __printf + 98
        0x000053f8:    2e6c        l.      CMP      r6,#0x6c
        0x000053fa:    d025        %.      BEQ      0x5448 ; __printf + 160
        0x000053fc:    2601        .&      MOVS     r6,#1
        0x000053fe:    02b6        ..      LSLS     r6,r6,#10
        0x00005400:    4628        (F      MOV      r0,r5
        0x00005402:    68e9        .h      LDR      r1,[r5,#0xc]
        0x00005404:    4788        .G      BLX      r1
        0x00005406:    4604        .F      MOV      r4,r0
        0x00005408:    e005        ..      B        0x5416 ; __printf + 110
        0x0000540a:    2e6c        l.      CMP      r6,#0x6c
        0x0000540c:    d002        ..      BEQ      0x5414 ; __printf + 108
        0x0000540e:    26ff        .&      MOVS     r6,#0xff
        0x00005410:    3601        .6      ADDS     r6,#1
        0x00005412:    e000        ..      B        0x5416 ; __printf + 110
        0x00005414:    2640        @&      MOVS     r6,#0x40
        0x00005416:    2c00        .,      CMP      r4,#0
        0x00005418:    d023        #.      BEQ      0x5462 ; __printf + 186
        0x0000541a:    4620         F      MOV      r0,r4
        0x0000541c:    3841        A8      SUBS     r0,r0,#0x41
        0x0000541e:    2819        .(      CMP      r0,#0x19
        0x00005420:    d803        ..      BHI      0x542a ; __printf + 130
        0x00005422:    2001        .       MOVS     r0,#1
        0x00005424:    02c0        ..      LSLS     r0,r0,#11
        0x00005426:    4306        .C      ORRS     r6,r6,r0
        0x00005428:    3420         4      ADDS     r4,r4,#0x20
        0x0000542a:    463a        :F      MOV      r2,r7
        0x0000542c:    4628        (F      MOV      r0,r5
        0x0000542e:    602e        .`      STR      r6,[r5,#0]
        0x00005430:    4621        !F      MOV      r1,r4
        0x00005432:    f7fafe63    ..c.    BL       _printf_percent ; 0xfc
        0x00005436:    2800        .(      CMP      r0,#0
        0x00005438:    d00c        ..      BEQ      0x5454 ; __printf + 172
        0x0000543a:    2801        .(      CMP      r0,#1
        0x0000543c:    d008        ..      BEQ      0x5450 ; __printf + 168
        0x0000543e:    1dff        ..      ADDS     r7,r7,#7
        0x00005440:    08ff        ..      LSRS     r7,r7,#3
        0x00005442:    00ff        ..      LSLS     r7,r7,#3
        0x00005444:    3708        .7      ADDS     r7,r7,#8
        0x00005446:    e7b4        ..      B        0x53b2 ; __printf + 10
        0x00005448:    2680        .&      MOVS     r6,#0x80
        0x0000544a:    e7d9        ..      B        0x5400 ; __printf + 88
        0x0000544c:    2600        .&      MOVS     r6,#0
        0x0000544e:    e7d7        ..      B        0x5400 ; __printf + 88
        0x00005450:    1d3f        ?.      ADDS     r7,r7,#4
        0x00005452:    e7ae        ..      B        0x53b2 ; __printf + 10
        0x00005454:    686a        jh      LDR      r2,[r5,#4]
        0x00005456:    4620         F      MOV      r0,r4
        0x00005458:    68a9        .h      LDR      r1,[r5,#8]
        0x0000545a:    4790        .G      BLX      r2
        0x0000545c:    6a28        (j      LDR      r0,[r5,#0x20]
        0x0000545e:    1c40        @.      ADDS     r0,r0,#1
        0x00005460:    e7a6        ..      B        0x53b0 ; __printf + 8
        0x00005462:    6a28        (j      LDR      r0,[r5,#0x20]
        0x00005464:    bdf8        ..      POP      {r3-r7,pc}
    .text
    __aeabi_memcpy
    __rt_memcpy
        0x00005466:    b5f8        ..      PUSH     {r3-r7,lr}
        0x00005468:    2a04        .*      CMP      r2,#4
        0x0000546a:    d32c        ,.      BCC      0x54c6 ; __aeabi_memcpy + 96
        0x0000546c:    0783        ..      LSLS     r3,r0,#30
        0x0000546e:    d012        ..      BEQ      0x5496 ; __aeabi_memcpy + 48
        0x00005470:    780b        .x      LDRB     r3,[r1,#0]
        0x00005472:    1c49        I.      ADDS     r1,r1,#1
        0x00005474:    7003        .p      STRB     r3,[r0,#0]
        0x00005476:    1c40        @.      ADDS     r0,r0,#1
        0x00005478:    1e52        R.      SUBS     r2,r2,#1
        0x0000547a:    0783        ..      LSLS     r3,r0,#30
        0x0000547c:    d00b        ..      BEQ      0x5496 ; __aeabi_memcpy + 48
        0x0000547e:    780b        .x      LDRB     r3,[r1,#0]
        0x00005480:    1c49        I.      ADDS     r1,r1,#1
        0x00005482:    7003        .p      STRB     r3,[r0,#0]
        0x00005484:    1c40        @.      ADDS     r0,r0,#1
        0x00005486:    1e52        R.      SUBS     r2,r2,#1
        0x00005488:    0783        ..      LSLS     r3,r0,#30
        0x0000548a:    d004        ..      BEQ      0x5496 ; __aeabi_memcpy + 48
        0x0000548c:    780b        .x      LDRB     r3,[r1,#0]
        0x0000548e:    1c49        I.      ADDS     r1,r1,#1
        0x00005490:    7003        .p      STRB     r3,[r0,#0]
        0x00005492:    1c40        @.      ADDS     r0,r0,#1
        0x00005494:    1e52        R.      SUBS     r2,r2,#1
        0x00005496:    078b        ..      LSLS     r3,r1,#30
        0x00005498:    0f9b        ..      LSRS     r3,r3,#30
        0x0000549a:    d005        ..      BEQ      0x54a8 ; __aeabi_memcpy + 66
        0x0000549c:    1ac9        ..      SUBS     r1,r1,r3
        0x0000549e:    00df        ..      LSLS     r7,r3,#3
        0x000054a0:    2320         #      MOVS     r3,#0x20
        0x000054a2:    1bde        ..      SUBS     r6,r3,r7
        0x000054a4:    c908        ..      LDM      r1!,{r3}
        0x000054a6:    e00a        ..      B        0x54be ; __aeabi_memcpy + 88
        0x000054a8:    f7fafe58    ..X.    BL       __aeabi_memcpy4 ; 0x15c
        0x000054ac:    bdf8        ..      POP      {r3-r7,pc}
        0x000054ae:    461d        .F      MOV      r5,r3
        0x000054b0:    c908        ..      LDM      r1!,{r3}
        0x000054b2:    40fd        .@      LSRS     r5,r5,r7
        0x000054b4:    461c        .F      MOV      r4,r3
        0x000054b6:    40b4        .@      LSLS     r4,r4,r6
        0x000054b8:    432c        ,C      ORRS     r4,r4,r5
        0x000054ba:    c010        ..      STM      r0!,{r4}
        0x000054bc:    1f12        ..      SUBS     r2,r2,#4
        0x000054be:    2a04        .*      CMP      r2,#4
        0x000054c0:    d2f5        ..      BCS      0x54ae ; __aeabi_memcpy + 72
        0x000054c2:    08f3        ..      LSRS     r3,r6,#3
        0x000054c4:    1ac9        ..      SUBS     r1,r1,r3
        0x000054c6:    1e52        R.      SUBS     r2,r2,#1
        0x000054c8:    d4f0        ..      BMI      0x54ac ; __aeabi_memcpy + 70
        0x000054ca:    780b        .x      LDRB     r3,[r1,#0]
        0x000054cc:    1c49        I.      ADDS     r1,r1,#1
        0x000054ce:    7003        .p      STRB     r3,[r0,#0]
        0x000054d0:    1c40        @.      ADDS     r0,r0,#1
        0x000054d2:    1e52        R.      SUBS     r2,r2,#1
        0x000054d4:    d4ea        ..      BMI      0x54ac ; __aeabi_memcpy + 70
        0x000054d6:    780b        .x      LDRB     r3,[r1,#0]
        0x000054d8:    1c49        I.      ADDS     r1,r1,#1
        0x000054da:    7003        .p      STRB     r3,[r0,#0]
        0x000054dc:    1c40        @.      ADDS     r0,r0,#1
        0x000054de:    2a01        .*      CMP      r2,#1
        0x000054e0:    d4e4        ..      BMI      0x54ac ; __aeabi_memcpy + 70
        0x000054e2:    7809        .x      LDRB     r1,[r1,#0]
        0x000054e4:    7001        .p      STRB     r1,[r0,#0]
        0x000054e6:    bdf8        ..      POP      {r3-r7,pc}
    .text
    _memset_w
        0x000054e8:    e001        ..      B        0x54ee ; _memset_w + 6
        0x000054ea:    c004        ..      STM      r0!,{r2}
        0x000054ec:    1f09        ..      SUBS     r1,r1,#4
        0x000054ee:    2904        .)      CMP      r1,#4
        0x000054f0:    d2fb        ..      BCS      0x54ea ; _memset_w + 2
        0x000054f2:    078b        ..      LSLS     r3,r1,#30
        0x000054f4:    d501        ..      BPL      0x54fa ; _memset_w + 18
        0x000054f6:    8002        ..      STRH     r2,[r0,#0]
        0x000054f8:    1c80        ..      ADDS     r0,r0,#2
        0x000054fa:    07c9        ..      LSLS     r1,r1,#31
        0x000054fc:    d000        ..      BEQ      0x5500 ; _memset_w + 24
        0x000054fe:    7002        .p      STRB     r2,[r0,#0]
        0x00005500:    4770        pG      BX       lr
    _memset
        0x00005502:    2900        .)      CMP      r1,#0
        0x00005504:    d00b        ..      BEQ      0x551e ; _memset + 28
        0x00005506:    07c3        ..      LSLS     r3,r0,#31
        0x00005508:    d002        ..      BEQ      0x5510 ; _memset + 14
        0x0000550a:    7002        .p      STRB     r2,[r0,#0]
        0x0000550c:    1c40        @.      ADDS     r0,r0,#1
        0x0000550e:    1e49        I.      SUBS     r1,r1,#1
        0x00005510:    2902        .)      CMP      r1,#2
        0x00005512:    d304        ..      BCC      0x551e ; _memset + 28
        0x00005514:    0783        ..      LSLS     r3,r0,#30
        0x00005516:    d502        ..      BPL      0x551e ; _memset + 28
        0x00005518:    8002        ..      STRH     r2,[r0,#0]
        0x0000551a:    1c80        ..      ADDS     r0,r0,#2
        0x0000551c:    1e89        ..      SUBS     r1,r1,#2
        0x0000551e:    e7e3        ..      B        _memset_w ; 0x54e8
    __aeabi_memclr
    __rt_memclr
        0x00005520:    2200        ."      MOVS     r2,#0
        0x00005522:    e7ee        ..      B        _memset ; 0x5502
    __aeabi_memclr4
    __aeabi_memclr8
    __rt_memclr_w
        0x00005524:    2200        ."      MOVS     r2,#0
        0x00005526:    e7df        ..      B        _memset_w ; 0x54e8
    .text
    __aeabi_uidiv
    __aeabi_uidivmod
        0x00005528:    2200        ."      MOVS     r2,#0
        0x0000552a:    0903        ..      LSRS     r3,r0,#4
        0x0000552c:    428b        .B      CMP      r3,r1
        0x0000552e:    d32c        ,.      BCC      0x558a ; __aeabi_idiv + 78
        0x00005530:    0a03        ..      LSRS     r3,r0,#8
        0x00005532:    428b        .B      CMP      r3,r1
        0x00005534:    d311        ..      BCC      0x555a ; __aeabi_idiv + 30
        0x00005536:    2300        .#      MOVS     r3,#0
        0x00005538:    469c        .F      MOV      r12,r3
        0x0000553a:    e04e        N.      B        0x55da ; __aeabi_idiv + 158
    __aeabi_idiv
    __aeabi_idivmod
        0x0000553c:    4603        .F      MOV      r3,r0
        0x0000553e:    430b        .C      ORRS     r3,r3,r1
        0x00005540:    d43c        <.      BMI      0x55bc ; __aeabi_idiv + 128
        0x00005542:    2200        ."      MOVS     r2,#0
        0x00005544:    0843        C.      LSRS     r3,r0,#1
        0x00005546:    428b        .B      CMP      r3,r1
        0x00005548:    d331        1.      BCC      0x55ae ; __aeabi_idiv + 114
        0x0000554a:    0903        ..      LSRS     r3,r0,#4
        0x0000554c:    428b        .B      CMP      r3,r1
        0x0000554e:    d31c        ..      BCC      0x558a ; __aeabi_idiv + 78
        0x00005550:    0a03        ..      LSRS     r3,r0,#8
        0x00005552:    428b        .B      CMP      r3,r1
        0x00005554:    d301        ..      BCC      0x555a ; __aeabi_idiv + 30
        0x00005556:    4694        .F      MOV      r12,r2
        0x00005558:    e03f        ?.      B        0x55da ; __aeabi_idiv + 158
        0x0000555a:    09c3        ..      LSRS     r3,r0,#7
        0x0000555c:    428b        .B      CMP      r3,r1
        0x0000555e:    d301        ..      BCC      0x5564 ; __aeabi_idiv + 40
        0x00005560:    01cb        ..      LSLS     r3,r1,#7
        0x00005562:    1ac0        ..      SUBS     r0,r0,r3
        0x00005564:    4152        RA      ADCS     r2,r2,r2
        0x00005566:    0983        ..      LSRS     r3,r0,#6
        0x00005568:    428b        .B      CMP      r3,r1
        0x0000556a:    d301        ..      BCC      0x5570 ; __aeabi_idiv + 52
        0x0000556c:    018b        ..      LSLS     r3,r1,#6
        0x0000556e:    1ac0        ..      SUBS     r0,r0,r3
        0x00005570:    4152        RA      ADCS     r2,r2,r2
        0x00005572:    0943        C.      LSRS     r3,r0,#5
        0x00005574:    428b        .B      CMP      r3,r1
        0x00005576:    d301        ..      BCC      0x557c ; __aeabi_idiv + 64
        0x00005578:    014b        K.      LSLS     r3,r1,#5
        0x0000557a:    1ac0        ..      SUBS     r0,r0,r3
        0x0000557c:    4152        RA      ADCS     r2,r2,r2
        0x0000557e:    0903        ..      LSRS     r3,r0,#4
        0x00005580:    428b        .B      CMP      r3,r1
        0x00005582:    d301        ..      BCC      0x5588 ; __aeabi_idiv + 76
        0x00005584:    010b        ..      LSLS     r3,r1,#4
        0x00005586:    1ac0        ..      SUBS     r0,r0,r3
        0x00005588:    4152        RA      ADCS     r2,r2,r2
        0x0000558a:    08c3        ..      LSRS     r3,r0,#3
        0x0000558c:    428b        .B      CMP      r3,r1
        0x0000558e:    d301        ..      BCC      0x5594 ; __aeabi_idiv + 88
        0x00005590:    00cb        ..      LSLS     r3,r1,#3
        0x00005592:    1ac0        ..      SUBS     r0,r0,r3
        0x00005594:    4152        RA      ADCS     r2,r2,r2
        0x00005596:    0883        ..      LSRS     r3,r0,#2
        0x00005598:    428b        .B      CMP      r3,r1
        0x0000559a:    d301        ..      BCC      0x55a0 ; __aeabi_idiv + 100
        0x0000559c:    008b        ..      LSLS     r3,r1,#2
        0x0000559e:    1ac0        ..      SUBS     r0,r0,r3
        0x000055a0:    4152        RA      ADCS     r2,r2,r2
        0x000055a2:    0843        C.      LSRS     r3,r0,#1
        0x000055a4:    428b        .B      CMP      r3,r1
        0x000055a6:    d301        ..      BCC      0x55ac ; __aeabi_idiv + 112
        0x000055a8:    004b        K.      LSLS     r3,r1,#1
        0x000055aa:    1ac0        ..      SUBS     r0,r0,r3
        0x000055ac:    4152        RA      ADCS     r2,r2,r2
        0x000055ae:    1a41        A.      SUBS     r1,r0,r1
        0x000055b0:    d200        ..      BCS      0x55b4 ; __aeabi_idiv + 120
        0x000055b2:    4601        .F      MOV      r1,r0
        0x000055b4:    4152        RA      ADCS     r2,r2,r2
        0x000055b6:    4610        .F      MOV      r0,r2
        0x000055b8:    4770        pG      BX       lr
        0x000055ba:    e05d        ].      B        0x5678 ; __aeabi_idiv + 316
        0x000055bc:    0fca        ..      LSRS     r2,r1,#31
        0x000055be:    d000        ..      BEQ      0x55c2 ; __aeabi_idiv + 134
        0x000055c0:    4249        IB      RSBS     r1,r1,#0
        0x000055c2:    1003        ..      ASRS     r3,r0,#32
        0x000055c4:    d300        ..      BCC      0x55c8 ; __aeabi_idiv + 140
        0x000055c6:    4240        @B      RSBS     r0,r0,#0
        0x000055c8:    4053        S@      EORS     r3,r3,r2
        0x000055ca:    2200        ."      MOVS     r2,#0
        0x000055cc:    469c        .F      MOV      r12,r3
        0x000055ce:    0903        ..      LSRS     r3,r0,#4
        0x000055d0:    428b        .B      CMP      r3,r1
        0x000055d2:    d32d        -.      BCC      0x5630 ; __aeabi_idiv + 244
        0x000055d4:    0a03        ..      LSRS     r3,r0,#8
        0x000055d6:    428b        .B      CMP      r3,r1
        0x000055d8:    d312        ..      BCC      0x5600 ; __aeabi_idiv + 196
        0x000055da:    22fc        ."      MOVS     r2,#0xfc
        0x000055dc:    0189        ..      LSLS     r1,r1,#6
        0x000055de:    ba12        ..      REV      r2,r2
        0x000055e0:    0a03        ..      LSRS     r3,r0,#8
        0x000055e2:    428b        .B      CMP      r3,r1
        0x000055e4:    d30c        ..      BCC      0x5600 ; __aeabi_idiv + 196
        0x000055e6:    0189        ..      LSLS     r1,r1,#6
        0x000055e8:    1192        ..      ASRS     r2,r2,#6
        0x000055ea:    428b        .B      CMP      r3,r1
        0x000055ec:    d308        ..      BCC      0x5600 ; __aeabi_idiv + 196
        0x000055ee:    0189        ..      LSLS     r1,r1,#6
        0x000055f0:    1192        ..      ASRS     r2,r2,#6
        0x000055f2:    428b        .B      CMP      r3,r1
        0x000055f4:    d304        ..      BCC      0x5600 ; __aeabi_idiv + 196
        0x000055f6:    0189        ..      LSLS     r1,r1,#6
        0x000055f8:    d03a        :.      BEQ      0x5670 ; __aeabi_idiv + 308
        0x000055fa:    1192        ..      ASRS     r2,r2,#6
        0x000055fc:    e000        ..      B        0x5600 ; __aeabi_idiv + 196
        0x000055fe:    0989        ..      LSRS     r1,r1,#6
        0x00005600:    09c3        ..      LSRS     r3,r0,#7
        0x00005602:    428b        .B      CMP      r3,r1
        0x00005604:    d301        ..      BCC      0x560a ; __aeabi_idiv + 206
        0x00005606:    01cb        ..      LSLS     r3,r1,#7
        0x00005608:    1ac0        ..      SUBS     r0,r0,r3
        0x0000560a:    4152        RA      ADCS     r2,r2,r2
        0x0000560c:    0983        ..      LSRS     r3,r0,#6
        0x0000560e:    428b        .B      CMP      r3,r1
        0x00005610:    d301        ..      BCC      0x5616 ; __aeabi_idiv + 218
        0x00005612:    018b        ..      LSLS     r3,r1,#6
        0x00005614:    1ac0        ..      SUBS     r0,r0,r3
        0x00005616:    4152        RA      ADCS     r2,r2,r2
        0x00005618:    0943        C.      LSRS     r3,r0,#5
        0x0000561a:    428b        .B      CMP      r3,r1
        0x0000561c:    d301        ..      BCC      0x5622 ; __aeabi_idiv + 230
        0x0000561e:    014b        K.      LSLS     r3,r1,#5
        0x00005620:    1ac0        ..      SUBS     r0,r0,r3
        0x00005622:    4152        RA      ADCS     r2,r2,r2
        0x00005624:    0903        ..      LSRS     r3,r0,#4
        0x00005626:    428b        .B      CMP      r3,r1
        0x00005628:    d301        ..      BCC      0x562e ; __aeabi_idiv + 242
        0x0000562a:    010b        ..      LSLS     r3,r1,#4
        0x0000562c:    1ac0        ..      SUBS     r0,r0,r3
        0x0000562e:    4152        RA      ADCS     r2,r2,r2
        0x00005630:    08c3        ..      LSRS     r3,r0,#3
        0x00005632:    428b        .B      CMP      r3,r1
        0x00005634:    d301        ..      BCC      0x563a ; __aeabi_idiv + 254
        0x00005636:    00cb        ..      LSLS     r3,r1,#3
        0x00005638:    1ac0        ..      SUBS     r0,r0,r3
        0x0000563a:    4152        RA      ADCS     r2,r2,r2
        0x0000563c:    0883        ..      LSRS     r3,r0,#2
        0x0000563e:    428b        .B      CMP      r3,r1
        0x00005640:    d301        ..      BCC      0x5646 ; __aeabi_idiv + 266
        0x00005642:    008b        ..      LSLS     r3,r1,#2
        0x00005644:    1ac0        ..      SUBS     r0,r0,r3
        0x00005646:    4152        RA      ADCS     r2,r2,r2
        0x00005648:    d2d9        ..      BCS      0x55fe ; __aeabi_idiv + 194
        0x0000564a:    0843        C.      LSRS     r3,r0,#1
        0x0000564c:    428b        .B      CMP      r3,r1
        0x0000564e:    d301        ..      BCC      0x5654 ; __aeabi_idiv + 280
        0x00005650:    004b        K.      LSLS     r3,r1,#1
        0x00005652:    1ac0        ..      SUBS     r0,r0,r3
        0x00005654:    4152        RA      ADCS     r2,r2,r2
        0x00005656:    1a41        A.      SUBS     r1,r0,r1
        0x00005658:    d200        ..      BCS      0x565c ; __aeabi_idiv + 288
        0x0000565a:    4601        .F      MOV      r1,r0
        0x0000565c:    4663        cF      MOV      r3,r12
        0x0000565e:    4152        RA      ADCS     r2,r2,r2
        0x00005660:    105b        [.      ASRS     r3,r3,#1
        0x00005662:    4610        .F      MOV      r0,r2
        0x00005664:    d301        ..      BCC      0x566a ; __aeabi_idiv + 302
        0x00005666:    4240        @B      RSBS     r0,r0,#0
        0x00005668:    2b00        .+      CMP      r3,#0
        0x0000566a:    d500        ..      BPL      0x566e ; __aeabi_idiv + 306
        0x0000566c:    4249        IB      RSBS     r1,r1,#0
        0x0000566e:    4770        pG      BX       lr
        0x00005670:    4663        cF      MOV      r3,r12
        0x00005672:    105b        [.      ASRS     r3,r3,#1
        0x00005674:    d300        ..      BCC      0x5678 ; __aeabi_idiv + 316
        0x00005676:    4240        @B      RSBS     r0,r0,#0
        0x00005678:    b501        ..      PUSH     {r0,lr}
        0x0000567a:    2000        .       MOVS     r0,#0
        0x0000567c:    46c0        .F      MOV      r8,r8
        0x0000567e:    46c0        .F      MOV      r8,r8
        0x00005680:    bd02        ..      POP      {r1,pc}
    .text
    __use_two_region_memory
        0x00005682:    4770        pG      BX       lr
    __rt_heap_escrow$2region
        0x00005684:    4770        pG      BX       lr
    __rt_heap_expand$2region
        0x00005686:    4770        pG      BX       lr
    .text
    __I$use$semihosting
    __use_no_semihosting_swi
        0x00005688:    4770        pG      BX       lr
    .text
    _ll_udiv10
        0x0000568a:    460b        .F      MOV      r3,r1
        0x0000568c:    b570        p.      PUSH     {r4-r6,lr}
        0x0000568e:    4602        .F      MOV      r2,r0
        0x00005690:    0789        ..      LSLS     r1,r1,#30
        0x00005692:    0880        ..      LSRS     r0,r0,#2
        0x00005694:    4308        .C      ORRS     r0,r0,r1
        0x00005696:    4619        .F      MOV      r1,r3
        0x00005698:    089d        ..      LSRS     r5,r3,#2
        0x0000569a:    1a14        ..      SUBS     r4,r2,r0
        0x0000569c:    41a9        .A      SBCS     r1,r1,r5
        0x0000569e:    0925        %.      LSRS     r5,r4,#4
        0x000056a0:    0708        ..      LSLS     r0,r1,#28
        0x000056a2:    4305        .C      ORRS     r5,r5,r0
        0x000056a4:    0908        ..      LSRS     r0,r1,#4
        0x000056a6:    192c        ,.      ADDS     r4,r5,r4
        0x000056a8:    4148        HA      ADCS     r0,r0,r1
        0x000056aa:    0a25        %.      LSRS     r5,r4,#8
        0x000056ac:    0601        ..      LSLS     r1,r0,#24
        0x000056ae:    430d        .C      ORRS     r5,r5,r1
        0x000056b0:    0a01        ..      LSRS     r1,r0,#8
        0x000056b2:    192c        ,.      ADDS     r4,r5,r4
        0x000056b4:    4141        AA      ADCS     r1,r1,r0
        0x000056b6:    0c20         .      LSRS     r0,r4,#16
        0x000056b8:    040d        ..      LSLS     r5,r1,#16
        0x000056ba:    4328        (C      ORRS     r0,r0,r5
        0x000056bc:    0c0d        ..      LSRS     r5,r1,#16
        0x000056be:    1900        ..      ADDS     r0,r0,r4
        0x000056c0:    414d        MA      ADCS     r5,r5,r1
        0x000056c2:    2100        .!      MOVS     r1,#0
        0x000056c4:    1940        @.      ADDS     r0,r0,r5
        0x000056c6:    414d        MA      ADCS     r5,r5,r1
        0x000056c8:    08c0        ..      LSRS     r0,r0,#3
        0x000056ca:    0769        i.      LSLS     r1,r5,#29
        0x000056cc:    4308        .C      ORRS     r0,r0,r1
        0x000056ce:    08e9        ..      LSRS     r1,r5,#3
        0x000056d0:    0f84        ..      LSRS     r4,r0,#30
        0x000056d2:    008d        ..      LSLS     r5,r1,#2
        0x000056d4:    4325        %C      ORRS     r5,r5,r4
        0x000056d6:    0084        ..      LSLS     r4,r0,#2
        0x000056d8:    1824        $.      ADDS     r4,r4,r0
        0x000056da:    414d        MA      ADCS     r5,r5,r1
        0x000056dc:    1924        $.      ADDS     r4,r4,r4
        0x000056de:    416d        mA      ADCS     r5,r5,r5
        0x000056e0:    1b12        ..      SUBS     r2,r2,r4
        0x000056e2:    41ab        .A      SBCS     r3,r3,r5
        0x000056e4:    e007        ..      B        0x56f6 ; _ll_udiv10 + 108
        0x000056e6:    2509        .%      MOVS     r5,#9
        0x000056e8:    43ed        .C      MVNS     r5,r5
        0x000056ea:    112c        ,.      ASRS     r4,r5,#4
        0x000056ec:    1952        R.      ADDS     r2,r2,r5
        0x000056ee:    4163        cA      ADCS     r3,r3,r4
        0x000056f0:    2400        .$      MOVS     r4,#0
        0x000056f2:    1c40        @.      ADDS     r0,r0,#1
        0x000056f4:    4161        aA      ADCS     r1,r1,r4
        0x000056f6:    461c        .F      MOV      r4,r3
        0x000056f8:    250a        .%      MOVS     r5,#0xa
        0x000056fa:    2600        .&      MOVS     r6,#0
        0x000056fc:    1b55        U.      SUBS     r5,r2,r5
        0x000056fe:    41b4        .A      SBCS     r4,r4,r6
        0x00005700:    d2f1        ..      BCS      0x56e6 ; _ll_udiv10 + 92
        0x00005702:    bd70        p.      POP      {r4-r6,pc}
    .text
    __aeabi_uldivmod
    _ll_udiv
        0x00005704:    b5fe        ..      PUSH     {r1-r7,lr}
        0x00005706:    4605        .F      MOV      r5,r0
        0x00005708:    4610        .F      MOV      r0,r2
        0x0000570a:    460c        .F      MOV      r4,r1
        0x0000570c:    4318        .C      ORRS     r0,r0,r3
        0x0000570e:    d073        s.      BEQ      0x57f8 ; __aeabi_uldivmod + 244
        0x00005710:    46ae        .F      MOV      lr,r5
        0x00005712:    468c        .F      MOV      r12,r1
        0x00005714:    2000        .       MOVS     r0,#0
        0x00005716:    1aad        ..      SUBS     r5,r5,r2
        0x00005718:    4601        .F      MOV      r1,r0
        0x0000571a:    419c        .A      SBCS     r4,r4,r3
        0x0000571c:    d367        g.      BCC      0x57ee ; __aeabi_uldivmod + 234
        0x0000571e:    4666        fF      MOV      r6,r12
        0x00005720:    2700        .'      MOVS     r7,#0
        0x00005722:    2401        .$      MOVS     r4,#1
        0x00005724:    463d        =F      MOV      r5,r7
        0x00005726:    1ab6        ..      SUBS     r6,r6,r2
        0x00005728:    419d        .A      SBCS     r5,r5,r3
        0x0000572a:    d302        ..      BCC      0x5732 ; __aeabi_uldivmod + 46
        0x0000572c:    4613        .F      MOV      r3,r2
        0x0000572e:    463a        :F      MOV      r2,r7
        0x00005730:    2421        !$      MOVS     r4,#0x21
        0x00005732:    4665        eF      MOV      r5,r12
        0x00005734:    4676        vF      MOV      r6,lr
        0x00005736:    042f        /.      LSLS     r7,r5,#16
        0x00005738:    0c36        6.      LSRS     r6,r6,#16
        0x0000573a:    433e        >C      ORRS     r6,r6,r7
        0x0000573c:    0c2d        -.      LSRS     r5,r5,#16
        0x0000573e:    1ab6        ..      SUBS     r6,r6,r2
        0x00005740:    419d        .A      SBCS     r5,r5,r3
        0x00005742:    d304        ..      BCC      0x574e ; __aeabi_uldivmod + 74
        0x00005744:    0c15        ..      LSRS     r5,r2,#16
        0x00005746:    041b        ..      LSLS     r3,r3,#16
        0x00005748:    432b        +C      ORRS     r3,r3,r5
        0x0000574a:    0412        ..      LSLS     r2,r2,#16
        0x0000574c:    3410        .4      ADDS     r4,r4,#0x10
        0x0000574e:    4665        eF      MOV      r5,r12
        0x00005750:    4676        vF      MOV      r6,lr
        0x00005752:    062f        /.      LSLS     r7,r5,#24
        0x00005754:    0a36        6.      LSRS     r6,r6,#8
        0x00005756:    433e        >C      ORRS     r6,r6,r7
        0x00005758:    0a2d        -.      LSRS     r5,r5,#8
        0x0000575a:    1ab6        ..      SUBS     r6,r6,r2
        0x0000575c:    419d        .A      SBCS     r5,r5,r3
        0x0000575e:    d304        ..      BCC      0x576a ; __aeabi_uldivmod + 102
        0x00005760:    0e15        ..      LSRS     r5,r2,#24
        0x00005762:    021b        ..      LSLS     r3,r3,#8
        0x00005764:    432b        +C      ORRS     r3,r3,r5
        0x00005766:    0212        ..      LSLS     r2,r2,#8
        0x00005768:    3408        .4      ADDS     r4,r4,#8
        0x0000576a:    4665        eF      MOV      r5,r12
        0x0000576c:    4676        vF      MOV      r6,lr
        0x0000576e:    072f        /.      LSLS     r7,r5,#28
        0x00005770:    0936        6.      LSRS     r6,r6,#4
        0x00005772:    433e        >C      ORRS     r6,r6,r7
        0x00005774:    092d        -.      LSRS     r5,r5,#4
        0x00005776:    1ab6        ..      SUBS     r6,r6,r2
        0x00005778:    419d        .A      SBCS     r5,r5,r3
        0x0000577a:    d304        ..      BCC      0x5786 ; __aeabi_uldivmod + 130
        0x0000577c:    0f15        ..      LSRS     r5,r2,#28
        0x0000577e:    011b        ..      LSLS     r3,r3,#4
        0x00005780:    432b        +C      ORRS     r3,r3,r5
        0x00005782:    0112        ..      LSLS     r2,r2,#4
        0x00005784:    1d24        $.      ADDS     r4,r4,#4
        0x00005786:    4665        eF      MOV      r5,r12
        0x00005788:    4676        vF      MOV      r6,lr
        0x0000578a:    07af        ..      LSLS     r7,r5,#30
        0x0000578c:    08b6        ..      LSRS     r6,r6,#2
        0x0000578e:    433e        >C      ORRS     r6,r6,r7
        0x00005790:    08ad        ..      LSRS     r5,r5,#2
        0x00005792:    1ab6        ..      SUBS     r6,r6,r2
        0x00005794:    419d        .A      SBCS     r5,r5,r3
        0x00005796:    d304        ..      BCC      0x57a2 ; __aeabi_uldivmod + 158
        0x00005798:    0f95        ..      LSRS     r5,r2,#30
        0x0000579a:    009b        ..      LSLS     r3,r3,#2
        0x0000579c:    432b        +C      ORRS     r3,r3,r5
        0x0000579e:    0092        ..      LSLS     r2,r2,#2
        0x000057a0:    1ca4        ..      ADDS     r4,r4,#2
        0x000057a2:    4665        eF      MOV      r5,r12
        0x000057a4:    4676        vF      MOV      r6,lr
        0x000057a6:    07ef        ..      LSLS     r7,r5,#31
        0x000057a8:    0876        v.      LSRS     r6,r6,#1
        0x000057aa:    433e        >C      ORRS     r6,r6,r7
        0x000057ac:    086d        m.      LSRS     r5,r5,#1
        0x000057ae:    1ab6        ..      SUBS     r6,r6,r2
        0x000057b0:    419d        .A      SBCS     r5,r5,r3
        0x000057b2:    d31a        ..      BCC      0x57ea ; __aeabi_uldivmod + 230
        0x000057b4:    1892        ..      ADDS     r2,r2,r2
        0x000057b6:    415b        [A      ADCS     r3,r3,r3
        0x000057b8:    1c64        d.      ADDS     r4,r4,#1
        0x000057ba:    e016        ..      B        0x57ea ; __aeabi_uldivmod + 230
        0x000057bc:    1800        ..      ADDS     r0,r0,r0
        0x000057be:    4676        vF      MOV      r6,lr
        0x000057c0:    4665        eF      MOV      r5,r12
        0x000057c2:    4149        IA      ADCS     r1,r1,r1
        0x000057c4:    1ab7        ..      SUBS     r7,r6,r2
        0x000057c6:    419d        .A      SBCS     r5,r5,r3
        0x000057c8:    9101        ..      STR      r1,[sp,#4]
        0x000057ca:    9000        ..      STR      r0,[sp,#0]
        0x000057cc:    d309        ..      BCC      0x57e2 ; __aeabi_uldivmod + 222
        0x000057ce:    4660        `F      MOV      r0,r12
        0x000057d0:    1ab1        ..      SUBS     r1,r6,r2
        0x000057d2:    4198        .A      SBCS     r0,r0,r3
        0x000057d4:    468e        .F      MOV      lr,r1
        0x000057d6:    4684        .F      MOV      r12,r0
        0x000057d8:    9800        ..      LDR      r0,[sp,#0]
        0x000057da:    9901        ..      LDR      r1,[sp,#4]
        0x000057dc:    2500        .%      MOVS     r5,#0
        0x000057de:    1c40        @.      ADDS     r0,r0,#1
        0x000057e0:    4169        iA      ADCS     r1,r1,r5
        0x000057e2:    07dd        ..      LSLS     r5,r3,#31
        0x000057e4:    0852        R.      LSRS     r2,r2,#1
        0x000057e6:    432a        *C      ORRS     r2,r2,r5
        0x000057e8:    085b        [.      LSRS     r3,r3,#1
        0x000057ea:    1e64        d.      SUBS     r4,r4,#1
        0x000057ec:    d5e6        ..      BPL      0x57bc ; __aeabi_uldivmod + 184
        0x000057ee:    4672        rF      MOV      r2,lr
        0x000057f0:    4663        cF      MOV      r3,r12
        0x000057f2:    b003        ..      ADD      sp,sp,#0xc
        0x000057f4:    bdf0        ..      POP      {r4-r7,pc}
        0x000057f6:    e7ff        ..      B        0x57f8 ; __aeabi_uldivmod + 244
        0x000057f8:    2000        .       MOVS     r0,#0
        0x000057fa:    4601        .F      MOV      r1,r0
        0x000057fc:    46c0        .F      MOV      r8,r8
        0x000057fe:    46c0        .F      MOV      r8,r8
        0x00005800:    462a        *F      MOV      r2,r5
        0x00005802:    4623        #F      MOV      r3,r4
        0x00005804:    e7f5        ..      B        0x57f2 ; __aeabi_uldivmod + 238
    .text
    _printf_int_common
        0x00005806:    b5ff        ..      PUSH     {r0-r7,lr}
        0x00005808:    4604        .F      MOV      r4,r0
        0x0000580a:    460d        .F      MOV      r5,r1
        0x0000580c:    b081        ..      SUB      sp,sp,#4
        0x0000580e:    3024        $0      ADDS     r0,r0,#0x24
        0x00005810:    9000        ..      STR      r0,[sp,#0]
        0x00005812:    6821        !h      LDR      r1,[r4,#0]
        0x00005814:    0688        ..      LSLS     r0,r1,#26
        0x00005816:    d504        ..      BPL      0x5822 ; _printf_int_common + 28
        0x00005818:    2210        ."      MOVS     r2,#0x10
        0x0000581a:    69e0        .i      LDR      r0,[r4,#0x1c]
        0x0000581c:    4391        .C      BICS     r1,r1,r2
        0x0000581e:    6021        !`      STR      r1,[r4,#0]
        0x00005820:    e000        ..      B        0x5824 ; _printf_int_common + 30
        0x00005822:    2001        .       MOVS     r0,#1
        0x00005824:    42a8        .B      CMP      r0,r5
        0x00005826:    dd01        ..      BLE      0x582c ; _printf_int_common + 38
        0x00005828:    1b47        G.      SUBS     r7,r0,r5
        0x0000582a:    e000        ..      B        0x582e ; _printf_int_common + 40
        0x0000582c:    2700        .'      MOVS     r7,#0
        0x0000582e:    9804        ..      LDR      r0,[sp,#0x10]
        0x00005830:    69a1        .i      LDR      r1,[r4,#0x18]
        0x00005832:    197a        z.      ADDS     r2,r7,r5
        0x00005834:    1810        ..      ADDS     r0,r2,r0
        0x00005836:    1a08        ..      SUBS     r0,r1,r0
        0x00005838:    61a0        .a      STR      r0,[r4,#0x18]
        0x0000583a:    7820         x      LDRB     r0,[r4,#0]
        0x0000583c:    06c0        ..      LSLS     r0,r0,#27
        0x0000583e:    d402        ..      BMI      0x5846 ; _printf_int_common + 64
        0x00005840:    4620         F      MOV      r0,r4
        0x00005842:    46c0        .F      MOV      r8,r8
        0x00005844:    46c0        .F      MOV      r8,r8
        0x00005846:    2600        .&      MOVS     r6,#0
        0x00005848:    e008        ..      B        0x585c ; _printf_int_common + 86
        0x0000584a:    9803        ..      LDR      r0,[sp,#0xc]
        0x0000584c:    6862        bh      LDR      r2,[r4,#4]
        0x0000584e:    68a1        .h      LDR      r1,[r4,#8]
        0x00005850:    5d80        .]      LDRB     r0,[r0,r6]
        0x00005852:    4790        .G      BLX      r2
        0x00005854:    6a20         j      LDR      r0,[r4,#0x20]
        0x00005856:    1c40        @.      ADDS     r0,r0,#1
        0x00005858:    1c76        v.      ADDS     r6,r6,#1
        0x0000585a:    6220         b      STR      r0,[r4,#0x20]
        0x0000585c:    9804        ..      LDR      r0,[sp,#0x10]
        0x0000585e:    4286        .B      CMP      r6,r0
        0x00005860:    dbf3        ..      BLT      0x584a ; _printf_int_common + 68
        0x00005862:    7820         x      LDRB     r0,[r4,#0]
        0x00005864:    06c0        ..      LSLS     r0,r0,#27
        0x00005866:    d50a        ..      BPL      0x587e ; _printf_int_common + 120
        0x00005868:    4620         F      MOV      r0,r4
        0x0000586a:    46c0        .F      MOV      r8,r8
        0x0000586c:    46c0        .F      MOV      r8,r8
        0x0000586e:    e006        ..      B        0x587e ; _printf_int_common + 120
        0x00005870:    6862        bh      LDR      r2,[r4,#4]
        0x00005872:    68a1        .h      LDR      r1,[r4,#8]
        0x00005874:    2030        0       MOVS     r0,#0x30
        0x00005876:    4790        .G      BLX      r2
        0x00005878:    6a20         j      LDR      r0,[r4,#0x20]
        0x0000587a:    1c40        @.      ADDS     r0,r0,#1
        0x0000587c:    6220         b      STR      r0,[r4,#0x20]
        0x0000587e:    4638        8F      MOV      r0,r7
        0x00005880:    1e7f        ..      SUBS     r7,r7,#1
        0x00005882:    2800        .(      CMP      r0,#0
        0x00005884:    dcf4        ..      BGT      0x5870 ; _printf_int_common + 106
        0x00005886:    e007        ..      B        0x5898 ; _printf_int_common + 146
        0x00005888:    9800        ..      LDR      r0,[sp,#0]
        0x0000588a:    6862        bh      LDR      r2,[r4,#4]
        0x0000588c:    68a1        .h      LDR      r1,[r4,#8]
        0x0000588e:    5d40        @]      LDRB     r0,[r0,r5]
        0x00005890:    4790        .G      BLX      r2
        0x00005892:    6a20         j      LDR      r0,[r4,#0x20]
        0x00005894:    1c40        @.      ADDS     r0,r0,#1
        0x00005896:    6220         b      STR      r0,[r4,#0x20]
        0x00005898:    4628        (F      MOV      r0,r5
        0x0000589a:    1e6d        m.      SUBS     r5,r5,#1
        0x0000589c:    2800        .(      CMP      r0,#0
        0x0000589e:    dcf3        ..      BGT      0x5888 ; _printf_int_common + 130
        0x000058a0:    4620         F      MOV      r0,r4
        0x000058a2:    46c0        .F      MOV      r8,r8
        0x000058a4:    46c0        .F      MOV      r8,r8
        0x000058a6:    7820         x      LDRB     r0,[r4,#0]
        0x000058a8:    0600        ..      LSLS     r0,r0,#24
        0x000058aa:    d502        ..      BPL      0x58b2 ; _printf_int_common + 172
        0x000058ac:    2002        .       MOVS     r0,#2
        0x000058ae:    b005        ..      ADD      sp,sp,#0x14
        0x000058b0:    bdf0        ..      POP      {r4-r7,pc}
        0x000058b2:    2001        .       MOVS     r0,#1
        0x000058b4:    e7fb        ..      B        0x58ae ; _printf_int_common + 168
        0x000058b6:    0000        ..      MOVS     r0,r0
    .text
    _printf_char_file
        0x000058b8:    4b08        .K      LDR      r3,[pc,#32] ; [0x58dc] = 0xffffab1b
        0x000058ba:    b570        p.      PUSH     {r4-r6,lr}
        0x000058bc:    460d        .F      MOV      r5,r1
        0x000058be:    447b        {D      ADD      r3,r3,pc
        0x000058c0:    f000f827    ..'.    BL       _printf_char_common ; 0x5912
        0x000058c4:    4604        .F      MOV      r4,r0
        0x000058c6:    4628        (F      MOV      r0,r5
        0x000058c8:    f7fafd78    ..x.    BL       ferror ; 0x3bc
        0x000058cc:    2800        .(      CMP      r0,#0
        0x000058ce:    d002        ..      BEQ      0x58d6 ; _printf_char_file + 30
        0x000058d0:    2000        .       MOVS     r0,#0
        0x000058d2:    43c0        .C      MVNS     r0,r0
        0x000058d4:    bd70        p.      POP      {r4-r6,pc}
        0x000058d6:    4620         F      MOV      r0,r4
        0x000058d8:    bd70        p.      POP      {r4-r6,pc}
    $d
        0x000058da:    0000        ..      DCW    0
        0x000058dc:    ffffab1b    ....    DCD    4294945563
    $t
    .text
    __rt_udiv10
        0x000058e0:    4601        .F      MOV      r1,r0
        0x000058e2:    0880        ..      LSRS     r0,r0,#2
        0x000058e4:    1a08        ..      SUBS     r0,r1,r0
        0x000058e6:    0902        ..      LSRS     r2,r0,#4
        0x000058e8:    1810        ..      ADDS     r0,r2,r0
        0x000058ea:    0a02        ..      LSRS     r2,r0,#8
        0x000058ec:    1810        ..      ADDS     r0,r2,r0
        0x000058ee:    0c02        ..      LSRS     r2,r0,#16
        0x000058f0:    1810        ..      ADDS     r0,r2,r0
        0x000058f2:    08c0        ..      LSRS     r0,r0,#3
        0x000058f4:    0082        ..      LSLS     r2,r0,#2
        0x000058f6:    1812        ..      ADDS     r2,r2,r0
        0x000058f8:    0052        R.      LSLS     r2,r2,#1
        0x000058fa:    1a89        ..      SUBS     r1,r1,r2
        0x000058fc:    e001        ..      B        0x5902 ; __rt_udiv10 + 34
        0x000058fe:    1c40        @.      ADDS     r0,r0,#1
        0x00005900:    390a        .9      SUBS     r1,r1,#0xa
        0x00005902:    290a        .)      CMP      r1,#0xa
        0x00005904:    d2fb        ..      BCS      0x58fe ; __rt_udiv10 + 30
        0x00005906:    4770        pG      BX       lr
    .text
    _printf_input_char
        0x00005908:    6901        .i      LDR      r1,[r0,#0x10]
        0x0000590a:    1c4a        J.      ADDS     r2,r1,#1
        0x0000590c:    6102        .a      STR      r2,[r0,#0x10]
        0x0000590e:    7808        .x      LDRB     r0,[r1,#0]
        0x00005910:    4770        pG      BX       lr
    _printf_char_common
        0x00005912:    b500        ..      PUSH     {lr}
        0x00005914:    b08f        ..      SUB      sp,sp,#0x3c
        0x00005916:    9102        ..      STR      r1,[sp,#8]
        0x00005918:    2100        .!      MOVS     r1,#0
        0x0000591a:    9105        ..      STR      r1,[sp,#0x14]
        0x0000591c:    4905        .I      LDR      r1,[pc,#20] ; [0x5934] = 0xffffffe5
        0x0000591e:    9301        ..      STR      r3,[sp,#4]
        0x00005920:    4479        yD      ADD      r1,r1,pc
        0x00005922:    9103        ..      STR      r1,[sp,#0xc]
        0x00005924:    4611        .F      MOV      r1,r2
        0x00005926:    9004        ..      STR      r0,[sp,#0x10]
        0x00005928:    4668        hF      MOV      r0,sp
        0x0000592a:    f7fffd3d    ..=.    BL       __printf ; 0x53a8
        0x0000592e:    b00f        ..      ADD      sp,sp,#0x3c
        0x00005930:    bd00        ..      POP      {pc}
    $d
        0x00005932:    0000        ..      DCW    0
        0x00005934:    ffffffe5    ....    DCD    4294967269
    $t
    .text
    __user_setup_stackheap
        0x00005938:    4675        uF      MOV      r5,lr
        0x0000593a:    f000f825    ..%.    BL       __user_libspace ; 0x5988
        0x0000593e:    46ae        .F      MOV      lr,r5
        0x00005940:    0005        ..      MOVS     r5,r0
        0x00005942:    4669        iF      MOV      r1,sp
        0x00005944:    4653        SF      MOV      r3,r10
        0x00005946:    08c0        ..      LSRS     r0,r0,#3
        0x00005948:    00c0        ..      LSLS     r0,r0,#3
        0x0000594a:    4685        .F      MOV      sp,r0
        0x0000594c:    b018        ..      ADD      sp,sp,#0x60
        0x0000594e:    b520         .      PUSH     {r5,lr}
        0x00005950:    f7fafd20    .. .    BL       __user_initial_stackheap ; 0x394
        0x00005954:    bc60        `.      POP      {r5,r6}
        0x00005956:    2700        .'      MOVS     r7,#0
        0x00005958:    0849        I.      LSRS     r1,r1,#1
        0x0000595a:    46b6        .F      MOV      lr,r6
        0x0000595c:    2600        .&      MOVS     r6,#0
        0x0000595e:    c5c0        ..      STM      r5!,{r6,r7}
        0x00005960:    c5c0        ..      STM      r5!,{r6,r7}
        0x00005962:    c5c0        ..      STM      r5!,{r6,r7}
        0x00005964:    c5c0        ..      STM      r5!,{r6,r7}
        0x00005966:    c5c0        ..      STM      r5!,{r6,r7}
        0x00005968:    c5c0        ..      STM      r5!,{r6,r7}
        0x0000596a:    c5c0        ..      STM      r5!,{r6,r7}
        0x0000596c:    c5c0        ..      STM      r5!,{r6,r7}
        0x0000596e:    3d40        @=      SUBS     r5,r5,#0x40
        0x00005970:    0049        I.      LSLS     r1,r1,#1
        0x00005972:    468d        .F      MOV      sp,r1
        0x00005974:    4770        pG      BX       lr
    .text
    exit
        0x00005976:    b510        ..      PUSH     {r4,lr}
        0x00005978:    4604        .F      MOV      r4,r0
        0x0000597a:    46c0        .F      MOV      r8,r8
        0x0000597c:    46c0        .F      MOV      r8,r8
        0x0000597e:    4620         F      MOV      r0,r4
        0x00005980:    f7fafbe5    ....    BL       __rt_exit ; 0x14e
        0x00005984:    bd10        ..      POP      {r4,pc}
        0x00005986:    0000        ..      MOVS     r0,r0
    .text
    __user_libspace
    __user_perproc_libspace
    __user_perthread_libspace
        0x00005988:    4800        .H      LDR      r0,[pc,#0] ; [0x598c] = 0x20002fc4
        0x0000598a:    4770        pG      BX       lr
    $d
        0x0000598c:    20002fc4    ./.     DCD    536883140
    $t
    i.__ARM_common_switch8
    __ARM_common_switch8
        0x00005990:    b430        0.      PUSH     {r4,r5}
        0x00005992:    4674        tF      MOV      r4,lr
        0x00005994:    1e64        d.      SUBS     r4,r4,#1
        0x00005996:    7825        %x      LDRB     r5,[r4,#0]
        0x00005998:    1c64        d.      ADDS     r4,r4,#1
        0x0000599a:    42ab        .B      CMP      r3,r5
        0x0000599c:    d304        ..      BCC      0x59a8 ; __ARM_common_switch8 + 24
        0x0000599e:    5d63        c]      LDRB     r3,[r4,r5]
        0x000059a0:    005b        [.      LSLS     r3,r3,#1
        0x000059a2:    18e3        ..      ADDS     r3,r4,r3
        0x000059a4:    bc30        0.      POP      {r4,r5}
        0x000059a6:    4718        .G      BX       r3
        0x000059a8:    461d        .F      MOV      r5,r3
        0x000059aa:    e7f8        ..      B        0x599e ; __ARM_common_switch8 + 14
    $d.realdata
    .constdata
    g_adc_config
        0x000059ac:    00000000    ....    DCD    0
        0x000059b0:    00ff0100    ....    DCD    16711936
        0x000059b4:    00010201    ....    DCD    66049
    g_sensor_resistive_config
        0x000059b8:    000a0007    ....    DCD    655367
        0x000059bc:    00000000    ....    DCD    0
        0x000059c0:    00000001    ....    DCD    1
        0x000059c4:    00000001    ....    DCD    1
        0x000059c8:    00000001    ....    DCD    1
        0x000059cc:    00000001    ....    DCD    1
        0x000059d0:    00000000    ....    DCD    0
        0x000059d4:    00000000    ....    DCD    0
        0x000059d8:    00000000    ....    DCD    0
    .constdata
        0x000059dc:    03880322    "...    DCD    59245346
        0x000059e0:    010d03a1    ....    DCD    17630113
        0x000059e4:    01b203b5    ....    DCD    28443573
        0x000059e8:    02420171    q.B.    DCD    37880177
        0x000059ec:    03ca01c7    ....    DCD    63570375
        0x000059f0:    0129008b    ..).    DCD    19464331
        0x000059f4:    006d024b    K.m.    DCD    7144011
        0x000059f8:    009f0175    u...    DCD    10420597
        0x000059fc:    03850321    !...    DCD    59048737
        0x00005a00:    010b039c    ....    DCD    17499036
        0x00005a04:    01ad03ac    ....    DCD    28115884
        0x00005a08:    0239016c    l.9.    DCD    37290348
        0x00005a0c:    03b701bf    ....    DCD    62325183
        0x00005a10:    01220088    ..".    DCD    19005576
        0x00005a14:    006a023c    <.j.    DCD    6947388
        0x00005a18:    009a016a    j...    DCD    10092906
    .constdata
    default_dac_2m_setting
        0x00005a1c:    0000001f    ....    DCD    31
        0x00005a20:    0000001f    ....    DCD    31
        0x00005a24:    0000001d    ....    DCD    29
        0x00005a28:    00000002    ....    DCD    2
        0x00005a2c:    00000002    ....    DCD    2
        0x00005a30:    046d046b    k.m.    DCD    74253419
        0x00005a34:    0471046f    o.q.    DCD    74515567
        0x00005a38:    04760474    t.v.    DCD    74843252
        0x00005a3c:    047a0478    x.z.    DCD    75105400
        0x00005a40:    045d045b    [.].    DCD    73204827
        0x00005a44:    0461045f    _.a.    DCD    73466975
        0x00005a48:    04660464    d.f.    DCD    73794660
        0x00005a4c:    046a0468    h.j.    DCD    74056808
        0x00005a50:    046e046c    l.n.    DCD    74318956
        0x00005a54:    04720470    p.r.    DCD    74581104
        0x00005a58:    04750473    s.u.    DCD    74777715
        0x00005a5c:    04790477    w.y.    DCD    75039863
        0x00005a60:    045e045c    \.^.    DCD    73270364
        0x00005a64:    04620460    `.b.    DCD    73532512
        0x00005a68:    04650463    c.e.    DCD    73729123
        0x00005a6c:    04690467    g.i.    DCD    73991271
    .constdata
    uc_hextab
        0x00005a70:    33323130    0123    DCD    858927408
        0x00005a74:    37363534    4567    DCD    926299444
        0x00005a78:    42413938    89AB    DCD    1111570744
        0x00005a7c:    46454443    CDEF    DCD    1178944579
        0x00005a80:    00583040    @0X.    DCD    5779520
    lc_hextab
        0x00005a84:    33323130    0123    DCD    858927408
        0x00005a88:    37363534    4567    DCD    926299444
        0x00005a8c:    62613938    89ab    DCD    1650538808
        0x00005a90:    66656463    cdef    DCD    1717920867
        0x00005a94:    00783040    @0x.    DCD    7876672
    Region$$Table$$Base
        0x00005a98:    00005ab8    .Z..    DCD    23224
        0x00005a9c:    20000000    ...     DCD    536870912
        0x00005aa0:    000000f4    ....    DCD    244
        0x00005aa4:    000000c4    ....    DCD    196
        0x00005aa8:    00005bac    .[..    DCD    23468
        0x00005aac:    200000f4    ...     DCD    536871156
        0x00005ab0:    00003b3c    <;..    DCD    15164
        0x00005ab4:    000000e0    ....    DCD    224
    Region$$Table$$Limit

====================================

** Section #2

    Name        : RW_IRAM1
    Type        : SHT_PROGBITS (0x00000001)
    Flags       : SHF_ALLOC + SHF_WRITE (0x00000003)
    Addr        : 0x20000000
    File Offset : 23276 (0x5aec)
    Size        : 244 bytes (0xf4)
    Link        : SHN_UNDEF
    Info        : 0
    Alignment   : 8
    Entry Size  : 0


====================================

** Section #3

    Name        : RW_IRAM1
    Type        : SHT_NOBITS (0x00000008)
    Flags       : SHF_ALLOC + SHF_WRITE (0x00000003)
    Addr        : 0x200000f4
    File Offset : 23520 (0x5be0)
    Size        : 15164 bytes (0x3b3c)
    Link        : SHN_UNDEF
    Info        : 0
    Alignment   : 16
    Entry Size  : 0


====================================

** Section #4

    Name        : .debug_abbrev
    Type        : SHT_PROGBITS (0x00000001)
    Flags       : None (0x00000000)
    Addr        : 0x00000000
    File Offset : 23520 (0x5be0)
    Size        : 1476 bytes (0x5c4)
    Link        : SHN_UNDEF
    Info        : 0
    Alignment   : 1
    Entry Size  : 0


====================================

** Section #5

    Name        : .debug_frame
    Type        : SHT_PROGBITS (0x00000001)
    Flags       : None (0x00000000)
    Addr        : 0x00000000
    File Offset : 24996 (0x61a4)
    Size        : 8580 bytes (0x2184)
    Link        : SHN_UNDEF
    Info        : 0
    Alignment   : 1
    Entry Size  : 0


====================================

** Section #6

    Name        : .debug_info
    Type        : SHT_PROGBITS (0x00000001)
    Flags       : None (0x00000000)
    Addr        : 0x00000000
    File Offset : 33576 (0x8328)
    Size        : 48340 bytes (0xbcd4)
    Link        : SHN_UNDEF
    Info        : 0
    Alignment   : 1
    Entry Size  : 0


====================================

** Section #7

    Name        : .debug_line
    Type        : SHT_PROGBITS (0x00000001)
    Flags       : None (0x00000000)
    Addr        : 0x00000000
    File Offset : 81916 (0x13ffc)
    Size        : 18252 bytes (0x474c)
    Link        : SHN_UNDEF
    Info        : 0
    Alignment   : 1
    Entry Size  : 0


====================================

** Section #8

    Name        : .debug_loc
    Type        : SHT_PROGBITS (0x00000001)
    Flags       : None (0x00000000)
    Addr        : 0x00000000
    File Offset : 100168 (0x18748)
    Size        : 18476 bytes (0x482c)
    Link        : SHN_UNDEF
    Info        : 0
    Alignment   : 1
    Entry Size  : 0


====================================

** Section #9

    Name        : .debug_macinfo
    Type        : SHT_PROGBITS (0x00000001)
    Flags       : None (0x00000000)
    Addr        : 0x00000000
    File Offset : 118644 (0x1cf74)
    Size        : 7256 bytes (0x1c58)
    Link        : SHN_UNDEF
    Info        : 0
    Alignment   : 1
    Entry Size  : 0


====================================

** Section #10

    Name        : .debug_pubnames
    Type        : SHT_PROGBITS (0x00000001)
    Flags       : None (0x00000000)
    Addr        : 0x00000000
    File Offset : 125900 (0x1ebcc)
    Size        : 7249 bytes (0x1c51)
    Link        : SHN_UNDEF
    Info        : 0
    Alignment   : 1
    Entry Size  : 0


====================================

** Section #11

    Name        : .symtab
    Type        : SHT_SYMTAB (0x00000002)
    Flags       : None (0x00000000)
    Addr        : 0x00000000
    File Offset : 133152 (0x20820)
    Size        : 12896 bytes (0x3260)
    Link        : Section 12 (.strtab)
    Info        : Last local symbol no = 378
    Alignment   : 4
    Entry Size  : 16


====================================

** Section #12

    Name        : .strtab
    Type        : SHT_STRTAB (0x00000003)
    Flags       : None (0x00000000)
    Addr        : 0x00000000
    File Offset : 146048 (0x23a80)
    Size        : 11524 bytes (0x2d04)
    Link        : SHN_UNDEF
    Info        : 0
    Alignment   : 1
    Entry Size  : 0


====================================

** Section #13

    Name        : .note
    Type        : SHT_NOTE (0x00000007)
    Flags       : None (0x00000000)
    Addr        : 0x00000000
    File Offset : 157572 (0x26784)
    Size        : 28 bytes (0x1c)
    Link        : SHN_UNDEF
    Info        : 0
    Alignment   : 4
    Entry Size  : 0

        Section     Segment
    ====================================

              1           0
              2           0
              3           0

====================================

** Section #14

    Name        : .comment
    Type        : SHT_PROGBITS (0x00000001)
    Flags       : None (0x00000000)
    Addr        : 0x00000000
    File Offset : 157600 (0x267a0)
    Size        : 9108 bytes (0x2394)
    Link        : SHN_UNDEF
    Info        : 0
    Alignment   : 1
    Entry Size  : 0

    Component: ARM Compiler 5.06 update 6 (build 750) Tool: armlink [4d35ed]
    ArmLink --strict --callgraph --load_addr_map_info --map --symbols --xref --diag_suppress=9931 --cpu=Cortex-M0 --list=.\Listings\sensor_adc.map --output=.\Objects\sensor_adc.axf --scatter=.\Objects\sensor_adc.sct --info=summarysizes,sizes,totals,unused,veneers

    C:\Keil_v5\ARM\ARMCC\bin\..\lib\armlib\c_p.l
    C:\Keil_v5\ARM\ARMCC\bin\..\lib\armlib\fz_ps.l
    C:\Keil_v5\ARM\ARMCC\bin\..\lib\armlib\h_p.l
    C:\Keil_v5\ARM\ARMCC\bin\..\lib\armlib\m_ps.l
    C:\Keil_v5\ARM\ARMCC\bin\..\lib\armlib\vfpsupport.l
    Input Comments:
    
    sensor_adc.o
    
    Component: ARM Compiler 5.06 update 6 (build 750) Tool: ArmCC [4d3637]
    ArmCC --c99 --debug -c -o.\objects\sensor_adc.o --depend=.\objects\sensor_adc.d --cpu=Cortex-M0 --apcs=interwork -O0 --diag_suppress=9931 -I../../ -I.\RTE\_sensor_adc -IC:\Keil_v5\ARM\PACK\ARM\CMSIS\5.3.0\Device\ARM\ARMCM0\Include -IC:\Keil_v5\ARM\CMSIS\Include -IC:\Keil_v5\ARM\PACK\ARM\CMSIS\5.3.0\Device\Include -D__UVISION_VERSION=525 -DARMCM0 --omf_browse=.\objects\sensor_adc.crf sensor_adc.c
    
    cm0dsasm.o
    
    Component: ARM Compiler 5.06 update 6 (build 750) Tool: armasm [4d35ec]
    ArmAsm --16 --debug --xref --diag_suppress=9931 --cpu=Cortex-M0 --apcs=interwork --depend=.\objects\cm0dsasm.d  -I.\RTE\_sensor_adc -IC:\Keil_v5\ARM\PACK\ARM\CMSIS\5.3.0\Device\ARM\ARMCM0\Include -IC:\Keil_v5\ARM\CMSIS\Include -IC:\Keil_v5\
    
    
    retarget.o
    
    Component: ARM Compiler 5.06 update 6 (build 750) Tool: ArmCC [4d3637]
    ArmCC --c99 --debug -c -o.\objects\retarget.o --depend=.\objects\retarget.d --cpu=Cortex-M0 --apcs=interwork -O0 --diag_suppress=9931 -I../../ -I.\RTE\_sensor_adc -IC:\Keil_v5\ARM\PACK\ARM\CMSIS\5.3.0\Device\ARM\ARMCM0\Include -IC:\Keil_v5\ARM\CMSIS\Include -IC:\Keil_v5\ARM\PACK\ARM\CMSIS\5.3.0\Device\Include -D__UVISION_VERSION=525 -DARMCM0 --omf_browse=.\objects\retarget.crf retarget.c
    
    optical.o
    
    Component: ARM Compiler 5.06 update 6 (build 750) Tool: ArmCC [4d3637]
    ArmCC --c99 --debug -c -o.\objects\optical.o --depend=.\objects\optical.d --cpu=Cortex-M0 --apcs=interwork -O0 --diag_suppress=9931 -I../../ -I.\RTE\_sensor_adc -IC:\Keil_v5\ARM\PACK\ARM\CMSIS\5.3.0\Device\ARM\ARMCM0\Include -IC:\Keil_v5\ARM\CMSIS\Include -IC:\Keil_v5\ARM\PACK\ARM\CMSIS\5.3.0\Device\Include -D__UVISION_VERSION=525 -DARMCM0 --omf_browse=.\objects\optical.crf optical.c
    
    radio.o
    
    Component: ARM Compiler 5.06 update 6 (build 750) Tool: ArmCC [4d3637]
    ArmCC --c99 --debug -c -o.\objects\radio.o --depend=.\objects\radio.d --cpu=Cortex-M0 --apcs=interwork -O0 --diag_suppress=9931 -I../../ -I.\RTE\_sensor_adc -IC:\Keil_v5\ARM\PACK\ARM\CMSIS\5.3.0\Device\ARM\ARMCM0\Include -IC:\Keil_v5\ARM\CMSIS\Include -IC:\Keil_v5\ARM\PACK\ARM\CMSIS\5.3.0\Device\Include -D__UVISION_VERSION=525 -DARMCM0 --omf_browse=.\objects\radio.crf radio.c
    
    adc.o
    
    Component: ARM Compiler 5.06 update 6 (build 750) Tool: ArmCC [4d3637]
    ArmCC --c99 --debug -c -o.\objects\adc.o --depend=.\objects\adc.d --cpu=Cortex-M0 --apcs=interwork -O0 --diag_suppress=9931 -I../../ -I.\RTE\_sensor_adc -IC:\Keil_v5\ARM\PACK\ARM\CMSIS\5.3.0\Device\ARM\ARMCM0\Include -IC:\Keil_v5\ARM\CMSIS\Include -IC:\Keil_v5\ARM\PACK\ARM\CMSIS\5.3.0\Device\Include -D__UVISION_VERSION=525 -DARMCM0 --omf_browse=.\objects\adc.crf adc.c
    
    gpio.o
    
    Component: ARM Compiler 5.06 update 6 (build 750) Tool: ArmCC [4d3637]
    ArmCC --c99 --debug -c -o.\objects\gpio.o --depend=.\objects\gpio.d --cpu=Cortex-M0 --apcs=interwork -O0 --diag_suppress=9931 -I../../ -I.\RTE\_sensor_adc -IC:\Keil_v5\ARM\PACK\ARM\CMSIS\5.3.0\Device\ARM\ARMCM0\Include -IC:\Keil_v5\ARM\CMSIS\Include -IC:\Keil_v5\ARM\PACK\ARM\CMSIS\5.3.0\Device\Include -D__UVISION_VERSION=525 -DARMCM0 --omf_browse=.\objects\gpio.crf gpio.c
    
    uart.o
    
    Component: ARM Compiler 5.06 update 6 (build 750) Tool: ArmCC [4d3637]
    ArmCC --c99 --debug -c -o.\objects\uart.o --depend=.\objects\uart.d --cpu=Cortex-M0 --apcs=interwork -O0 --diag_suppress=9931 -I../../ -I.\RTE\_sensor_adc -IC:\Keil_v5\ARM\PACK\ARM\CMSIS\5.3.0\Device\ARM\ARMCM0\Include -IC:\Keil_v5\ARM\CMSIS\Include -IC:\Keil_v5\ARM\PACK\ARM\CMSIS\5.3.0\Device\Include -D__UVISION_VERSION=525 -DARMCM0 --omf_browse=.\objects\uart.crf uart.c
    
    rftimer.o
    
    Component: ARM Compiler 5.06 update 6 (build 750) Tool: ArmCC [4d3637]
    ArmCC --c99 --debug -c -o.\objects\rftimer.o --depend=.\objects\rftimer.d --cpu=Cortex-M0 --apcs=interwork -O0 --diag_suppress=9931 -I../../ -I.\RTE\_sensor_adc -IC:\Keil_v5\ARM\PACK\ARM\CMSIS\5.3.0\Device\ARM\ARMCM0\Include -IC:\Keil_v5\ARM\CMSIS\Include -IC:\Keil_v5\ARM\PACK\ARM\CMSIS\5.3.0\Device\Include -D__UVISION_VERSION=525 -DARMCM0 --omf_browse=.\objects\rftimer.crf rftimer.c
    
    scm3c_hw_interface.o
    
    Component: ARM Compiler 5.06 update 6 (build 750) Tool: ArmCC [4d3637]
    ArmCC --c99 --debug -c -o.\objects\scm3c_hw_interface.o --depend=.\objects\scm3c_hw_interface.d --cpu=Cortex-M0 --apcs=interwork -O0 --diag_suppress=9931 -I../../ -I.\RTE\_sensor_adc -IC:\Keil_v5\ARM\PACK\ARM\CMSIS\5.3.0\Device\ARM\ARMCM0\Include -IC:\Keil_v5\ARM\CMSIS\Include -IC:\Keil_v5\ARM\PACK\ARM\CMSIS\5.3.0\Device\Include -D__UVISION_VERSION=525 -DARMCM0 --omf_browse=.\objects\scm3c_hw_interface.crf scm3c_hw_interface.c
    
    matrix.o
    
    Component: ARM Compiler 5.06 update 6 (build 750) Tool: ArmCC [4d3637]
    ArmCC --c99 --debug -c -o.\objects\matrix.o --depend=.\objects\matrix.d --cpu=Cortex-M0 --apcs=interwork -O0 --diag_suppress=9931 -I../../ -I.\RTE\_sensor_adc -IC:\Keil_v5\ARM\PACK\ARM\CMSIS\5.3.0\Device\ARM\ARMCM0\Include -IC:\Keil_v5\ARM\CMSIS\Include -IC:\Keil_v5\ARM\PACK\ARM\CMSIS\5.3.0\Device\Include -D__UVISION_VERSION=525 -DARMCM0 --omf_browse=.\objects\matrix.crf matrix.c
    
    svd_3.o
    
    Component: ARM Compiler 5.06 update 6 (build 750) Tool: ArmCC [4d3637]
    ArmCC --c99 --debug -c -o.\objects\svd_3.o --depend=.\objects\svd_3.d --cpu=Cortex-M0 --apcs=interwork -O0 --diag_suppress=9931 -I../../ -I.\RTE\_sensor_adc -IC:\Keil_v5\ARM\PACK\ARM\CMSIS\5.3.0\Device\ARM\ARMCM0\Include -IC:\Keil_v5\ARM\CMSIS\Include -IC:\Keil_v5\ARM\PACK\ARM\CMSIS\5.3.0\Device\Include -D__UVISION_VERSION=525 -DARMCM0 --omf_browse=.\objects\svd_3.crf svd_3.c
    
    matrix_pencil_method.o
    
    Component: ARM Compiler 5.06 update 6 (build 750) Tool: ArmCC [4d3637]
    ArmCC --c99 --debug -c -o.\objects\matrix_pencil_method.o --depend=.\objects\matrix_pencil_method.d --cpu=Cortex-M0 --apcs=interwork -O0 --diag_suppress=9931 -I../../ -I.\RTE\_sensor_adc -IC:\Keil_v5\ARM\PACK\ARM\CMSIS\5.3.0\Device\ARM\ARMCM0\Include -IC:\Keil_v5\ARM\CMSIS\Include -IC:\Keil_v5\ARM\PACK\ARM\CMSIS\5.3.0\Device\Include -D__UVISION_VERSION=525 -DARMCM0 --omf_browse=.\objects\matrix_pencil_method.crf matrix_pencil_method.c
    
    sensor_resistive.o
    
    Component: ARM Compiler 5.06 update 6 (build 750) Tool: ArmCC [4d3637]
    ArmCC --c99 --debug -c -o.\objects\sensor_resistive.o --depend=.\objects\sensor_resistive.d --cpu=Cortex-M0 --apcs=interwork -O0 --diag_suppress=9931 -I../../ -I.\RTE\_sensor_adc -IC:\Keil_v5\ARM\PACK\ARM\CMSIS\5.3.0\Device\ARM\ARMCM0\Include -IC:\Keil_v5\ARM\CMSIS\Include -IC:\Keil_v5\ARM\PACK\ARM\CMSIS\5.3.0\Device\Include -D__UVISION_VERSION=525 -DARMCM0 --omf_browse=.\objects\sensor_resistive.crf sensor_resistive.c
    
    time_constant.o
    
    Component: ARM Compiler 5.06 update 6 (build 750) Tool: ArmCC [4d3637]
    ArmCC --c99 --debug -c -o.\objects\time_constant.o --depend=.\objects\time_constant.d --cpu=Cortex-M0 --apcs=interwork -O0 --diag_suppress=9931 -I../../ -I.\RTE\_sensor_adc -IC:\Keil_v5\ARM\PACK\ARM\CMSIS\5.3.0\Device\ARM\ARMCM0\Include -IC:\Keil_v5\ARM\CMSIS\Include -IC:\Keil_v5\ARM\PACK\ARM\CMSIS\5.3.0\Device\Include -D__UVISION_VERSION=525 -DARMCM0 --omf_browse=.\objects\time_constant.crf time_constant.c
    
    adc_msb.o
    
    Component: ARM Compiler 5.06 update 6 (build 750) Tool: ArmCC [4d3637]
    ArmCC --c99 --debug -c -o.\objects\adc_msb.o --depend=.\objects\adc_msb.d --cpu=Cortex-M0 --apcs=interwork -O0 --diag_suppress=9931 -I../../ -I.\RTE\_sensor_adc -IC:\Keil_v5\ARM\PACK\ARM\CMSIS\5.3.0\Device\ARM\ARMCM0\Include -IC:\Keil_v5\ARM\CMSIS\Include -IC:\Keil_v5\ARM\PACK\ARM\CMSIS\5.3.0\Device\Include -D__UVISION_VERSION=525 -DARMCM0 --omf_browse=.\objects\adc_msb.crf adc_msb.c
    
    sensor_capacitor.o
    
    Component: ARM Compiler 5.06 update 6 (build 750) Tool: ArmCC [4d3637]
    ArmCC --c99 --debug -c -o.\objects\sensor_capacitor.o --depend=.\objects\sensor_capacitor.d --cpu=Cortex-M0 --apcs=interwork -O0 --diag_suppress=9931 -I../../ -I.\RTE\_sensor_adc -IC:\Keil_v5\ARM\PACK\ARM\CMSIS\5.3.0\Device\ARM\ARMCM0\Include -IC:\Keil_v5\ARM\CMSIS\Include -IC:\Keil_v5\ARM\PACK\ARM\CMSIS\5.3.0\Device\Include -D__UVISION_VERSION=525 -DARMCM0 --omf_browse=.\objects\sensor_capacitor.crf sensor_capacitor.c
    
    sensor_gpio.o
    
    Component: ARM Compiler 5.06 update 6 (build 750) Tool: ArmCC [4d3637]
    ArmCC --c99 --debug -c -o.\objects\sensor_gpio.o --depend=.\objects\sensor_gpio.d --cpu=Cortex-M0 --apcs=interwork -O0 --diag_suppress=9931 -I../../ -I.\RTE\_sensor_adc -IC:\Keil_v5\ARM\PACK\ARM\CMSIS\5.3.0\Device\ARM\ARMCM0\Include -IC:\Keil_v5\ARM\CMSIS\Include -IC:\Keil_v5\ARM\PACK\ARM\CMSIS\5.3.0\Device\Include -D__UVISION_VERSION=525 -DARMCM0 --omf_browse=.\objects\sensor_gpio.crf sensor_gpio.c
    

====================================

** Section #15

    Name        : .shstrtab
    Type        : SHT_STRTAB (0x00000003)
    Flags       : None (0x00000000)
    Addr        : 0x00000000
    File Offset : 166708 (0x28b34)
    Size        : 156 bytes (0x9c)
    Link        : SHN_UNDEF
    Info        : 0
    Alignment   : 1
    Entry Size  : 0


====================================

